ARM GAS  /tmp/ccEyJdPl.s 			page 1


   1              		.cpu cortex-m4
   2              		.eabi_attribute 27, 1
   3              		.eabi_attribute 28, 1
   4              		.eabi_attribute 20, 1
   5              		.eabi_attribute 21, 1
   6              		.eabi_attribute 23, 3
   7              		.eabi_attribute 24, 1
   8              		.eabi_attribute 25, 1
   9              		.eabi_attribute 26, 1
  10              		.eabi_attribute 30, 1
  11              		.eabi_attribute 34, 1
  12              		.eabi_attribute 18, 4
  13              		.file	"fobFirmware.c"
  14              		.text
  15              	.Ltext0:
  16              		.cfi_sections	.debug_frame
  17              		.section	.rodata.pairFob.str1.4,"aMS",%progbits,1
  18              		.align	2
  19              	.LC0:
  20 0000 5000     		.ascii	"P\000"
  21 0002 0000     		.align	2
  22              	.LC1:
  23 0004 50616972 		.ascii	"Paired\000"
  23      656400
  24              		.section	.text.pairFob,"ax",%progbits
  25              		.align	1
  26              		.global	pairFob
  27              		.arch armv7e-m
  28              		.syntax unified
  29              		.thumb
  30              		.thumb_func
  31              		.fpu fpv4-sp-d16
  33              	pairFob:
  34              	.LVL0:
  35              	.LFB4:
  36              		.file 1 "../../application/source/fobFirmware.c"
   1:../../application/source/fobFirmware.c **** /**
   2:../../application/source/fobFirmware.c ****  * @file main.c
   3:../../application/source/fobFirmware.c ****  * @author Frederich Stine
   4:../../application/source/fobFirmware.c ****  * @brief eCTF Fob Example Design Implementation
   5:../../application/source/fobFirmware.c ****  * @date 2023
   6:../../application/source/fobFirmware.c ****  *
   7:../../application/source/fobFirmware.c ****  * This source file is part of an example system for MITRE's 2023 Embedded
   8:../../application/source/fobFirmware.c ****  * System CTF (eCTF). This code is being provided only for educational purposes
   9:../../application/source/fobFirmware.c ****  * for the 2023 MITRE eCTF competition, and may not meet MITRE standards for
  10:../../application/source/fobFirmware.c ****  * quality. Use this code at your own risk!
  11:../../application/source/fobFirmware.c ****  *
  12:../../application/source/fobFirmware.c ****  * @copyright Copyright (c) 2023 The MITRE Corporation
  13:../../application/source/fobFirmware.c ****  */
  14:../../application/source/fobFirmware.c **** 
  15:../../application/source/fobFirmware.c **** #include <stdbool.h>
  16:../../application/source/fobFirmware.c **** #include <stdint.h>
  17:../../application/source/fobFirmware.c **** #include <string.h>
  18:../../application/source/fobFirmware.c **** #include <stdio.h>
  19:../../application/source/fobFirmware.c **** 
  20:../../application/source/fobFirmware.c **** #include "secrets.h"
  21:../../application/source/fobFirmware.c **** #include "messages.h"
ARM GAS  /tmp/ccEyJdPl.s 			page 2


  22:../../application/source/fobFirmware.c **** #include "dataFormats.h"
  23:../../application/source/fobFirmware.c **** #include "uart.h"
  24:../../application/source/fobFirmware.c **** #include "platform.h"
  25:../../application/source/fobFirmware.c **** 
  26:../../application/source/fobFirmware.c **** /*** Structure definitions ***/
  27:../../application/source/fobFirmware.c **** // Defines a struct for the format of an enable message
  28:../../application/source/fobFirmware.c **** typedef struct
  29:../../application/source/fobFirmware.c **** {
  30:../../application/source/fobFirmware.c ****   uint8_t car_id[8];
  31:../../application/source/fobFirmware.c ****   uint8_t feature;
  32:../../application/source/fobFirmware.c **** } ENABLE_PACKET;
  33:../../application/source/fobFirmware.c **** 
  34:../../application/source/fobFirmware.c **** /*** Function definitions ***/
  35:../../application/source/fobFirmware.c **** // Core functions - all functionality supported by fob
  36:../../application/source/fobFirmware.c **** void pairFob(FLASH_DATA *fob_state_ram);
  37:../../application/source/fobFirmware.c **** void unlockCar(FLASH_DATA *fob_state_ram);
  38:../../application/source/fobFirmware.c **** void enableFeature(FLASH_DATA *fob_state_ram);
  39:../../application/source/fobFirmware.c **** void startCar(FLASH_DATA *fob_state_ram);
  40:../../application/source/fobFirmware.c **** 
  41:../../application/source/fobFirmware.c **** // Helper functions - receive ack message
  42:../../application/source/fobFirmware.c **** uint8_t receiveAck();
  43:../../application/source/fobFirmware.c **** 
  44:../../application/source/fobFirmware.c **** /**
  45:../../application/source/fobFirmware.c ****  * @brief Main function for the fob example
  46:../../application/source/fobFirmware.c ****  *
  47:../../application/source/fobFirmware.c ****  * Listens over UART and SW1 for an unlock command. If unlock command presented,
  48:../../application/source/fobFirmware.c ****  * attempts to unlock door. Listens over UART for pair command. If pair
  49:../../application/source/fobFirmware.c ****  * command presented, attempts to either pair a new key, or be paired
  50:../../application/source/fobFirmware.c ****  * based on firmware build.
  51:../../application/source/fobFirmware.c ****  */
  52:../../application/source/fobFirmware.c **** int main(int argc, char ** argv)
  53:../../application/source/fobFirmware.c **** {
  54:../../application/source/fobFirmware.c ****   initHardware_fob(argc, argv);
  55:../../application/source/fobFirmware.c **** 
  56:../../application/source/fobFirmware.c ****   FLASH_DATA fob_state_ram;
  57:../../application/source/fobFirmware.c ****   //FLASH_DATA fob_state_flash;
  58:../../application/source/fobFirmware.c ****   //readVar((uint8_t*)(&fob_state_flash), "fob_state");
  59:../../application/source/fobFirmware.c ****   readVar((uint8_t*)(&fob_state_ram), "fob_state");
  60:../../application/source/fobFirmware.c **** 
  61:../../application/source/fobFirmware.c **** // If paired fob, initialize the system information
  62:../../application/source/fobFirmware.c **** #if PAIRED == 1
  63:../../application/source/fobFirmware.c ****   //if (fob_state_flash.paired == FLASH_UNPAIRED)
  64:../../application/source/fobFirmware.c ****   if (fob_state_ram.paired == FLASH_UNPAIRED)
  65:../../application/source/fobFirmware.c ****   {
  66:../../application/source/fobFirmware.c ****     strcpy((char *)(fob_state_ram.pair_info.password), PASSWORD);
  67:../../application/source/fobFirmware.c ****     strcpy((char *)(fob_state_ram.pair_info.pin), PAIR_PIN);
  68:../../application/source/fobFirmware.c ****     strcpy((char *)(fob_state_ram.pair_info.car_id), CAR_ID);
  69:../../application/source/fobFirmware.c ****     strcpy((char *)(fob_state_ram.feature_info.car_id), CAR_ID);
  70:../../application/source/fobFirmware.c ****     fob_state_ram.paired = FLASH_PAIRED;
  71:../../application/source/fobFirmware.c **** 
  72:../../application/source/fobFirmware.c ****     saveFobState(&fob_state_ram);
  73:../../application/source/fobFirmware.c ****   }
  74:../../application/source/fobFirmware.c **** //#else
  75:../../application/source/fobFirmware.c ****   //fob_state_ram.paired = FLASH_UNPAIRED;
  76:../../application/source/fobFirmware.c **** #endif
  77:../../application/source/fobFirmware.c **** 
  78:../../application/source/fobFirmware.c ****   /*
ARM GAS  /tmp/ccEyJdPl.s 			page 3


  79:../../application/source/fobFirmware.c ****   if (fob_state_flash.paired == FLASH_PAIRED)
  80:../../application/source/fobFirmware.c ****   {
  81:../../application/source/fobFirmware.c ****     memcpy(&fob_state_ram, &fob_state_flash, sizeof(FLASH_DATA));
  82:../../application/source/fobFirmware.c ****   }
  83:../../application/source/fobFirmware.c ****   */
  84:../../application/source/fobFirmware.c **** 
  85:../../application/source/fobFirmware.c ****   // This will run on first boot to initialize features
  86:../../application/source/fobFirmware.c ****   if (fob_state_ram.feature_info.num_active == 0xFF)
  87:../../application/source/fobFirmware.c ****   {
  88:../../application/source/fobFirmware.c ****     fob_state_ram.feature_info.num_active = 0;
  89:../../application/source/fobFirmware.c ****     saveFobState(&fob_state_ram);
  90:../../application/source/fobFirmware.c ****   }
  91:../../application/source/fobFirmware.c **** 
  92:../../application/source/fobFirmware.c ****   // Declare a buffer for reading and writing to UART
  93:../../application/source/fobFirmware.c ****   uint8_t uart_buffer[10];
  94:../../application/source/fobFirmware.c ****   uint8_t uart_buffer_index = 0;
  95:../../application/source/fobFirmware.c **** 
  96:../../application/source/fobFirmware.c ****   // Infinite loop for polling UART
  97:../../application/source/fobFirmware.c ****   while (true)
  98:../../application/source/fobFirmware.c ****   {
  99:../../application/source/fobFirmware.c **** 
 100:../../application/source/fobFirmware.c ****     // Non blocking UART polling
 101:../../application/source/fobFirmware.c ****     if (uart_avail(HOST_UART))
 102:../../application/source/fobFirmware.c ****     {
 103:../../application/source/fobFirmware.c ****       uint8_t uart_char = (uint8_t)uart_readb(HOST_UART);
 104:../../application/source/fobFirmware.c **** 
 105:../../application/source/fobFirmware.c ****       if ((uart_char != '\r') && (uart_char != '\n') && (uart_char != '\0') &&
 106:../../application/source/fobFirmware.c ****           (uart_char != 0xD))
 107:../../application/source/fobFirmware.c ****       {
 108:../../application/source/fobFirmware.c ****         uart_buffer[uart_buffer_index] = uart_char;
 109:../../application/source/fobFirmware.c ****         uart_buffer_index++;
 110:../../application/source/fobFirmware.c ****       }
 111:../../application/source/fobFirmware.c ****       else
 112:../../application/source/fobFirmware.c ****       {
 113:../../application/source/fobFirmware.c ****         uart_buffer[uart_buffer_index] = 0x00;
 114:../../application/source/fobFirmware.c ****         uart_buffer_index = 0;
 115:../../application/source/fobFirmware.c **** 
 116:../../application/source/fobFirmware.c ****         if (!(strcmp((char *)uart_buffer, "enable")))
 117:../../application/source/fobFirmware.c ****         {
 118:../../application/source/fobFirmware.c ****           enableFeature(&fob_state_ram);
 119:../../application/source/fobFirmware.c ****         }
 120:../../application/source/fobFirmware.c ****         else if (!(strcmp((char *)uart_buffer, "pair")))
 121:../../application/source/fobFirmware.c ****         {
 122:../../application/source/fobFirmware.c ****           pairFob(&fob_state_ram);
 123:../../application/source/fobFirmware.c ****         }
 124:../../application/source/fobFirmware.c ****       }
 125:../../application/source/fobFirmware.c ****     }
 126:../../application/source/fobFirmware.c **** 
 127:../../application/source/fobFirmware.c ****     if(buttonPressed())
 128:../../application/source/fobFirmware.c ****     {
 129:../../application/source/fobFirmware.c ****       unlockCar(&fob_state_ram);
 130:../../application/source/fobFirmware.c ****       if (receiveAck())
 131:../../application/source/fobFirmware.c ****       {
 132:../../application/source/fobFirmware.c ****         startCar(&fob_state_ram);
 133:../../application/source/fobFirmware.c ****       }
 134:../../application/source/fobFirmware.c ****     }
 135:../../application/source/fobFirmware.c ****   }
ARM GAS  /tmp/ccEyJdPl.s 			page 4


 136:../../application/source/fobFirmware.c **** }
 137:../../application/source/fobFirmware.c **** 
 138:../../application/source/fobFirmware.c **** /**
 139:../../application/source/fobFirmware.c ****  * @brief Function that carries out pairing of the fob
 140:../../application/source/fobFirmware.c ****  *
 141:../../application/source/fobFirmware.c ****  * @param fob_state_ram pointer to the current fob state in ram
 142:../../application/source/fobFirmware.c ****  */
 143:../../application/source/fobFirmware.c **** void pairFob(FLASH_DATA *fob_state_ram)
 144:../../application/source/fobFirmware.c **** {
  37              		.loc 1 144 1 view -0
  38              		.cfi_startproc
  39              		@ args = 0, pretend = 0, frame = 16
  40              		@ frame_needed = 0, uses_anonymous_args = 0
  41              		.loc 1 144 1 is_stmt 0 view .LVU1
  42 0000 70B5     		push	{r4, r5, r6, lr}
  43              	.LCFI0:
  44              		.cfi_def_cfa_offset 16
  45              		.cfi_offset 4, -16
  46              		.cfi_offset 5, -12
  47              		.cfi_offset 6, -8
  48              		.cfi_offset 14, -4
  49 0002 84B0     		sub	sp, sp, #16
  50              	.LCFI1:
  51              		.cfi_def_cfa_offset 32
  52 0004 0446     		mov	r4, r0
 145:../../application/source/fobFirmware.c ****   MESSAGE_PACKET message;
  53              		.loc 1 145 3 is_stmt 1 view .LVU2
 146:../../application/source/fobFirmware.c ****   // Start pairing transaction - fob is already paired
 147:../../application/source/fobFirmware.c ****   if (fob_state_ram->paired == FLASH_PAIRED)
  54              		.loc 1 147 3 view .LVU3
  55              		.loc 1 147 20 is_stmt 0 view .LVU4
  56 0006 0378     		ldrb	r3, [r0]	@ zero_extendqisi2
  57              		.loc 1 147 6 view .LVU5
  58 0008 EBB9     		cbnz	r3, .L2
  59              	.LBB2:
 148:../../application/source/fobFirmware.c ****   {
 149:../../application/source/fobFirmware.c ****     int16_t bytes_read;
  60              		.loc 1 149 5 is_stmt 1 view .LVU6
 150:../../application/source/fobFirmware.c ****     uint8_t uart_buffer[8];
  61              		.loc 1 150 5 view .LVU7
 151:../../application/source/fobFirmware.c ****     uart_write(HOST_UART, (uint8_t *)"P", 1);
  62              		.loc 1 151 5 view .LVU8
  63 000a 0122     		movs	r2, #1
  64 000c 1949     		ldr	r1, .L6
  65 000e 0020     		movs	r0, #0
  66              	.LVL1:
  67              		.loc 1 151 5 is_stmt 0 view .LVU9
  68 0010 FFF7FEFF 		bl	uart_write
  69              	.LVL2:
 152:../../application/source/fobFirmware.c ****     bytes_read = uart_readline(HOST_UART, uart_buffer);
  70              		.loc 1 152 5 is_stmt 1 view .LVU10
  71              		.loc 1 152 18 is_stmt 0 view .LVU11
  72 0014 6946     		mov	r1, sp
  73 0016 0020     		movs	r0, #0
  74 0018 FFF7FEFF 		bl	uart_readline
  75              	.LVL3:
  76              		.loc 1 152 16 view .LVU12
ARM GAS  /tmp/ccEyJdPl.s 			page 5


  77 001c 00B2     		sxth	r0, r0
  78              	.LVL4:
 153:../../application/source/fobFirmware.c **** 
 154:../../application/source/fobFirmware.c ****     if (bytes_read == 6)
  79              		.loc 1 154 5 is_stmt 1 view .LVU13
  80              		.loc 1 154 8 is_stmt 0 view .LVU14
  81 001e 0628     		cmp	r0, #6
  82 0020 26D1     		bne	.L1
 155:../../application/source/fobFirmware.c ****     {
 156:../../application/source/fobFirmware.c ****       // If the pin is correct
 157:../../application/source/fobFirmware.c ****       if (!(strcmp((char *)uart_buffer,
  83              		.loc 1 157 7 is_stmt 1 view .LVU15
  84              		.loc 1 157 13 is_stmt 0 view .LVU16
  85 0022 04F11101 		add	r1, r4, #17
  86 0026 6846     		mov	r0, sp
  87              	.LVL5:
  88              		.loc 1 157 13 view .LVU17
  89 0028 FFF7FEFF 		bl	strcmp
  90              	.LVL6:
  91              		.loc 1 157 10 view .LVU18
  92 002c 00BB     		cbnz	r0, .L1
 158:../../application/source/fobFirmware.c ****                    (char *)fob_state_ram->pair_info.pin)))
 159:../../application/source/fobFirmware.c ****       {
 160:../../application/source/fobFirmware.c ****         // Pair the new key by sending a PAIR_PACKET structure
 161:../../application/source/fobFirmware.c ****         // with required information to unlock door
 162:../../application/source/fobFirmware.c ****         message.message_len = sizeof(PAIR_PACKET);
  93              		.loc 1 162 9 is_stmt 1 view .LVU19
  94              		.loc 1 162 29 is_stmt 0 view .LVU20
  95 002e 1823     		movs	r3, #24
  96 0030 8DF80930 		strb	r3, [sp, #9]
 163:../../application/source/fobFirmware.c ****         message.magic = PAIR_MAGIC;
  97              		.loc 1 163 9 is_stmt 1 view .LVU21
  98              		.loc 1 163 23 is_stmt 0 view .LVU22
  99 0034 5523     		movs	r3, #85
 100 0036 8DF80830 		strb	r3, [sp, #8]
 164:../../application/source/fobFirmware.c ****         message.buffer = (uint8_t *)&fob_state_ram->pair_info;
 101              		.loc 1 164 9 is_stmt 1 view .LVU23
 102              		.loc 1 164 37 is_stmt 0 view .LVU24
 103 003a 0134     		adds	r4, r4, #1
 104              	.LVL7:
 105              		.loc 1 164 24 view .LVU25
 106 003c 0394     		str	r4, [sp, #12]
 165:../../application/source/fobFirmware.c ****         send_board_message(&message);
 107              		.loc 1 165 9 is_stmt 1 view .LVU26
 108 003e 02A8     		add	r0, sp, #8
 109 0040 FFF7FEFF 		bl	send_board_message
 110              	.LVL8:
 111 0044 14E0     		b	.L1
 112              	.LVL9:
 113              	.L2:
 114              		.loc 1 165 9 is_stmt 0 view .LVU27
 115              	.LBE2:
 166:../../application/source/fobFirmware.c ****       }
 167:../../application/source/fobFirmware.c ****     }
 168:../../application/source/fobFirmware.c ****   }
 169:../../application/source/fobFirmware.c **** 
 170:../../application/source/fobFirmware.c ****   // Start pairing transaction - fob is not paired
ARM GAS  /tmp/ccEyJdPl.s 			page 6


 171:../../application/source/fobFirmware.c ****   else
 172:../../application/source/fobFirmware.c ****   {
 173:../../application/source/fobFirmware.c ****     message.buffer = (uint8_t *)&fob_state_ram->pair_info;
 116              		.loc 1 173 5 is_stmt 1 view .LVU28
 117              		.loc 1 173 33 is_stmt 0 view .LVU29
 118 0046 461C     		adds	r6, r0, #1
 119              		.loc 1 173 20 view .LVU30
 120 0048 0396     		str	r6, [sp, #12]
 174:../../application/source/fobFirmware.c ****     receive_board_message_by_type(&message, PAIR_MAGIC);
 121              		.loc 1 174 5 is_stmt 1 view .LVU31
 122 004a 5521     		movs	r1, #85
 123 004c 02A8     		add	r0, sp, #8
 124              	.LVL10:
 125              		.loc 1 174 5 is_stmt 0 view .LVU32
 126 004e FFF7FEFF 		bl	receive_board_message_by_type
 127              	.LVL11:
 175:../../application/source/fobFirmware.c ****     fob_state_ram->paired = FLASH_PAIRED;
 128              		.loc 1 175 5 is_stmt 1 view .LVU33
 129              		.loc 1 175 27 is_stmt 0 view .LVU34
 130 0052 0025     		movs	r5, #0
 131 0054 2046     		mov	r0, r4
 132 0056 00F8195B 		strb	r5, [r0], #25
 176:../../application/source/fobFirmware.c ****     strcpy((char *)fob_state_ram->feature_info.car_id,
 133              		.loc 1 176 5 is_stmt 1 view .LVU35
 134 005a 3146     		mov	r1, r6
 135 005c FFF7FEFF 		bl	strcpy
 136              	.LVL12:
 177:../../application/source/fobFirmware.c ****            (char *)fob_state_ram->pair_info.car_id);
 178:../../application/source/fobFirmware.c **** 
 179:../../application/source/fobFirmware.c ****     uart_write(HOST_UART, (uint8_t *)"Paired", 6);
 137              		.loc 1 179 5 view .LVU36
 138 0060 0622     		movs	r2, #6
 139 0062 0549     		ldr	r1, .L6+4
 140 0064 2846     		mov	r0, r5
 141 0066 FFF7FEFF 		bl	uart_write
 142              	.LVL13:
 180:../../application/source/fobFirmware.c **** 
 181:../../application/source/fobFirmware.c ****     saveFobState(fob_state_ram);
 143              		.loc 1 181 5 view .LVU37
 144 006a 2046     		mov	r0, r4
 145 006c FFF7FEFF 		bl	saveFobState
 146              	.LVL14:
 147              	.L1:
 182:../../application/source/fobFirmware.c ****   }
 183:../../application/source/fobFirmware.c **** }
 148              		.loc 1 183 1 is_stmt 0 view .LVU38
 149 0070 04B0     		add	sp, sp, #16
 150              	.LCFI2:
 151              		.cfi_def_cfa_offset 16
 152              		@ sp needed
 153 0072 70BD     		pop	{r4, r5, r6, pc}
 154              	.L7:
 155              		.align	2
 156              	.L6:
 157 0074 00000000 		.word	.LC0
 158 0078 04000000 		.word	.LC1
 159              		.cfi_endproc
ARM GAS  /tmp/ccEyJdPl.s 			page 7


 160              	.LFE4:
 162              		.section	.rodata.enableFeature.str1.4,"aMS",%progbits,1
 163              		.align	2
 164              	.LC2:
 165 0000 496E7369 		.ascii	"Inside enableFeature\012\000"
 165      64652065 
 165      6E61626C 
 165      65466561 
 165      74757265 
 166 0016 0000     		.align	2
 167              	.LC3:
 168 0018 4552524F 		.ascii	"ERROR: Feature list full\012\000"
 168      523A2046 
 168      65617475 
 168      7265206C 
 168      69737420 
 169 0032 0000     		.align	2
 170              	.LC4:
 171 0034 4552524F 		.ascii	"ERROR: Feature already enabled\012\000"
 171      523A2046 
 171      65617475 
 171      72652061 
 171      6C726561 
 172              		.align	2
 173              	.LC5:
 174 0054 456E6162 		.ascii	"Enabled\000"
 174      6C656400 
 175              		.section	.text.enableFeature,"ax",%progbits
 176              		.align	1
 177              		.global	enableFeature
 178              		.syntax unified
 179              		.thumb
 180              		.thumb_func
 181              		.fpu fpv4-sp-d16
 183              	enableFeature:
 184              	.LVL15:
 185              	.LFB5:
 184:../../application/source/fobFirmware.c **** 
 185:../../application/source/fobFirmware.c **** /**
 186:../../application/source/fobFirmware.c ****  * @brief Function that handles enabling a new feature on the fob
 187:../../application/source/fobFirmware.c ****  *
 188:../../application/source/fobFirmware.c ****  * @param fob_state_ram pointer to the current fob state in ram
 189:../../application/source/fobFirmware.c ****  */
 190:../../application/source/fobFirmware.c **** void enableFeature(FLASH_DATA *fob_state_ram)
 191:../../application/source/fobFirmware.c **** {
 186              		.loc 1 191 1 is_stmt 1 view -0
 187              		.cfi_startproc
 188              		@ args = 0, pretend = 0, frame = 88
 189              		@ frame_needed = 0, uses_anonymous_args = 0
 192:../../application/source/fobFirmware.c ****   if (fob_state_ram->paired == FLASH_PAIRED)
 190              		.loc 1 192 3 view .LVU40
 191              		.loc 1 192 20 is_stmt 0 view .LVU41
 192 0000 0378     		ldrb	r3, [r0]	@ zero_extendqisi2
 193              		.loc 1 192 6 view .LVU42
 194 0002 03B1     		cbz	r3, .L18
 195 0004 7047     		bx	lr
 196              	.L18:
ARM GAS  /tmp/ccEyJdPl.s 			page 8


 191:../../application/source/fobFirmware.c ****   if (fob_state_ram->paired == FLASH_PAIRED)
 197              		.loc 1 191 1 view .LVU43
 198 0006 30B5     		push	{r4, r5, lr}
 199              	.LCFI3:
 200              		.cfi_def_cfa_offset 12
 201              		.cfi_offset 4, -12
 202              		.cfi_offset 5, -8
 203              		.cfi_offset 14, -4
 204 0008 97B0     		sub	sp, sp, #92
 205              	.LCFI4:
 206              		.cfi_def_cfa_offset 104
 207 000a 0446     		mov	r4, r0
 208              	.LBB3:
 193:../../application/source/fobFirmware.c ****   {
 194:../../application/source/fobFirmware.c ****     uint8_t uart_buffer[20];
 209              		.loc 1 194 5 is_stmt 1 view .LVU44
 195:../../application/source/fobFirmware.c ****     uart_readline(HOST_UART, uart_buffer);
 210              		.loc 1 195 5 view .LVU45
 211 000c 01A9     		add	r1, sp, #4
 212 000e 0020     		movs	r0, #0
 213              	.LVL16:
 214              		.loc 1 195 5 is_stmt 0 view .LVU46
 215 0010 FFF7FEFF 		bl	uart_readline
 216              	.LVL17:
 196:../../application/source/fobFirmware.c **** 
 197:../../application/source/fobFirmware.c ****     char msg[64] = {0};
 217              		.loc 1 197 5 is_stmt 1 view .LVU47
 218              		.loc 1 197 10 is_stmt 0 view .LVU48
 219 0014 0021     		movs	r1, #0
 220 0016 0691     		str	r1, [sp, #24]
 221 0018 3C22     		movs	r2, #60
 222 001a 07A8     		add	r0, sp, #28
 223 001c FFF7FEFF 		bl	memset
 224              	.LVL18:
 198:../../application/source/fobFirmware.c ****     strcpy(msg, "Inside enableFeature\n");
 225              		.loc 1 198 5 is_stmt 1 view .LVU49
 226 0020 0DF1180C 		add	ip, sp, #24
 227 0024 2D4D     		ldr	r5, .L20
 228 0026 0FCD     		ldmia	r5!, {r0, r1, r2, r3}
 229 0028 ACE80F00 		stmia	ip!, {r0, r1, r2, r3}
 230 002c 95E80300 		ldm	r5, {r0, r1}
 231 0030 4CF8040B 		str	r0, [ip], #4
 232 0034 ACF80010 		strh	r1, [ip]	@ movhi
 199:../../application/source/fobFirmware.c ****     uart_write(BOARD_UART, (uint8_t*)msg, strlen(msg));
 233              		.loc 1 199 5 view .LVU50
 234              		.loc 1 199 43 is_stmt 0 view .LVU51
 235 0038 06A8     		add	r0, sp, #24
 236 003a FFF7FEFF 		bl	strlen
 237              	.LVL19:
 238 003e 0246     		mov	r2, r0
 239              		.loc 1 199 5 view .LVU52
 240 0040 06A9     		add	r1, sp, #24
 241 0042 0120     		movs	r0, #1
 242 0044 FFF7FEFF 		bl	uart_write
 243              	.LVL20:
 200:../../application/source/fobFirmware.c **** 
 201:../../application/source/fobFirmware.c ****     ENABLE_PACKET *enable_message = (ENABLE_PACKET *)uart_buffer;
ARM GAS  /tmp/ccEyJdPl.s 			page 9


 244              		.loc 1 201 5 is_stmt 1 view .LVU53
 202:../../application/source/fobFirmware.c ****     if (strcmp((char *)fob_state_ram->pair_info.car_id,
 245              		.loc 1 202 5 view .LVU54
 246              		.loc 1 202 9 is_stmt 0 view .LVU55
 247 0048 01A9     		add	r1, sp, #4
 248              	.LVL21:
 249              		.loc 1 202 9 view .LVU56
 250 004a 601C     		adds	r0, r4, #1
 251 004c FFF7FEFF 		bl	strcmp
 252              	.LVL22:
 253              		.loc 1 202 8 view .LVU57
 254 0050 0346     		mov	r3, r0
 255 0052 0028     		cmp	r0, #0
 256 0054 3FD1     		bne	.L8
 203:../../application/source/fobFirmware.c ****                (char *)enable_message->car_id))
 204:../../application/source/fobFirmware.c ****     {
 205:../../application/source/fobFirmware.c ****       return;
 206:../../application/source/fobFirmware.c ****     }
 207:../../application/source/fobFirmware.c **** 
 208:../../application/source/fobFirmware.c ****     // Feature list full
 209:../../application/source/fobFirmware.c ****     if (fob_state_ram->feature_info.num_active == NUM_FEATURES)
 257              		.loc 1 209 5 is_stmt 1 view .LVU58
 258              		.loc 1 209 36 is_stmt 0 view .LVU59
 259 0056 94F82100 		ldrb	r0, [r4, #33]	@ zero_extendqisi2
 260              		.loc 1 209 8 view .LVU60
 261 005a 0328     		cmp	r0, #3
 262 005c 11D1     		bne	.L11
 210:../../application/source/fobFirmware.c ****     {
 211:../../application/source/fobFirmware.c ****       strcpy(msg, "ERROR: Feature list full\n");
 263              		.loc 1 211 7 is_stmt 1 view .LVU61
 264 005e 06AC     		add	r4, sp, #24
 265              	.LVL23:
 266              		.loc 1 211 7 is_stmt 0 view .LVU62
 267 0060 1F4D     		ldr	r5, .L20+4
 268 0062 0FCD     		ldmia	r5!, {r0, r1, r2, r3}
 269 0064 0FC4     		stmia	r4!, {r0, r1, r2, r3}
 270 0066 95E80700 		ldm	r5, {r0, r1, r2}
 271 006a 03C4     		stmia	r4!, {r0, r1}
 272 006c 2280     		strh	r2, [r4]	@ movhi
 212:../../application/source/fobFirmware.c ****       uart_write(BOARD_UART, (uint8_t*)msg, strlen(msg));
 273              		.loc 1 212 7 is_stmt 1 view .LVU63
 274              		.loc 1 212 45 is_stmt 0 view .LVU64
 275 006e 06A8     		add	r0, sp, #24
 276 0070 FFF7FEFF 		bl	strlen
 277              	.LVL24:
 278 0074 0246     		mov	r2, r0
 279              		.loc 1 212 7 view .LVU65
 280 0076 06A9     		add	r1, sp, #24
 281 0078 0120     		movs	r0, #1
 282 007a FFF7FEFF 		bl	uart_write
 283              	.LVL25:
 213:../../application/source/fobFirmware.c ****       return;
 284              		.loc 1 213 7 is_stmt 1 view .LVU66
 285 007e 2AE0     		b	.L8
 286              	.LVL26:
 287              	.L12:
 288              	.LBB4:
ARM GAS  /tmp/ccEyJdPl.s 			page 10


 214:../../application/source/fobFirmware.c ****     }
 215:../../application/source/fobFirmware.c **** 
 216:../../application/source/fobFirmware.c ****     // Search for feature in list
 217:../../application/source/fobFirmware.c ****     for (int i = 0; i < fob_state_ram->feature_info.num_active; i++)
 289              		.loc 1 217 65 discriminator 2 view .LVU67
 290              		.loc 1 217 66 is_stmt 0 discriminator 2 view .LVU68
 291 0080 0133     		adds	r3, r3, #1
 292              	.LVL27:
 293              	.L11:
 294              		.loc 1 217 21 is_stmt 1 discriminator 1 view .LVU69
 295              		.loc 1 217 5 is_stmt 0 discriminator 1 view .LVU70
 296 0082 9842     		cmp	r0, r3
 297 0084 17DD     		ble	.L19
 218:../../application/source/fobFirmware.c ****     {
 219:../../application/source/fobFirmware.c ****       if (fob_state_ram->feature_info.features[i] == enable_message->feature)
 298              		.loc 1 219 7 is_stmt 1 view .LVU71
 299              		.loc 1 219 47 is_stmt 0 view .LVU72
 300 0086 E218     		adds	r2, r4, r3
 301 0088 92F82210 		ldrb	r1, [r2, #34]	@ zero_extendqisi2
 302              		.loc 1 219 68 view .LVU73
 303 008c 9DF80C20 		ldrb	r2, [sp, #12]	@ zero_extendqisi2
 304              		.loc 1 219 10 view .LVU74
 305 0090 9142     		cmp	r1, r2
 306 0092 F5D1     		bne	.L12
 220:../../application/source/fobFirmware.c ****       {
 221:../../application/source/fobFirmware.c ****         strcpy(msg, "ERROR: Feature already enabled\n");
 307              		.loc 1 221 9 is_stmt 1 view .LVU75
 308 0094 06AC     		add	r4, sp, #24
 309              	.LVL28:
 310              		.loc 1 221 9 is_stmt 0 view .LVU76
 311 0096 134D     		ldr	r5, .L20+8
 312 0098 0FCD     		ldmia	r5!, {r0, r1, r2, r3}
 313              	.LVL29:
 314              		.loc 1 221 9 view .LVU77
 315 009a 0FC4     		stmia	r4!, {r0, r1, r2, r3}
 316 009c 95E80F00 		ldm	r5, {r0, r1, r2, r3}
 317 00a0 84E80F00 		stm	r4, {r0, r1, r2, r3}
 222:../../application/source/fobFirmware.c ****         uart_write(BOARD_UART, (uint8_t*)msg, strlen(msg));
 318              		.loc 1 222 9 is_stmt 1 view .LVU78
 319              		.loc 1 222 47 is_stmt 0 view .LVU79
 320 00a4 06A8     		add	r0, sp, #24
 321 00a6 FFF7FEFF 		bl	strlen
 322              	.LVL30:
 323 00aa 0246     		mov	r2, r0
 324              		.loc 1 222 9 view .LVU80
 325 00ac 06A9     		add	r1, sp, #24
 326 00ae 0120     		movs	r0, #1
 327 00b0 FFF7FEFF 		bl	uart_write
 328              	.LVL31:
 223:../../application/source/fobFirmware.c ****         return;
 329              		.loc 1 223 9 is_stmt 1 view .LVU81
 330 00b4 0FE0     		b	.L8
 331              	.LVL32:
 332              	.L19:
 333              		.loc 1 223 9 is_stmt 0 view .LVU82
 334              	.LBE4:
 224:../../application/source/fobFirmware.c ****       }
ARM GAS  /tmp/ccEyJdPl.s 			page 11


 225:../../application/source/fobFirmware.c ****     }
 226:../../application/source/fobFirmware.c **** 
 227:../../application/source/fobFirmware.c ****     fob_state_ram->feature_info
 335              		.loc 1 227 5 is_stmt 1 view .LVU83
 228:../../application/source/fobFirmware.c ****         .features[fob_state_ram->feature_info.num_active] =
 229:../../application/source/fobFirmware.c ****         enable_message->feature;
 336              		.loc 1 229 23 is_stmt 0 view .LVU84
 337 00b6 9DF80C20 		ldrb	r2, [sp, #12]	@ zero_extendqisi2
 228:../../application/source/fobFirmware.c ****         .features[fob_state_ram->feature_info.num_active] =
 338              		.loc 1 228 59 view .LVU85
 339 00ba 2318     		adds	r3, r4, r0
 340              	.LVL33:
 228:../../application/source/fobFirmware.c ****         .features[fob_state_ram->feature_info.num_active] =
 341              		.loc 1 228 59 view .LVU86
 342 00bc 83F82220 		strb	r2, [r3, #34]
 230:../../application/source/fobFirmware.c ****     fob_state_ram->feature_info.num_active++;
 343              		.loc 1 230 5 is_stmt 1 view .LVU87
 344              		.loc 1 230 43 is_stmt 0 view .LVU88
 345 00c0 0130     		adds	r0, r0, #1
 346 00c2 84F82100 		strb	r0, [r4, #33]
 231:../../application/source/fobFirmware.c **** 
 232:../../application/source/fobFirmware.c ****     saveFobState(fob_state_ram);
 347              		.loc 1 232 5 is_stmt 1 view .LVU89
 348 00c6 2046     		mov	r0, r4
 349 00c8 FFF7FEFF 		bl	saveFobState
 350              	.LVL34:
 233:../../application/source/fobFirmware.c ****     uart_write(HOST_UART, (uint8_t *)"Enabled", 7);
 351              		.loc 1 233 5 view .LVU90
 352 00cc 0722     		movs	r2, #7
 353 00ce 0649     		ldr	r1, .L20+12
 354 00d0 0020     		movs	r0, #0
 355 00d2 FFF7FEFF 		bl	uart_write
 356              	.LVL35:
 357              	.L8:
 358              		.loc 1 233 5 is_stmt 0 view .LVU91
 359              	.LBE3:
 234:../../application/source/fobFirmware.c ****   }
 235:../../application/source/fobFirmware.c **** }
 360              		.loc 1 235 1 view .LVU92
 361 00d6 17B0     		add	sp, sp, #92
 362              	.LCFI5:
 363              		.cfi_def_cfa_offset 12
 364              		@ sp needed
 365 00d8 30BD     		pop	{r4, r5, pc}
 366              	.LVL36:
 367              	.L21:
 368              		.loc 1 235 1 view .LVU93
 369 00da 00BF     		.align	2
 370              	.L20:
 371 00dc 00000000 		.word	.LC2
 372 00e0 18000000 		.word	.LC3
 373 00e4 34000000 		.word	.LC4
 374 00e8 54000000 		.word	.LC5
 375              		.cfi_endproc
 376              	.LFE5:
 378              		.section	.text.unlockCar,"ax",%progbits
 379              		.align	1
ARM GAS  /tmp/ccEyJdPl.s 			page 12


 380              		.global	unlockCar
 381              		.syntax unified
 382              		.thumb
 383              		.thumb_func
 384              		.fpu fpv4-sp-d16
 386              	unlockCar:
 387              	.LVL37:
 388              	.LFB6:
 236:../../application/source/fobFirmware.c **** 
 237:../../application/source/fobFirmware.c **** /**
 238:../../application/source/fobFirmware.c ****  * @brief Function that handles the fob unlocking a car
 239:../../application/source/fobFirmware.c ****  *
 240:../../application/source/fobFirmware.c ****  * @param fob_state_ram pointer to the current fob state in ram
 241:../../application/source/fobFirmware.c ****  */
 242:../../application/source/fobFirmware.c **** void unlockCar(FLASH_DATA *fob_state_ram)
 243:../../application/source/fobFirmware.c **** {
 389              		.loc 1 243 1 is_stmt 1 view -0
 390              		.cfi_startproc
 391              		@ args = 0, pretend = 0, frame = 8
 392              		@ frame_needed = 0, uses_anonymous_args = 0
 244:../../application/source/fobFirmware.c ****   if (fob_state_ram->paired == FLASH_PAIRED)
 393              		.loc 1 244 3 view .LVU95
 394              		.loc 1 244 20 is_stmt 0 view .LVU96
 395 0000 0378     		ldrb	r3, [r0]	@ zero_extendqisi2
 396              		.loc 1 244 6 view .LVU97
 397 0002 03B1     		cbz	r3, .L28
 398 0004 7047     		bx	lr
 399              	.L28:
 243:../../application/source/fobFirmware.c ****   if (fob_state_ram->paired == FLASH_PAIRED)
 400              		.loc 1 243 1 view .LVU98
 401 0006 00B5     		push	{lr}
 402              	.LCFI6:
 403              		.cfi_def_cfa_offset 4
 404              		.cfi_offset 14, -4
 405 0008 83B0     		sub	sp, sp, #12
 406              	.LCFI7:
 407              		.cfi_def_cfa_offset 16
 408              	.LBB5:
 245:../../application/source/fobFirmware.c ****   {
 246:../../application/source/fobFirmware.c ****     MESSAGE_PACKET message;
 409              		.loc 1 246 5 is_stmt 1 view .LVU99
 247:../../application/source/fobFirmware.c ****     message.message_len = 6;
 410              		.loc 1 247 5 view .LVU100
 411              		.loc 1 247 25 is_stmt 0 view .LVU101
 412 000a 0623     		movs	r3, #6
 413 000c 8DF80130 		strb	r3, [sp, #1]
 248:../../application/source/fobFirmware.c ****     message.magic = UNLOCK_MAGIC;
 414              		.loc 1 248 5 is_stmt 1 view .LVU102
 415              		.loc 1 248 19 is_stmt 0 view .LVU103
 416 0010 5623     		movs	r3, #86
 417 0012 8DF80030 		strb	r3, [sp]
 249:../../application/source/fobFirmware.c ****     message.buffer = fob_state_ram->pair_info.password;
 418              		.loc 1 249 5 is_stmt 1 view .LVU104
 419              		.loc 1 249 22 is_stmt 0 view .LVU105
 420 0016 0930     		adds	r0, r0, #9
 421              	.LVL38:
 422              		.loc 1 249 20 view .LVU106
ARM GAS  /tmp/ccEyJdPl.s 			page 13


 423 0018 0190     		str	r0, [sp, #4]
 250:../../application/source/fobFirmware.c **** 
 251:../../application/source/fobFirmware.c ****     send_board_message(&message);
 424              		.loc 1 251 5 is_stmt 1 view .LVU107
 425 001a 6846     		mov	r0, sp
 426              	.LVL39:
 427              		.loc 1 251 5 is_stmt 0 view .LVU108
 428 001c FFF7FEFF 		bl	send_board_message
 429              	.LVL40:
 430              		.loc 1 251 5 view .LVU109
 431              	.LBE5:
 252:../../application/source/fobFirmware.c ****   }
 253:../../application/source/fobFirmware.c **** }
 432              		.loc 1 253 1 view .LVU110
 433 0020 03B0     		add	sp, sp, #12
 434              	.LCFI8:
 435              		.cfi_def_cfa_offset 4
 436              		@ sp needed
 437 0022 5DF804FB 		ldr	pc, [sp], #4
 438              		.cfi_endproc
 439              	.LFE6:
 441              		.section	.text.startCar,"ax",%progbits
 442              		.align	1
 443              		.global	startCar
 444              		.syntax unified
 445              		.thumb
 446              		.thumb_func
 447              		.fpu fpv4-sp-d16
 449              	startCar:
 450              	.LVL41:
 451              	.LFB7:
 254:../../application/source/fobFirmware.c **** 
 255:../../application/source/fobFirmware.c **** /**
 256:../../application/source/fobFirmware.c ****  * @brief Function that handles the fob starting a car
 257:../../application/source/fobFirmware.c ****  *
 258:../../application/source/fobFirmware.c ****  * @param fob_state_ram pointer to the current fob state in ram
 259:../../application/source/fobFirmware.c ****  */
 260:../../application/source/fobFirmware.c **** void startCar(FLASH_DATA *fob_state_ram)
 261:../../application/source/fobFirmware.c **** {
 452              		.loc 1 261 1 is_stmt 1 view -0
 453              		.cfi_startproc
 454              		@ args = 0, pretend = 0, frame = 8
 455              		@ frame_needed = 0, uses_anonymous_args = 0
 262:../../application/source/fobFirmware.c ****   if (fob_state_ram->paired == FLASH_PAIRED)
 456              		.loc 1 262 3 view .LVU112
 457              		.loc 1 262 20 is_stmt 0 view .LVU113
 458 0000 0378     		ldrb	r3, [r0]	@ zero_extendqisi2
 459              		.loc 1 262 6 view .LVU114
 460 0002 03B1     		cbz	r3, .L35
 461 0004 7047     		bx	lr
 462              	.L35:
 261:../../application/source/fobFirmware.c ****   if (fob_state_ram->paired == FLASH_PAIRED)
 463              		.loc 1 261 1 view .LVU115
 464 0006 00B5     		push	{lr}
 465              	.LCFI9:
 466              		.cfi_def_cfa_offset 4
 467              		.cfi_offset 14, -4
ARM GAS  /tmp/ccEyJdPl.s 			page 14


 468 0008 83B0     		sub	sp, sp, #12
 469              	.LCFI10:
 470              		.cfi_def_cfa_offset 16
 471              	.LBB6:
 263:../../application/source/fobFirmware.c ****   {
 264:../../application/source/fobFirmware.c ****     MESSAGE_PACKET message;
 472              		.loc 1 264 5 is_stmt 1 view .LVU116
 265:../../application/source/fobFirmware.c ****     message.magic = START_MAGIC;
 473              		.loc 1 265 5 view .LVU117
 474              		.loc 1 265 19 is_stmt 0 view .LVU118
 475 000a 5723     		movs	r3, #87
 476 000c 8DF80030 		strb	r3, [sp]
 266:../../application/source/fobFirmware.c ****     message.message_len = sizeof(FEATURE_DATA);
 477              		.loc 1 266 5 is_stmt 1 view .LVU119
 478              		.loc 1 266 25 is_stmt 0 view .LVU120
 479 0010 0C23     		movs	r3, #12
 480 0012 8DF80130 		strb	r3, [sp, #1]
 267:../../application/source/fobFirmware.c ****     message.buffer = (uint8_t *)&fob_state_ram->feature_info;  
 481              		.loc 1 267 5 is_stmt 1 view .LVU121
 482              		.loc 1 267 33 is_stmt 0 view .LVU122
 483 0016 1930     		adds	r0, r0, #25
 484              	.LVL42:
 485              		.loc 1 267 20 view .LVU123
 486 0018 0190     		str	r0, [sp, #4]
 268:../../application/source/fobFirmware.c **** 
 269:../../application/source/fobFirmware.c ****     send_board_message(&message);
 487              		.loc 1 269 5 is_stmt 1 view .LVU124
 488 001a 6846     		mov	r0, sp
 489              	.LVL43:
 490              		.loc 1 269 5 is_stmt 0 view .LVU125
 491 001c FFF7FEFF 		bl	send_board_message
 492              	.LVL44:
 493              		.loc 1 269 5 view .LVU126
 494              	.LBE6:
 270:../../application/source/fobFirmware.c ****   }
 271:../../application/source/fobFirmware.c **** }
 495              		.loc 1 271 1 view .LVU127
 496 0020 03B0     		add	sp, sp, #12
 497              	.LCFI11:
 498              		.cfi_def_cfa_offset 4
 499              		@ sp needed
 500 0022 5DF804FB 		ldr	pc, [sp], #4
 501              		.cfi_endproc
 502              	.LFE7:
 504              		.section	.text.receiveAck,"ax",%progbits
 505              		.align	1
 506              		.global	receiveAck
 507              		.syntax unified
 508              		.thumb
 509              		.thumb_func
 510              		.fpu fpv4-sp-d16
 512              	receiveAck:
 513              	.LFB8:
 272:../../application/source/fobFirmware.c **** 
 273:../../application/source/fobFirmware.c **** /**
 274:../../application/source/fobFirmware.c ****  * @brief Function that receives an ack and returns whether ack was
 275:../../application/source/fobFirmware.c ****  * success/failure
ARM GAS  /tmp/ccEyJdPl.s 			page 15


 276:../../application/source/fobFirmware.c ****  *
 277:../../application/source/fobFirmware.c ****  * @return uint8_t Ack success/failure
 278:../../application/source/fobFirmware.c ****  */
 279:../../application/source/fobFirmware.c **** uint8_t receiveAck()
 280:../../application/source/fobFirmware.c **** {
 514              		.loc 1 280 1 is_stmt 1 view -0
 515              		.cfi_startproc
 516              		@ args = 0, pretend = 0, frame = 264
 517              		@ frame_needed = 0, uses_anonymous_args = 0
 518 0000 00B5     		push	{lr}
 519              	.LCFI12:
 520              		.cfi_def_cfa_offset 4
 521              		.cfi_offset 14, -4
 522 0002 C3B0     		sub	sp, sp, #268
 523              	.LCFI13:
 524              		.cfi_def_cfa_offset 272
 281:../../application/source/fobFirmware.c ****   MESSAGE_PACKET message;
 525              		.loc 1 281 3 view .LVU129
 282:../../application/source/fobFirmware.c ****   uint8_t buffer[255];
 526              		.loc 1 282 3 view .LVU130
 283:../../application/source/fobFirmware.c ****   message.buffer = buffer;
 527              		.loc 1 283 3 view .LVU131
 528              		.loc 1 283 18 is_stmt 0 view .LVU132
 529 0004 CDF804D1 		str	sp, [sp, #260]
 284:../../application/source/fobFirmware.c ****   receive_board_message_by_type(&message, ACK_MAGIC);
 530              		.loc 1 284 3 is_stmt 1 view .LVU133
 531 0008 5421     		movs	r1, #84
 532 000a 40A8     		add	r0, sp, #256
 533 000c FFF7FEFF 		bl	receive_board_message_by_type
 534              	.LVL45:
 285:../../application/source/fobFirmware.c **** 
 286:../../application/source/fobFirmware.c ****   return message.buffer[0];
 535              		.loc 1 286 3 view .LVU134
 287:../../application/source/fobFirmware.c **** }...
 536              		.loc 1 287 1 is_stmt 0 view .LVU135
 537 0010 419B     		ldr	r3, [sp, #260]
 538 0012 1878     		ldrb	r0, [r3]	@ zero_extendqisi2
 539 0014 43B0     		add	sp, sp, #268
 540              	.LCFI14:
 541              		.cfi_def_cfa_offset 4
 542              		@ sp needed
 543 0016 5DF804FB 		ldr	pc, [sp], #4
 544              		.cfi_endproc
 545              	.LFE8:
 547              		.section	.rodata.main.str1.4,"aMS",%progbits,1
 548              		.align	2
 549              	.LC6:
 550 0000 666F625F 		.ascii	"fob_state\000"
 550      73746174 
 550      6500
 551 000a 0000     		.align	2
 552              	.LC7:
 553 000c 656E6162 		.ascii	"enable\000"
 553      6C6500
 554 0013 00       		.align	2
 555              	.LC8:
 556 0014 70616972 		.ascii	"pair\000"
ARM GAS  /tmp/ccEyJdPl.s 			page 16


 556      00
 557              		.section	.text.main,"ax",%progbits
 558              		.align	1
 559              		.global	main
 560              		.syntax unified
 561              		.thumb
 562              		.thumb_func
 563              		.fpu fpv4-sp-d16
 565              	main:
 566              	.LVL46:
 567              	.LFB3:
  53:../../application/source/fobFirmware.c **** {
 568              		.loc 1 53 1 is_stmt 1 view -0
 569              		.cfi_startproc
 570              		@ args = 0, pretend = 0, frame = 56
 571              		@ frame_needed = 0, uses_anonymous_args = 0
  53:../../application/source/fobFirmware.c **** {
 572              		.loc 1 53 1 is_stmt 0 view .LVU137
 573 0000 10B5     		push	{r4, lr}
 574              	.LCFI15:
 575              		.cfi_def_cfa_offset 8
 576              		.cfi_offset 4, -8
 577              		.cfi_offset 14, -4
 578 0002 8EB0     		sub	sp, sp, #56
 579              	.LCFI16:
 580              		.cfi_def_cfa_offset 64
  54:../../application/source/fobFirmware.c ****   initHardware_fob(argc, argv);
 581              		.loc 1 54 3 is_stmt 1 view .LVU138
 582 0004 FFF7FEFF 		bl	initHardware_fob
 583              	.LVL47:
  56:../../application/source/fobFirmware.c ****   FLASH_DATA fob_state_ram;
 584              		.loc 1 56 3 view .LVU139
  59:../../application/source/fobFirmware.c ****   readVar((uint8_t*)(&fob_state_ram), "fob_state");
 585              		.loc 1 59 3 view .LVU140
 586 0008 2849     		ldr	r1, .L51
 587 000a 04A8     		add	r0, sp, #16
 588 000c FFF7FEFF 		bl	readVar
 589              	.LVL48:
  86:../../application/source/fobFirmware.c ****   if (fob_state_ram.feature_info.num_active == 0xFF)
 590              		.loc 1 86 3 view .LVU141
  86:../../application/source/fobFirmware.c ****   if (fob_state_ram.feature_info.num_active == 0xFF)
 591              		.loc 1 86 33 is_stmt 0 view .LVU142
 592 0010 9DF83130 		ldrb	r3, [sp, #49]	@ zero_extendqisi2
  86:../../application/source/fobFirmware.c ****   if (fob_state_ram.feature_info.num_active == 0xFF)
 593              		.loc 1 86 6 view .LVU143
 594 0014 FF2B     		cmp	r3, #255
 595 0016 13D0     		beq	.L47
 596              	.L39:
  53:../../application/source/fobFirmware.c **** {
 597              		.loc 1 53 1 view .LVU144
 598 0018 0024     		movs	r4, #0
 599              	.L40:
 600              	.LVL49:
  97:../../application/source/fobFirmware.c ****   while (true)
 601              		.loc 1 97 3 is_stmt 1 view .LVU145
 101:../../application/source/fobFirmware.c ****     if (uart_avail(HOST_UART))
 602              		.loc 1 101 5 view .LVU146
ARM GAS  /tmp/ccEyJdPl.s 			page 17


 101:../../application/source/fobFirmware.c ****     if (uart_avail(HOST_UART))
 603              		.loc 1 101 9 is_stmt 0 view .LVU147
 604 001a 0020     		movs	r0, #0
 605 001c FFF7FEFF 		bl	uart_avail
 606              	.LVL50:
 101:../../application/source/fobFirmware.c ****     if (uart_avail(HOST_UART))
 607              		.loc 1 101 8 view .LVU148
 608 0020 A8B9     		cbnz	r0, .L48
 609              	.LVL51:
 610              	.L41:
 127:../../application/source/fobFirmware.c ****     if(buttonPressed())
 611              		.loc 1 127 5 is_stmt 1 view .LVU149
 127:../../application/source/fobFirmware.c ****     if(buttonPressed())
 612              		.loc 1 127 8 is_stmt 0 view .LVU150
 613 0022 FFF7FEFF 		bl	buttonPressed
 614              	.LVL52:
 127:../../application/source/fobFirmware.c ****     if(buttonPressed())
 615              		.loc 1 127 7 view .LVU151
 616 0026 0028     		cmp	r0, #0
 617 0028 F7D0     		beq	.L40
 129:../../application/source/fobFirmware.c ****       unlockCar(&fob_state_ram);
 618              		.loc 1 129 7 is_stmt 1 view .LVU152
 619 002a 04A8     		add	r0, sp, #16
 620 002c FFF7FEFF 		bl	unlockCar
 621              	.LVL53:
 130:../../application/source/fobFirmware.c ****       if (receiveAck())
 622              		.loc 1 130 7 view .LVU153
 130:../../application/source/fobFirmware.c ****       if (receiveAck())
 623              		.loc 1 130 11 is_stmt 0 view .LVU154
 624 0030 FFF7FEFF 		bl	receiveAck
 625              	.LVL54:
 130:../../application/source/fobFirmware.c ****       if (receiveAck())
 626              		.loc 1 130 10 view .LVU155
 627 0034 0028     		cmp	r0, #0
 628 0036 F0D0     		beq	.L40
 132:../../application/source/fobFirmware.c ****         startCar(&fob_state_ram);
 629              		.loc 1 132 9 is_stmt 1 view .LVU156
 630 0038 04A8     		add	r0, sp, #16
 631 003a FFF7FEFF 		bl	startCar
 632              	.LVL55:
 633 003e ECE7     		b	.L40
 634              	.LVL56:
 635              	.L47:
  88:../../application/source/fobFirmware.c ****     fob_state_ram.feature_info.num_active = 0;
 636              		.loc 1 88 5 view .LVU157
  88:../../application/source/fobFirmware.c ****     fob_state_ram.feature_info.num_active = 0;
 637              		.loc 1 88 43 is_stmt 0 view .LVU158
 638 0040 0023     		movs	r3, #0
 639 0042 8DF83130 		strb	r3, [sp, #49]
  89:../../application/source/fobFirmware.c ****     saveFobState(&fob_state_ram);
 640              		.loc 1 89 5 is_stmt 1 view .LVU159
 641 0046 04A8     		add	r0, sp, #16
 642 0048 FFF7FEFF 		bl	saveFobState
 643              	.LVL57:
 644 004c E4E7     		b	.L39
 645              	.LVL58:
 646              	.L48:
ARM GAS  /tmp/ccEyJdPl.s 			page 18


 647              	.LBB7:
 103:../../application/source/fobFirmware.c ****       uint8_t uart_char = (uint8_t)uart_readb(HOST_UART);
 648              		.loc 1 103 7 view .LVU160
 103:../../application/source/fobFirmware.c ****       uint8_t uart_char = (uint8_t)uart_readb(HOST_UART);
 649              		.loc 1 103 36 is_stmt 0 view .LVU161
 650 004e 0020     		movs	r0, #0
 651 0050 FFF7FEFF 		bl	uart_readb
 652              	.LVL59:
 103:../../application/source/fobFirmware.c ****       uint8_t uart_char = (uint8_t)uart_readb(HOST_UART);
 653              		.loc 1 103 15 view .LVU162
 654 0054 C0B2     		uxtb	r0, r0
 655              	.LVL60:
 105:../../application/source/fobFirmware.c ****       if ((uart_char != '\r') && (uart_char != '\n') && (uart_char != '\0') &&
 656              		.loc 1 105 7 is_stmt 1 view .LVU163
 105:../../application/source/fobFirmware.c ****       if ((uart_char != '\r') && (uart_char != '\n') && (uart_char != '\0') &&
 657              		.loc 1 105 10 is_stmt 0 view .LVU164
 658 0056 0D28     		cmp	r0, #13
 659 0058 0AD0     		beq	.L42
 105:../../application/source/fobFirmware.c ****       if ((uart_char != '\r') && (uart_char != '\n') && (uart_char != '\0') &&
 660              		.loc 1 105 31 discriminator 1 view .LVU165
 661 005a 0A28     		cmp	r0, #10
 662 005c 08D0     		beq	.L42
 105:../../application/source/fobFirmware.c ****       if ((uart_char != '\r') && (uart_char != '\n') && (uart_char != '\0') &&
 663              		.loc 1 105 54 discriminator 2 view .LVU166
 664 005e 38B1     		cbz	r0, .L42
 108:../../application/source/fobFirmware.c ****         uart_buffer[uart_buffer_index] = uart_char;
 665              		.loc 1 108 9 is_stmt 1 view .LVU167
 108:../../application/source/fobFirmware.c ****         uart_buffer[uart_buffer_index] = uart_char;
 666              		.loc 1 108 40 is_stmt 0 view .LVU168
 667 0060 04F13803 		add	r3, r4, #56
 668 0064 6B44     		add	r3, sp, r3
 669 0066 03F8340C 		strb	r0, [r3, #-52]
 109:../../application/source/fobFirmware.c ****         uart_buffer_index++;
 670              		.loc 1 109 9 is_stmt 1 view .LVU169
 109:../../application/source/fobFirmware.c ****         uart_buffer_index++;
 671              		.loc 1 109 26 is_stmt 0 view .LVU170
 672 006a 0134     		adds	r4, r4, #1
 673              	.LVL61:
 109:../../application/source/fobFirmware.c ****         uart_buffer_index++;
 674              		.loc 1 109 26 view .LVU171
 675 006c E4B2     		uxtb	r4, r4
 676              	.LVL62:
 109:../../application/source/fobFirmware.c ****         uart_buffer_index++;
 677              		.loc 1 109 26 view .LVU172
 678 006e D8E7     		b	.L41
 679              	.L42:
 113:../../application/source/fobFirmware.c ****         uart_buffer[uart_buffer_index] = 0x00;
 680              		.loc 1 113 9 is_stmt 1 view .LVU173
 113:../../application/source/fobFirmware.c ****         uart_buffer[uart_buffer_index] = 0x00;
 681              		.loc 1 113 40 is_stmt 0 view .LVU174
 682 0070 04F13803 		add	r3, r4, #56
 683 0074 0DEB0304 		add	r4, sp, r3
 684              	.LVL63:
 113:../../application/source/fobFirmware.c ****         uart_buffer[uart_buffer_index] = 0x00;
 685              		.loc 1 113 40 view .LVU175
 686 0078 0023     		movs	r3, #0
 687 007a 04F8343C 		strb	r3, [r4, #-52]
ARM GAS  /tmp/ccEyJdPl.s 			page 19


 114:../../application/source/fobFirmware.c ****         uart_buffer_index = 0;
 688              		.loc 1 114 9 is_stmt 1 view .LVU176
 689              	.LVL64:
 116:../../application/source/fobFirmware.c ****         if (!(strcmp((char *)uart_buffer, "enable")))
 690              		.loc 1 116 9 view .LVU177
 116:../../application/source/fobFirmware.c ****         if (!(strcmp((char *)uart_buffer, "enable")))
 691              		.loc 1 116 15 is_stmt 0 view .LVU178
 692 007e 0C49     		ldr	r1, .L51+4
 693 0080 01A8     		add	r0, sp, #4
 694              	.LVL65:
 116:../../application/source/fobFirmware.c ****         if (!(strcmp((char *)uart_buffer, "enable")))
 695              		.loc 1 116 15 view .LVU179
 696 0082 FFF7FEFF 		bl	strcmp
 697              	.LVL66:
 116:../../application/source/fobFirmware.c ****         if (!(strcmp((char *)uart_buffer, "enable")))
 698              		.loc 1 116 12 view .LVU180
 699 0086 30B1     		cbz	r0, .L49
 120:../../application/source/fobFirmware.c ****         else if (!(strcmp((char *)uart_buffer, "pair")))
 700              		.loc 1 120 14 is_stmt 1 view .LVU181
 120:../../application/source/fobFirmware.c ****         else if (!(strcmp((char *)uart_buffer, "pair")))
 701              		.loc 1 120 20 is_stmt 0 view .LVU182
 702 0088 0A49     		ldr	r1, .L51+8
 703 008a 01A8     		add	r0, sp, #4
 704 008c FFF7FEFF 		bl	strcmp
 705              	.LVL67:
 120:../../application/source/fobFirmware.c ****         else if (!(strcmp((char *)uart_buffer, "pair")))
 706              		.loc 1 120 17 view .LVU183
 707 0090 30B1     		cbz	r0, .L50
 114:../../application/source/fobFirmware.c ****         uart_buffer_index = 0;
 708              		.loc 1 114 27 view .LVU184
 709 0092 0024     		movs	r4, #0
 710 0094 C5E7     		b	.L41
 711              	.L49:
 118:../../application/source/fobFirmware.c ****           enableFeature(&fob_state_ram);
 712              		.loc 1 118 11 is_stmt 1 view .LVU185
 713 0096 04A8     		add	r0, sp, #16
 714 0098 FFF7FEFF 		bl	enableFeature
 715              	.LVL68:
 114:../../application/source/fobFirmware.c ****         uart_buffer_index = 0;
 716              		.loc 1 114 27 is_stmt 0 view .LVU186
 717 009c 0024     		movs	r4, #0
 718 009e C0E7     		b	.L41
 719              	.L50:
 122:../../application/source/fobFirmware.c ****           pairFob(&fob_state_ram);
 720              		.loc 1 122 11 is_stmt 1 view .LVU187
 721 00a0 04A8     		add	r0, sp, #16
 722 00a2 FFF7FEFF 		bl	pairFob
 723              	.LVL69:
 114:../../application/source/fobFirmware.c ****         uart_buffer_index = 0;
 724              		.loc 1 114 27 is_stmt 0 view .LVU188
 725 00a6 0024     		movs	r4, #0
 726 00a8 BBE7     		b	.L41
 727              	.L52:
 728 00aa 00BF     		.align	2
 729              	.L51:
 730 00ac 00000000 		.word	.LC6
 731 00b0 0C000000 		.word	.LC7
ARM GAS  /tmp/ccEyJdPl.s 			page 20


 732 00b4 14000000 		.word	.LC8
 733              	.LBE7:
 734              		.cfi_endproc
 735              	.LFE3:
 737              		.text
 738              	.Letext0:
 739              		.file 2 "/usr/lib/gcc/arm-none-eabi/10.3.1/include/stdint.h"
 740              		.file 3 "../../application/include/messages.h"
 741              		.file 4 "../../application/include/dataFormats.h"
 742              		.file 5 "/usr/include/newlib/string.h"
 743              		.file 6 "../include/uart.h"
 744              		.file 7 "../include/platform.h"
 745              		.file 8 "<built-in>"
ARM GAS  /tmp/ccEyJdPl.s 			page 21

