ARM GAS  /tmp/cc6OSr9k.s 			page 1


   1              		.cpu cortex-m4
   2              		.eabi_attribute 27, 1
   3              		.eabi_attribute 28, 1
   4              		.eabi_attribute 20, 1
   5              		.eabi_attribute 21, 1
   6              		.eabi_attribute 23, 3
   7              		.eabi_attribute 24, 1
   8              		.eabi_attribute 25, 1
   9              		.eabi_attribute 26, 1
  10              		.eabi_attribute 30, 1
  11              		.eabi_attribute 34, 1
  12              		.eabi_attribute 18, 4
  13              		.file	"carFirmware.c"
  14              		.section	.rodata.str1.4,"aMS",%progbits,1
  15              		.align	2
  16              	.LC1:
  17 0000 66656174 		.ascii	"feature1\000"
  17      75726531 
  17      00
  18 0009 000000   		.align	2
  19              	.LC2:
  20 000c 66656174 		.ascii	"feature2\000"
  20      75726532 
  20      00
  21 0015 000000   		.align	2
  22              	.LC3:
  23 0018 66656174 		.ascii	"feature3\000"
  23      75726533 
  23      00
  24              		.text
  25              	.Ltext0:
  26              		.cfi_sections	.debug_frame
  27              		.section	.text.startCar,"ax",%progbits
  28              		.align	1
  29              		.global	startCar
  30              		.arch armv7e-m
  31              		.syntax unified
  32              		.thumb
  33              		.thumb_func
  34              		.fpu fpv4-sp-d16
  36              	startCar:
  37              	.LFB2:
  38              		.file 1 "../../application/car/src/carFirmware.c"
   1:../../application/car/src/carFirmware.c **** /**
   2:../../application/car/src/carFirmware.c ****  * @file main.c
   3:../../application/car/src/carFirmware.c ****  * @author Frederich Stine
   4:../../application/car/src/carFirmware.c ****  * @brief eCTF Car Example Design Implementation
   5:../../application/car/src/carFirmware.c ****  * @date 2023
   6:../../application/car/src/carFirmware.c ****  *
   7:../../application/car/src/carFirmware.c ****  * This source file is part of an example system for MITRE's 2023 Embedded
   8:../../application/car/src/carFirmware.c ****  * System CTF (eCTF). This code is being provided only for educational purposes
   9:../../application/car/src/carFirmware.c ****  * for the 2023 MITRE eCTF competition, and may not meet MITRE standards for
  10:../../application/car/src/carFirmware.c ****  * quality. Use this code at your own risk!
  11:../../application/car/src/carFirmware.c ****  *
  12:../../application/car/src/carFirmware.c ****  * @copyright Copyright (c) 2023 The MITRE Corporation
  13:../../application/car/src/carFirmware.c ****  */
  14:../../application/car/src/carFirmware.c **** 
ARM GAS  /tmp/cc6OSr9k.s 			page 2


  15:../../application/car/src/carFirmware.c **** #include <stdbool.h>
  16:../../application/car/src/carFirmware.c **** #include <stdint.h>
  17:../../application/car/src/carFirmware.c **** #include <string.h>
  18:../../application/car/src/carFirmware.c **** 
  19:../../application/car/src/carFirmware.c **** #include "secrets.h"
  20:../../application/car/src/carFirmware.c **** #include "board_link.h"
  21:../../application/car/src/carFirmware.c **** #include "feature_list.h"
  22:../../application/car/src/carFirmware.c **** #include "uart.h"
  23:../../application/car/src/carFirmware.c **** #include "platform.h"
  24:../../application/car/src/carFirmware.c **** 
  25:../../application/car/src/carFirmware.c **** /*** Macro Definitions ***/
  26:../../application/car/src/carFirmware.c **** // Definitions for unlock message location in EEPROM
  27:../../application/car/src/carFirmware.c **** #define UNLOCK_EEPROM_SIZE 64
  28:../../application/car/src/carFirmware.c **** 
  29:../../application/car/src/carFirmware.c **** /*** Function definitions ***/
  30:../../application/car/src/carFirmware.c **** // Core functions - unlockCar and startCar
  31:../../application/car/src/carFirmware.c **** void unlockCar(void);
  32:../../application/car/src/carFirmware.c **** void startCar(void);
  33:../../application/car/src/carFirmware.c **** 
  34:../../application/car/src/carFirmware.c **** // Helper functions - sending ack messages
  35:../../application/car/src/carFirmware.c **** void sendAckSuccess(void);
  36:../../application/car/src/carFirmware.c **** void sendAckFailure(void);
  37:../../application/car/src/carFirmware.c **** 
  38:../../application/car/src/carFirmware.c **** // Declare password
  39:../../application/car/src/carFirmware.c **** const uint8_t pass[] = PASSWORD;
  40:../../application/car/src/carFirmware.c **** const uint8_t car_id[] = CAR_ID;
  41:../../application/car/src/carFirmware.c **** 
  42:../../application/car/src/carFirmware.c **** /**
  43:../../application/car/src/carFirmware.c ****  * @brief Main function for the car example
  44:../../application/car/src/carFirmware.c ****  *
  45:../../application/car/src/carFirmware.c ****  * Initializes the RF module and waits for a successful unlock attempt.
  46:../../application/car/src/carFirmware.c ****  * If successful prints out the unlock flag.
  47:../../application/car/src/carFirmware.c ****  */
  48:../../application/car/src/carFirmware.c **** int main(int argc, char ** argv) {
  49:../../application/car/src/carFirmware.c ****   initHardware_car(argc, argv);
  50:../../application/car/src/carFirmware.c **** 
  51:../../application/car/src/carFirmware.c ****   while (true) {
  52:../../application/car/src/carFirmware.c **** 
  53:../../application/car/src/carFirmware.c ****     unlockCar();
  54:../../application/car/src/carFirmware.c ****   }
  55:../../application/car/src/carFirmware.c **** }
  56:../../application/car/src/carFirmware.c **** 
  57:../../application/car/src/carFirmware.c **** /**
  58:../../application/car/src/carFirmware.c ****  * @brief Function that handles unlocking of car
  59:../../application/car/src/carFirmware.c ****  */
  60:../../application/car/src/carFirmware.c **** void unlockCar(void) {
  61:../../application/car/src/carFirmware.c ****   // Create a message struct variable for receiving data
  62:../../application/car/src/carFirmware.c ****   MESSAGE_PACKET message;
  63:../../application/car/src/carFirmware.c ****   uint8_t buffer[256];
  64:../../application/car/src/carFirmware.c ****   message.buffer = buffer;
  65:../../application/car/src/carFirmware.c **** 
  66:../../application/car/src/carFirmware.c ****   // Receive packet with some error checking
  67:../../application/car/src/carFirmware.c ****   receive_board_message_by_type(&message, UNLOCK_MAGIC);
  68:../../application/car/src/carFirmware.c **** 
  69:../../application/car/src/carFirmware.c ****   // Pad payload to a string
  70:../../application/car/src/carFirmware.c ****   message.buffer[message.message_len] = 0;
  71:../../application/car/src/carFirmware.c **** 
ARM GAS  /tmp/cc6OSr9k.s 			page 3


  72:../../application/car/src/carFirmware.c ****   // If the data transfer is the password, unlock
  73:../../application/car/src/carFirmware.c ****   if (!strcmp((char *)(message.buffer), (char *)pass)) {
  74:../../application/car/src/carFirmware.c ****     uint8_t eeprom_message[64];
  75:../../application/car/src/carFirmware.c ****     // Read last 64B of EEPROM
  76:../../application/car/src/carFirmware.c ****     readVar(eeprom_message, "unlock", UNLOCK_EEPROM_SIZE);
  77:../../application/car/src/carFirmware.c **** 
  78:../../application/car/src/carFirmware.c ****     // Write out full flag if applicable
  79:../../application/car/src/carFirmware.c ****     uart_write(HOST_UART, eeprom_message, UNLOCK_EEPROM_SIZE);
  80:../../application/car/src/carFirmware.c **** 
  81:../../application/car/src/carFirmware.c ****     sendAckSuccess();
  82:../../application/car/src/carFirmware.c **** 
  83:../../application/car/src/carFirmware.c ****     startCar();
  84:../../application/car/src/carFirmware.c ****   } else {
  85:../../application/car/src/carFirmware.c ****     sendAckFailure();
  86:../../application/car/src/carFirmware.c ****   }
  87:../../application/car/src/carFirmware.c **** }
  88:../../application/car/src/carFirmware.c **** 
  89:../../application/car/src/carFirmware.c **** /**
  90:../../application/car/src/carFirmware.c ****  * @brief Function that handles starting of car - feature list
  91:../../application/car/src/carFirmware.c ****  */
  92:../../application/car/src/carFirmware.c **** void startCar(void) {
  39              		.loc 1 92 21 view -0
  40              		.cfi_startproc
  41              		@ args = 0, pretend = 0, frame = 344
  42              		@ frame_needed = 0, uses_anonymous_args = 0
  43 0000 10B5     		push	{r4, lr}
  44              	.LCFI0:
  45              		.cfi_def_cfa_offset 8
  46              		.cfi_offset 4, -8
  47              		.cfi_offset 14, -4
  48 0002 D6B0     		sub	sp, sp, #344
  49              	.LCFI1:
  50              		.cfi_def_cfa_offset 352
  93:../../application/car/src/carFirmware.c ****   // Create a message struct variable for receiving data
  94:../../application/car/src/carFirmware.c ****   MESSAGE_PACKET message;
  51              		.loc 1 94 3 view .LVU1
  95:../../application/car/src/carFirmware.c ****   uint8_t buffer[256];
  52              		.loc 1 95 3 view .LVU2
  96:../../application/car/src/carFirmware.c ****   message.buffer = buffer;
  53              		.loc 1 96 3 view .LVU3
  54              		.loc 1 96 18 is_stmt 0 view .LVU4
  55 0004 14AC     		add	r4, sp, #80
  56 0006 5594     		str	r4, [sp, #340]
  97:../../application/car/src/carFirmware.c **** 
  98:../../application/car/src/carFirmware.c ****   // Receive start message
  99:../../application/car/src/carFirmware.c ****   receive_board_message_by_type(&message, START_MAGIC);
  57              		.loc 1 99 3 is_stmt 1 view .LVU5
  58 0008 5721     		movs	r1, #87
  59 000a 54A8     		add	r0, sp, #336
  60 000c FFF7FEFF 		bl	receive_board_message_by_type
  61              	.LVL0:
 100:../../application/car/src/carFirmware.c **** 
 101:../../application/car/src/carFirmware.c ****   FEATURE_DATA *feature_info = (FEATURE_DATA *)buffer;
  62              		.loc 1 101 3 view .LVU6
 102:../../application/car/src/carFirmware.c **** 
 103:../../application/car/src/carFirmware.c ****   // Verify correct car id
 104:../../application/car/src/carFirmware.c ****   if (strcmp((char *)car_id, (char *)feature_info->car_id)) {
ARM GAS  /tmp/cc6OSr9k.s 			page 4


  63              		.loc 1 104 3 view .LVU7
  64              		.loc 1 104 7 is_stmt 0 view .LVU8
  65 0010 2146     		mov	r1, r4
  66 0012 1148     		ldr	r0, .L6
  67 0014 FFF7FEFF 		bl	strcmp
  68              	.LVL1:
  69              		.loc 1 104 6 view .LVU9
  70 0018 0446     		mov	r4, r0
  71              	.LVL2:
  72              		.loc 1 104 6 view .LVU10
  73 001a A0B1     		cbz	r0, .L2
  74 001c 1AE0     		b	.L1
  75              	.LVL3:
  76              	.L4:
  77              	.LBB2:
  78              	.LBB3:
 105:../../application/car/src/carFirmware.c ****     return;
 106:../../application/car/src/carFirmware.c ****   }
 107:../../application/car/src/carFirmware.c **** 
 108:../../application/car/src/carFirmware.c ****   // Print out features for all active features
 109:../../application/car/src/carFirmware.c ****   for (int i = 0; i < feature_info->num_active; i++) {
 110:../../application/car/src/carFirmware.c ****     uint8_t eeprom_message[64];
  79              		.loc 1 110 5 is_stmt 1 discriminator 3 view .LVU11
 111:../../application/car/src/carFirmware.c ****     char* featureNumToStr[] = { "\0", "feature1", "feature2", "feature3" };
  80              		.loc 1 111 5 discriminator 3 view .LVU12
  81              		.loc 1 111 11 is_stmt 0 discriminator 3 view .LVU13
  82 001e EC46     		mov	ip, sp
  83 0020 0E4B     		ldr	r3, .L6+4
  84 0022 0FCB     		ldm	r3, {r0, r1, r2, r3}
  85 0024 8CE80F00 		stm	ip, {r0, r1, r2, r3}
 112:../../application/car/src/carFirmware.c **** 
 113:../../application/car/src/carFirmware.c ****     uint8_t featureNum = feature_info->features[i];
  86              		.loc 1 113 5 is_stmt 1 discriminator 3 view .LVU14
  87              		.loc 1 113 13 is_stmt 0 discriminator 3 view .LVU15
  88 0028 14AB     		add	r3, sp, #80
  89              	.LVL4:
  90              		.loc 1 113 13 discriminator 3 view .LVU16
  91 002a 2344     		add	r3, r3, r4
  92              	.LVL5:
  93              		.loc 1 113 13 discriminator 3 view .LVU17
  94 002c 5B7A     		ldrb	r3, [r3, #9]	@ zero_extendqisi2
  95              	.LVL6:
 114:../../application/car/src/carFirmware.c ****     readVar(eeprom_message, featureNumToStr[featureNum], FEATURE_SIZE);
  96              		.loc 1 114 5 is_stmt 1 discriminator 3 view .LVU18
  97 002e 4022     		movs	r2, #64
  98 0030 5CF82310 		ldr	r1, [ip, r3, lsl #2]
  99 0034 04A8     		add	r0, sp, #16
 100 0036 FFF7FEFF 		bl	readVar
 101              	.LVL7:
 115:../../application/car/src/carFirmware.c **** 
 116:../../application/car/src/carFirmware.c ****     uart_write(HOST_UART, eeprom_message, FEATURE_SIZE);
 102              		.loc 1 116 5 discriminator 3 view .LVU19
 103 003a 4022     		movs	r2, #64
 104 003c 04A9     		add	r1, sp, #16
 105 003e 0020     		movs	r0, #0
 106 0040 FFF7FEFF 		bl	uart_write
 107              	.LVL8:
ARM GAS  /tmp/cc6OSr9k.s 			page 5


 108              	.LBE3:
 109:../../application/car/src/carFirmware.c ****     uint8_t eeprom_message[64];
 109              		.loc 1 109 49 discriminator 3 view .LVU20
 109:../../application/car/src/carFirmware.c ****     uint8_t eeprom_message[64];
 110              		.loc 1 109 50 is_stmt 0 discriminator 3 view .LVU21
 111 0044 0134     		adds	r4, r4, #1
 112              	.LVL9:
 113              	.L2:
 109:../../application/car/src/carFirmware.c ****     uint8_t eeprom_message[64];
 114              		.loc 1 109 19 is_stmt 1 discriminator 1 view .LVU22
 109:../../application/car/src/carFirmware.c ****     uint8_t eeprom_message[64];
 115              		.loc 1 109 35 is_stmt 0 discriminator 1 view .LVU23
 116 0046 9DF85830 		ldrb	r3, [sp, #88]	@ zero_extendqisi2
 109:../../application/car/src/carFirmware.c ****     uint8_t eeprom_message[64];
 117              		.loc 1 109 3 discriminator 1 view .LVU24
 118 004a A342     		cmp	r3, r4
 119 004c E7DC     		bgt	.L4
 120              	.LBE2:
 117:../../application/car/src/carFirmware.c ****   }
 118:../../application/car/src/carFirmware.c **** 
 119:../../application/car/src/carFirmware.c ****   // Change LED color: green
 120:../../application/car/src/carFirmware.c ****   setLED(GREEN);
 121              		.loc 1 120 3 is_stmt 1 view .LVU25
 122 004e 0220     		movs	r0, #2
 123 0050 FFF7FEFF 		bl	setLED
 124              	.LVL10:
 125              	.L1:
 121:../../application/car/src/carFirmware.c **** }
 126              		.loc 1 121 1 is_stmt 0 view .LVU26
 127 0054 56B0     		add	sp, sp, #344
 128              	.LCFI2:
 129              		.cfi_def_cfa_offset 8
 130              		@ sp needed
 131 0056 10BD     		pop	{r4, pc}
 132              	.LVL11:
 133              	.L7:
 134              		.loc 1 121 1 view .LVU27
 135              		.align	2
 136              	.L6:
 137 0058 00000000 		.word	.LANCHOR0
 138 005c 04000000 		.word	.LANCHOR1+4
 139              		.cfi_endproc
 140              	.LFE2:
 142              		.section	.text.sendAckSuccess,"ax",%progbits
 143              		.align	1
 144              		.global	sendAckSuccess
 145              		.syntax unified
 146              		.thumb
 147              		.thumb_func
 148              		.fpu fpv4-sp-d16
 150              	sendAckSuccess:
 151              	.LFB3:
 122:../../application/car/src/carFirmware.c **** 
 123:../../application/car/src/carFirmware.c **** /**
 124:../../application/car/src/carFirmware.c ****  * @brief Function to send successful ACK message
 125:../../application/car/src/carFirmware.c ****  */
 126:../../application/car/src/carFirmware.c **** void sendAckSuccess(void) {
ARM GAS  /tmp/cc6OSr9k.s 			page 6


 152              		.loc 1 126 27 is_stmt 1 view -0
 153              		.cfi_startproc
 154              		@ args = 0, pretend = 0, frame = 16
 155              		@ frame_needed = 0, uses_anonymous_args = 0
 156 0000 00B5     		push	{lr}
 157              	.LCFI3:
 158              		.cfi_def_cfa_offset 4
 159              		.cfi_offset 14, -4
 160 0002 85B0     		sub	sp, sp, #20
 161              	.LCFI4:
 162              		.cfi_def_cfa_offset 24
 127:../../application/car/src/carFirmware.c ****   // Create packet for successful ack and send
 128:../../application/car/src/carFirmware.c ****   MESSAGE_PACKET message;
 163              		.loc 1 128 3 view .LVU29
 129:../../application/car/src/carFirmware.c **** 
 130:../../application/car/src/carFirmware.c ****   uint8_t buffer[1];
 164              		.loc 1 130 3 view .LVU30
 131:../../application/car/src/carFirmware.c ****   message.buffer = buffer;
 165              		.loc 1 131 3 view .LVU31
 166              		.loc 1 131 18 is_stmt 0 view .LVU32
 167 0004 01AB     		add	r3, sp, #4
 168 0006 0393     		str	r3, [sp, #12]
 132:../../application/car/src/carFirmware.c ****   message.magic = ACK_MAGIC;
 169              		.loc 1 132 3 is_stmt 1 view .LVU33
 170              		.loc 1 132 17 is_stmt 0 view .LVU34
 171 0008 5423     		movs	r3, #84
 172 000a 8DF80830 		strb	r3, [sp, #8]
 133:../../application/car/src/carFirmware.c ****   buffer[0] = ACK_SUCCESS;
 173              		.loc 1 133 3 is_stmt 1 view .LVU35
 174              		.loc 1 133 13 is_stmt 0 view .LVU36
 175 000e 0123     		movs	r3, #1
 176 0010 8DF80430 		strb	r3, [sp, #4]
 134:../../application/car/src/carFirmware.c ****   message.message_len = 1;
 177              		.loc 1 134 3 is_stmt 1 view .LVU37
 178              		.loc 1 134 23 is_stmt 0 view .LVU38
 179 0014 8DF80930 		strb	r3, [sp, #9]
 135:../../application/car/src/carFirmware.c **** 
 136:../../application/car/src/carFirmware.c ****   send_board_message(&message);
 180              		.loc 1 136 3 is_stmt 1 view .LVU39
 181 0018 02A8     		add	r0, sp, #8
 182 001a FFF7FEFF 		bl	send_board_message
 183              	.LVL12:
 137:../../application/car/src/carFirmware.c **** }
 184              		.loc 1 137 1 is_stmt 0 view .LVU40
 185 001e 05B0     		add	sp, sp, #20
 186              	.LCFI5:
 187              		.cfi_def_cfa_offset 4
 188              		@ sp needed
 189 0020 5DF804FB 		ldr	pc, [sp], #4
 190              		.cfi_endproc
 191              	.LFE3:
 193              		.section	.text.sendAckFailure,"ax",%progbits
 194              		.align	1
 195              		.global	sendAckFailure
 196              		.syntax unified
 197              		.thumb
 198              		.thumb_func
ARM GAS  /tmp/cc6OSr9k.s 			page 7


 199              		.fpu fpv4-sp-d16
 201              	sendAckFailure:
 202              	.LFB4:
 138:../../application/car/src/carFirmware.c **** 
 139:../../application/car/src/carFirmware.c **** /**
 140:../../application/car/src/carFirmware.c ****  * @brief Function to send unsuccessful ACK message
 141:../../application/car/src/carFirmware.c ****  */
 142:../../application/car/src/carFirmware.c **** void sendAckFailure(void) {
 203              		.loc 1 142 27 is_stmt 1 view -0
 204              		.cfi_startproc
 205              		@ args = 0, pretend = 0, frame = 16
 206              		@ frame_needed = 0, uses_anonymous_args = 0
 207 0000 00B5     		push	{lr}
 208              	.LCFI6:
 209              		.cfi_def_cfa_offset 4
 210              		.cfi_offset 14, -4
 211 0002 85B0     		sub	sp, sp, #20
 212              	.LCFI7:
 213              		.cfi_def_cfa_offset 24
 143:../../application/car/src/carFirmware.c ****   // Create packet for unsuccessful ack and send
 144:../../application/car/src/carFirmware.c ****   MESSAGE_PACKET message;
 214              		.loc 1 144 3 view .LVU42
 145:../../application/car/src/carFirmware.c **** 
 146:../../application/car/src/carFirmware.c ****   uint8_t buffer[1];
 215              		.loc 1 146 3 view .LVU43
 147:../../application/car/src/carFirmware.c ****   message.buffer = buffer;
 216              		.loc 1 147 3 view .LVU44
 217              		.loc 1 147 18 is_stmt 0 view .LVU45
 218 0004 01AB     		add	r3, sp, #4
 219 0006 0393     		str	r3, [sp, #12]
 148:../../application/car/src/carFirmware.c ****   message.magic = ACK_MAGIC;
 220              		.loc 1 148 3 is_stmt 1 view .LVU46
 221              		.loc 1 148 17 is_stmt 0 view .LVU47
 222 0008 5423     		movs	r3, #84
 223 000a 8DF80830 		strb	r3, [sp, #8]
 149:../../application/car/src/carFirmware.c ****   buffer[0] = ACK_FAIL;
 224              		.loc 1 149 3 is_stmt 1 view .LVU48
 225              		.loc 1 149 13 is_stmt 0 view .LVU49
 226 000e 0023     		movs	r3, #0
 227 0010 8DF80430 		strb	r3, [sp, #4]
 150:../../application/car/src/carFirmware.c ****   message.message_len = 1;
 228              		.loc 1 150 3 is_stmt 1 view .LVU50
 229              		.loc 1 150 23 is_stmt 0 view .LVU51
 230 0014 0123     		movs	r3, #1
 231 0016 8DF80930 		strb	r3, [sp, #9]
 151:../../application/car/src/carFirmware.c **** 
 152:../../application/car/src/carFirmware.c ****   send_board_message(&message);
 232              		.loc 1 152 3 is_stmt 1 view .LVU52
 233 001a 02A8     		add	r0, sp, #8
 234 001c FFF7FEFF 		bl	send_board_message
 235              	.LVL13:
 153:../../application/car/src/carFirmware.c **** }
 236              		.loc 1 153 1 is_stmt 0 view .LVU53
 237 0020 05B0     		add	sp, sp, #20
 238              	.LCFI8:
 239              		.cfi_def_cfa_offset 4
 240              		@ sp needed
ARM GAS  /tmp/cc6OSr9k.s 			page 8


 241 0022 5DF804FB 		ldr	pc, [sp], #4
 242              		.cfi_endproc
 243              	.LFE4:
 245              		.section	.rodata.unlockCar.str1.4,"aMS",%progbits,1
 246              		.align	2
 247              	.LC6:
 248 0000 756E6C6F 		.ascii	"unlock\000"
 248      636B00
 249              		.section	.text.unlockCar,"ax",%progbits
 250              		.align	1
 251              		.global	unlockCar
 252              		.syntax unified
 253              		.thumb
 254              		.thumb_func
 255              		.fpu fpv4-sp-d16
 257              	unlockCar:
 258              	.LFB1:
  60:../../application/car/src/carFirmware.c ****   // Create a message struct variable for receiving data
 259              		.loc 1 60 22 is_stmt 1 view -0
 260              		.cfi_startproc
 261              		@ args = 0, pretend = 0, frame = 328
 262              		@ frame_needed = 0, uses_anonymous_args = 0
 263 0000 00B5     		push	{lr}
 264              	.LCFI9:
 265              		.cfi_def_cfa_offset 4
 266              		.cfi_offset 14, -4
 267 0002 D3B0     		sub	sp, sp, #332
 268              	.LCFI10:
 269              		.cfi_def_cfa_offset 336
  62:../../application/car/src/carFirmware.c ****   uint8_t buffer[256];
 270              		.loc 1 62 3 view .LVU55
  63:../../application/car/src/carFirmware.c ****   message.buffer = buffer;
 271              		.loc 1 63 3 view .LVU56
  64:../../application/car/src/carFirmware.c **** 
 272              		.loc 1 64 3 view .LVU57
  64:../../application/car/src/carFirmware.c **** 
 273              		.loc 1 64 18 is_stmt 0 view .LVU58
 274 0004 10AB     		add	r3, sp, #64
 275 0006 5193     		str	r3, [sp, #324]
  67:../../application/car/src/carFirmware.c **** 
 276              		.loc 1 67 3 is_stmt 1 view .LVU59
 277 0008 5621     		movs	r1, #86
 278 000a 50A8     		add	r0, sp, #320
 279 000c FFF7FEFF 		bl	receive_board_message_by_type
 280              	.LVL14:
  70:../../application/car/src/carFirmware.c **** 
 281              		.loc 1 70 3 view .LVU60
  70:../../application/car/src/carFirmware.c **** 
 282              		.loc 1 70 25 is_stmt 0 view .LVU61
 283 0010 9DF84131 		ldrb	r3, [sp, #321]	@ zero_extendqisi2
  70:../../application/car/src/carFirmware.c **** 
 284              		.loc 1 70 39 view .LVU62
 285 0014 519A     		ldr	r2, [sp, #324]
 286 0016 0021     		movs	r1, #0
 287 0018 D154     		strb	r1, [r2, r3]
  73:../../application/car/src/carFirmware.c ****     uint8_t eeprom_message[64];
 288              		.loc 1 73 3 is_stmt 1 view .LVU63
ARM GAS  /tmp/cc6OSr9k.s 			page 9


  73:../../application/car/src/carFirmware.c ****     uint8_t eeprom_message[64];
 289              		.loc 1 73 8 is_stmt 0 view .LVU64
 290 001a 0C49     		ldr	r1, .L16
 291 001c 5198     		ldr	r0, [sp, #324]
 292 001e FFF7FEFF 		bl	strcmp
 293              	.LVL15:
  73:../../application/car/src/carFirmware.c ****     uint8_t eeprom_message[64];
 294              		.loc 1 73 6 view .LVU65
 295 0022 80B9     		cbnz	r0, .L13
 296              	.LBB4:
  74:../../application/car/src/carFirmware.c ****     // Read last 64B of EEPROM
 297              		.loc 1 74 5 is_stmt 1 view .LVU66
  76:../../application/car/src/carFirmware.c **** 
 298              		.loc 1 76 5 view .LVU67
 299 0024 4022     		movs	r2, #64
 300 0026 0A49     		ldr	r1, .L16+4
 301 0028 6846     		mov	r0, sp
 302 002a FFF7FEFF 		bl	readVar
 303              	.LVL16:
  79:../../application/car/src/carFirmware.c **** 
 304              		.loc 1 79 5 view .LVU68
 305 002e 4022     		movs	r2, #64
 306 0030 6946     		mov	r1, sp
 307 0032 0020     		movs	r0, #0
 308 0034 FFF7FEFF 		bl	uart_write
 309              	.LVL17:
  81:../../application/car/src/carFirmware.c **** 
 310              		.loc 1 81 5 view .LVU69
 311 0038 FFF7FEFF 		bl	sendAckSuccess
 312              	.LVL18:
  83:../../application/car/src/carFirmware.c ****   } else {
 313              		.loc 1 83 5 view .LVU70
 314 003c FFF7FEFF 		bl	startCar
 315              	.LVL19:
 316              	.L12:
 317              	.LBE4:
  87:../../application/car/src/carFirmware.c **** 
 318              		.loc 1 87 1 is_stmt 0 view .LVU71
 319 0040 53B0     		add	sp, sp, #332
 320              	.LCFI11:
 321              		.cfi_remember_state
 322              		.cfi_def_cfa_offset 4
 323              		@ sp needed
 324 0042 5DF804FB 		ldr	pc, [sp], #4
 325              	.L13:
 326              	.LCFI12:
 327              		.cfi_restore_state
  85:../../application/car/src/carFirmware.c ****   }
 328              		.loc 1 85 5 is_stmt 1 view .LVU72
 329 0046 FFF7FEFF 		bl	sendAckFailure
 330              	.LVL20:
  87:../../application/car/src/carFirmware.c **** 
 331              		.loc 1 87 1 is_stmt 0 view .LVU73
 332 004a F9E7     		b	.L12
 333              	.L17:
 334              		.align	2
 335              	.L16:
ARM GAS  /tmp/cc6OSr9k.s 			page 10


 336 004c 00000000 		.word	.LANCHOR2
 337 0050 00000000 		.word	.LC6
 338              		.cfi_endproc
 339              	.LFE1:
 341              		.section	.text.main,"ax",%progbits
 342              		.align	1
 343              		.global	main
 344              		.syntax unified
 345              		.thumb
 346              		.thumb_func
 347              		.fpu fpv4-sp-d16
 349              	main:
 350              	.LVL21:
 351              	.LFB0:
  48:../../application/car/src/carFirmware.c ****   initHardware_car(argc, argv);
 352              		.loc 1 48 34 is_stmt 1 view -0
 353              		.cfi_startproc
 354              		@ Volatile: function does not return.
 355              		@ args = 0, pretend = 0, frame = 0
 356              		@ frame_needed = 0, uses_anonymous_args = 0
  48:../../application/car/src/carFirmware.c ****   initHardware_car(argc, argv);
 357              		.loc 1 48 34 is_stmt 0 view .LVU75
 358 0000 08B5     		push	{r3, lr}
 359              	.LCFI13:
 360              		.cfi_def_cfa_offset 8
 361              		.cfi_offset 3, -8
 362              		.cfi_offset 14, -4
  49:../../application/car/src/carFirmware.c **** 
 363              		.loc 1 49 3 is_stmt 1 view .LVU76
 364 0002 FFF7FEFF 		bl	initHardware_car
 365              	.LVL22:
 366              	.L19:
  51:../../application/car/src/carFirmware.c **** 
 367              		.loc 1 51 3 discriminator 1 view .LVU77
  53:../../application/car/src/carFirmware.c ****   }
 368              		.loc 1 53 5 discriminator 1 view .LVU78
 369 0006 FFF7FEFF 		bl	unlockCar
 370              	.LVL23:
  51:../../application/car/src/carFirmware.c **** 
 371              		.loc 1 51 9 discriminator 1 view .LVU79
 372 000a FCE7     		b	.L19
 373              		.cfi_endproc
 374              	.LFE0:
 376              		.global	car_id
 377              		.global	pass
 378              		.section	.rodata
 379              		.align	2
 380              		.set	.LANCHOR1,. + 0
 381              	.LC0:
 382 0000 0000     		.ascii	"\000\000"
 383 0002 0000     		.space	2
 384              	.LC5:
 385 0004 00000000 		.word	.LC0
 386 0008 00000000 		.word	.LC1
 387 000c 0C000000 		.word	.LC2
 388 0010 18000000 		.word	.LC3
 389              		.section	.rodata.car_id,"a"
ARM GAS  /tmp/cc6OSr9k.s 			page 11


 390              		.align	2
 391              		.set	.LANCHOR0,. + 0
 394              	car_id:
 395 0000 31303031 		.ascii	"1001\000"
 395      00
 396              		.section	.rodata.pass,"a"
 397              		.align	2
 398              		.set	.LANCHOR2,. + 0
 401              	pass:
 402 0000 756E6C6F 		.ascii	"unlock\000"
 402      636B00
 403              		.text
 404              	.Letext0:
 405              		.file 2 "../../application/car/inc/board_link.h"
 406              		.file 3 "/usr/lib/gcc/arm-none-eabi/10.3.1/include/stdint.h"
 407              		.file 4 "../../application/car/inc/uart.h"
 408              		.file 5 "../../application/car/inc/platform.h"
 409              		.file 6 "/usr/include/newlib/string.h"
ARM GAS  /tmp/cc6OSr9k.s 			page 12

