ARM GAS  /tmp/ccVaGKXX.s 			page 1


   1              		.cpu cortex-m4
   2              		.eabi_attribute 27, 1
   3              		.eabi_attribute 28, 1
   4              		.eabi_attribute 20, 1
   5              		.eabi_attribute 21, 1
   6              		.eabi_attribute 23, 3
   7              		.eabi_attribute 24, 1
   8              		.eabi_attribute 25, 1
   9              		.eabi_attribute 26, 1
  10              		.eabi_attribute 30, 1
  11              		.eabi_attribute 34, 1
  12              		.eabi_attribute 18, 4
  13              		.file	"fobFirmware.c"
  14              		.text
  15              	.Ltext0:
  16              		.cfi_sections	.debug_frame
  17              		.section	.rodata.pairFob.str1.4,"aMS",%progbits,1
  18              		.align	2
  19              	.LC0:
  20 0000 5000     		.ascii	"P\000"
  21 0002 0000     		.align	2
  22              	.LC1:
  23 0004 50616972 		.ascii	"Paired\000"
  23      656400
  24              		.section	.text.pairFob,"ax",%progbits
  25              		.align	1
  26              		.global	pairFob
  27              		.arch armv7e-m
  28              		.syntax unified
  29              		.thumb
  30              		.thumb_func
  31              		.fpu fpv4-sp-d16
  33              	pairFob:
  34              	.LVL0:
  35              	.LFB4:
  36              		.file 1 "../../application/source/fobFirmware.c"
   1:../../application/source/fobFirmware.c **** /**
   2:../../application/source/fobFirmware.c ****  * @file main.c
   3:../../application/source/fobFirmware.c ****  * @author Frederich Stine
   4:../../application/source/fobFirmware.c ****  * @brief eCTF Fob Example Design Implementation
   5:../../application/source/fobFirmware.c ****  * @date 2023
   6:../../application/source/fobFirmware.c ****  *
   7:../../application/source/fobFirmware.c ****  * This source file is part of an example system for MITRE's 2023 Embedded
   8:../../application/source/fobFirmware.c ****  * System CTF (eCTF). This code is being provided only for educational purposes
   9:../../application/source/fobFirmware.c ****  * for the 2023 MITRE eCTF competition, and may not meet MITRE standards for
  10:../../application/source/fobFirmware.c ****  * quality. Use this code at your own risk!
  11:../../application/source/fobFirmware.c ****  *
  12:../../application/source/fobFirmware.c ****  * @copyright Copyright (c) 2023 The MITRE Corporation
  13:../../application/source/fobFirmware.c ****  */
  14:../../application/source/fobFirmware.c **** 
  15:../../application/source/fobFirmware.c **** #include <stdbool.h>
  16:../../application/source/fobFirmware.c **** #include <stdint.h>
  17:../../application/source/fobFirmware.c **** #include <string.h>
  18:../../application/source/fobFirmware.c **** #include <stdio.h>
  19:../../application/source/fobFirmware.c **** 
  20:../../application/source/fobFirmware.c **** #include "secrets.h"
  21:../../application/source/fobFirmware.c **** #include "messages.h"
ARM GAS  /tmp/ccVaGKXX.s 			page 2


  22:../../application/source/fobFirmware.c **** #include "dataFormats.h"
  23:../../application/source/fobFirmware.c **** #include "uart.h"
  24:../../application/source/fobFirmware.c **** #include "platform.h"
  25:../../application/source/fobFirmware.c **** 
  26:../../application/source/fobFirmware.c **** /*** Structure definitions ***/
  27:../../application/source/fobFirmware.c **** // Defines a struct for the format of an enable message
  28:../../application/source/fobFirmware.c **** typedef struct
  29:../../application/source/fobFirmware.c **** {
  30:../../application/source/fobFirmware.c ****   uint8_t car_id[8];
  31:../../application/source/fobFirmware.c ****   uint8_t feature;
  32:../../application/source/fobFirmware.c **** } ENABLE_PACKET;
  33:../../application/source/fobFirmware.c **** 
  34:../../application/source/fobFirmware.c **** /*** Function definitions ***/
  35:../../application/source/fobFirmware.c **** // Core functions - all functionality supported by fob
  36:../../application/source/fobFirmware.c **** void pairFob(FLASH_DATA *fob_state_ram);
  37:../../application/source/fobFirmware.c **** void unlockCar(FLASH_DATA *fob_state_ram);
  38:../../application/source/fobFirmware.c **** void enableFeature(FLASH_DATA *fob_state_ram);
  39:../../application/source/fobFirmware.c **** void startCar(FLASH_DATA *fob_state_ram);
  40:../../application/source/fobFirmware.c **** 
  41:../../application/source/fobFirmware.c **** // Helper functions - receive ack message
  42:../../application/source/fobFirmware.c **** uint8_t receiveAck();
  43:../../application/source/fobFirmware.c **** 
  44:../../application/source/fobFirmware.c **** /**
  45:../../application/source/fobFirmware.c ****  * @brief Main function for the fob example
  46:../../application/source/fobFirmware.c ****  *
  47:../../application/source/fobFirmware.c ****  * Listens over UART and SW1 for an unlock command. If unlock command presented,
  48:../../application/source/fobFirmware.c ****  * attempts to unlock door. Listens over UART for pair command. If pair
  49:../../application/source/fobFirmware.c ****  * command presented, attempts to either pair a new key, or be paired
  50:../../application/source/fobFirmware.c ****  * based on firmware build.
  51:../../application/source/fobFirmware.c ****  */
  52:../../application/source/fobFirmware.c **** int main(int argc, char ** argv)
  53:../../application/source/fobFirmware.c **** {
  54:../../application/source/fobFirmware.c ****   initHardware_fob(argc, argv);
  55:../../application/source/fobFirmware.c **** 
  56:../../application/source/fobFirmware.c ****   FLASH_DATA fob_state_ram;
  57:../../application/source/fobFirmware.c ****   //FLASH_DATA fob_state_flash;
  58:../../application/source/fobFirmware.c ****   //readVar((uint8_t*)(&fob_state_flash), "fob_state");
  59:../../application/source/fobFirmware.c ****   readVar((uint8_t*)(&fob_state_ram), "fob_state");
  60:../../application/source/fobFirmware.c **** 
  61:../../application/source/fobFirmware.c **** // If paired fob, initialize the system information
  62:../../application/source/fobFirmware.c **** #if PAIRED == 1
  63:../../application/source/fobFirmware.c ****   //if (fob_state_flash.paired == FLASH_UNPAIRED)
  64:../../application/source/fobFirmware.c ****   if (fob_state_ram.paired == FLASH_UNPAIRED)
  65:../../application/source/fobFirmware.c ****   {
  66:../../application/source/fobFirmware.c ****     strcpy((char *)(fob_state_ram.pair_info.password), PASSWORD);
  67:../../application/source/fobFirmware.c ****     strcpy((char *)(fob_state_ram.pair_info.pin), PAIR_PIN);
  68:../../application/source/fobFirmware.c ****     strcpy((char *)(fob_state_ram.pair_info.car_id), CAR_ID);
  69:../../application/source/fobFirmware.c ****     strcpy((char *)(fob_state_ram.feature_info.car_id), CAR_ID);
  70:../../application/source/fobFirmware.c ****     fob_state_ram.paired = FLASH_PAIRED;
  71:../../application/source/fobFirmware.c **** 
  72:../../application/source/fobFirmware.c ****     saveFobState(&fob_state_ram);
  73:../../application/source/fobFirmware.c ****   }
  74:../../application/source/fobFirmware.c **** //#else
  75:../../application/source/fobFirmware.c ****   //fob_state_ram.paired = FLASH_UNPAIRED;
  76:../../application/source/fobFirmware.c **** #endif
  77:../../application/source/fobFirmware.c **** 
  78:../../application/source/fobFirmware.c ****   /*
ARM GAS  /tmp/ccVaGKXX.s 			page 3


  79:../../application/source/fobFirmware.c ****   if (fob_state_flash.paired == FLASH_PAIRED)
  80:../../application/source/fobFirmware.c ****   {
  81:../../application/source/fobFirmware.c ****     memcpy(&fob_state_ram, &fob_state_flash, sizeof(FLASH_DATA));
  82:../../application/source/fobFirmware.c ****   }
  83:../../application/source/fobFirmware.c ****   */
  84:../../application/source/fobFirmware.c **** 
  85:../../application/source/fobFirmware.c ****   // This will run on first boot to initialize features
  86:../../application/source/fobFirmware.c ****   if (fob_state_ram.feature_info.num_active == 0xFF)
  87:../../application/source/fobFirmware.c ****   {
  88:../../application/source/fobFirmware.c ****     fob_state_ram.feature_info.num_active = 0;
  89:../../application/source/fobFirmware.c ****     saveFobState(&fob_state_ram);
  90:../../application/source/fobFirmware.c ****   }
  91:../../application/source/fobFirmware.c **** 
  92:../../application/source/fobFirmware.c ****   // Declare a buffer for reading and writing to UART
  93:../../application/source/fobFirmware.c ****   uint8_t uart_buffer[10];
  94:../../application/source/fobFirmware.c ****   uint8_t uart_buffer_index = 0;
  95:../../application/source/fobFirmware.c **** 
  96:../../application/source/fobFirmware.c ****   // Infinite loop for polling UART
  97:../../application/source/fobFirmware.c ****   while (true)
  98:../../application/source/fobFirmware.c ****   {
  99:../../application/source/fobFirmware.c **** 
 100:../../application/source/fobFirmware.c ****     // Non blocking UART polling
 101:../../application/source/fobFirmware.c ****     if (uart_avail(HOST_UART))
 102:../../application/source/fobFirmware.c ****     {
 103:../../application/source/fobFirmware.c ****       uint8_t uart_char = (uint8_t)uart_readb(HOST_UART);
 104:../../application/source/fobFirmware.c **** 
 105:../../application/source/fobFirmware.c ****       if ((uart_char != '\r') && (uart_char != '\n') && (uart_char != '\0') &&
 106:../../application/source/fobFirmware.c ****           (uart_char != 0xD))
 107:../../application/source/fobFirmware.c ****       {
 108:../../application/source/fobFirmware.c ****         uart_buffer[uart_buffer_index] = uart_char;
 109:../../application/source/fobFirmware.c ****         uart_buffer_index++;
 110:../../application/source/fobFirmware.c ****       }
 111:../../application/source/fobFirmware.c ****       else
 112:../../application/source/fobFirmware.c ****       {
 113:../../application/source/fobFirmware.c ****         uart_buffer[uart_buffer_index] = 0x00;
 114:../../application/source/fobFirmware.c ****         uart_buffer_index = 0;
 115:../../application/source/fobFirmware.c **** 
 116:../../application/source/fobFirmware.c ****         if (!(strcmp((char *)uart_buffer, "enable")))
 117:../../application/source/fobFirmware.c ****         {
 118:../../application/source/fobFirmware.c ****           enableFeature(&fob_state_ram);
 119:../../application/source/fobFirmware.c ****         }
 120:../../application/source/fobFirmware.c ****         else if (!(strcmp((char *)uart_buffer, "pair")))
 121:../../application/source/fobFirmware.c ****         {
 122:../../application/source/fobFirmware.c ****           pairFob(&fob_state_ram);
 123:../../application/source/fobFirmware.c ****         }
 124:../../application/source/fobFirmware.c ****       }
 125:../../application/source/fobFirmware.c ****     }
 126:../../application/source/fobFirmware.c **** 
 127:../../application/source/fobFirmware.c ****     if(buttonPressed())
 128:../../application/source/fobFirmware.c ****     {
 129:../../application/source/fobFirmware.c ****       unlockCar(&fob_state_ram);
 130:../../application/source/fobFirmware.c ****       if (receiveAck())
 131:../../application/source/fobFirmware.c ****       {
 132:../../application/source/fobFirmware.c ****         startCar(&fob_state_ram);
 133:../../application/source/fobFirmware.c ****       }
 134:../../application/source/fobFirmware.c ****     }
 135:../../application/source/fobFirmware.c ****   }
ARM GAS  /tmp/ccVaGKXX.s 			page 4


 136:../../application/source/fobFirmware.c **** }
 137:../../application/source/fobFirmware.c **** 
 138:../../application/source/fobFirmware.c **** /**
 139:../../application/source/fobFirmware.c ****  * @brief Function that carries out pairing of the fob
 140:../../application/source/fobFirmware.c ****  *
 141:../../application/source/fobFirmware.c ****  * @param fob_state_ram pointer to the current fob state in ram
 142:../../application/source/fobFirmware.c ****  */
 143:../../application/source/fobFirmware.c **** void pairFob(FLASH_DATA *fob_state_ram)
 144:../../application/source/fobFirmware.c **** {
  37              		.loc 1 144 1 view -0
  38              		.cfi_startproc
  39              		@ args = 0, pretend = 0, frame = 16
  40              		@ frame_needed = 0, uses_anonymous_args = 0
  41              		.loc 1 144 1 is_stmt 0 view .LVU1
  42 0000 70B5     		push	{r4, r5, r6, lr}
  43              	.LCFI0:
  44              		.cfi_def_cfa_offset 16
  45              		.cfi_offset 4, -16
  46              		.cfi_offset 5, -12
  47              		.cfi_offset 6, -8
  48              		.cfi_offset 14, -4
  49 0002 84B0     		sub	sp, sp, #16
  50              	.LCFI1:
  51              		.cfi_def_cfa_offset 32
  52 0004 0446     		mov	r4, r0
 145:../../application/source/fobFirmware.c ****   MESSAGE_PACKET message;
  53              		.loc 1 145 3 is_stmt 1 view .LVU2
 146:../../application/source/fobFirmware.c ****   // Start pairing transaction - fob is already paired
 147:../../application/source/fobFirmware.c ****   if (fob_state_ram->paired == FLASH_PAIRED)
  54              		.loc 1 147 3 view .LVU3
  55              		.loc 1 147 20 is_stmt 0 view .LVU4
  56 0006 0378     		ldrb	r3, [r0]	@ zero_extendqisi2
  57              		.loc 1 147 6 view .LVU5
  58 0008 EBB9     		cbnz	r3, .L2
  59              	.LBB2:
 148:../../application/source/fobFirmware.c ****   {
 149:../../application/source/fobFirmware.c ****     int16_t bytes_read;
  60              		.loc 1 149 5 is_stmt 1 view .LVU6
 150:../../application/source/fobFirmware.c ****     uint8_t uart_buffer[8];
  61              		.loc 1 150 5 view .LVU7
 151:../../application/source/fobFirmware.c ****     uart_write(HOST_UART, (uint8_t *)"P", 1);
  62              		.loc 1 151 5 view .LVU8
  63 000a 0122     		movs	r2, #1
  64 000c 1949     		ldr	r1, .L6
  65 000e 0020     		movs	r0, #0
  66              	.LVL1:
  67              		.loc 1 151 5 is_stmt 0 view .LVU9
  68 0010 FFF7FEFF 		bl	uart_write
  69              	.LVL2:
 152:../../application/source/fobFirmware.c ****     bytes_read = uart_readline(HOST_UART, uart_buffer);
  70              		.loc 1 152 5 is_stmt 1 view .LVU10
  71              		.loc 1 152 18 is_stmt 0 view .LVU11
  72 0014 6946     		mov	r1, sp
  73 0016 0020     		movs	r0, #0
  74 0018 FFF7FEFF 		bl	uart_readline
  75              	.LVL3:
  76              		.loc 1 152 16 view .LVU12
ARM GAS  /tmp/ccVaGKXX.s 			page 5


  77 001c 00B2     		sxth	r0, r0
  78              	.LVL4:
 153:../../application/source/fobFirmware.c **** 
 154:../../application/source/fobFirmware.c ****     if (bytes_read == 6)
  79              		.loc 1 154 5 is_stmt 1 view .LVU13
  80              		.loc 1 154 8 is_stmt 0 view .LVU14
  81 001e 0628     		cmp	r0, #6
  82 0020 26D1     		bne	.L1
 155:../../application/source/fobFirmware.c ****     {
 156:../../application/source/fobFirmware.c ****       // If the pin is correct
 157:../../application/source/fobFirmware.c ****       if (!(strcmp((char *)uart_buffer,
  83              		.loc 1 157 7 is_stmt 1 view .LVU15
  84              		.loc 1 157 13 is_stmt 0 view .LVU16
  85 0022 04F11101 		add	r1, r4, #17
  86 0026 6846     		mov	r0, sp
  87              	.LVL5:
  88              		.loc 1 157 13 view .LVU17
  89 0028 FFF7FEFF 		bl	strcmp
  90              	.LVL6:
  91              		.loc 1 157 10 view .LVU18
  92 002c 00BB     		cbnz	r0, .L1
 158:../../application/source/fobFirmware.c ****                    (char *)fob_state_ram->pair_info.pin)))
 159:../../application/source/fobFirmware.c ****       {
 160:../../application/source/fobFirmware.c ****         // Pair the new key by sending a PAIR_PACKET structure
 161:../../application/source/fobFirmware.c ****         // with required information to unlock door
 162:../../application/source/fobFirmware.c ****         message.message_len = sizeof(PAIR_PACKET);
  93              		.loc 1 162 9 is_stmt 1 view .LVU19
  94              		.loc 1 162 29 is_stmt 0 view .LVU20
  95 002e 1823     		movs	r3, #24
  96 0030 8DF80930 		strb	r3, [sp, #9]
 163:../../application/source/fobFirmware.c ****         message.magic = PAIR_MAGIC;
  97              		.loc 1 163 9 is_stmt 1 view .LVU21
  98              		.loc 1 163 23 is_stmt 0 view .LVU22
  99 0034 5523     		movs	r3, #85
 100 0036 8DF80830 		strb	r3, [sp, #8]
 164:../../application/source/fobFirmware.c ****         message.buffer = (uint8_t *)&fob_state_ram->pair_info;
 101              		.loc 1 164 9 is_stmt 1 view .LVU23
 102              		.loc 1 164 37 is_stmt 0 view .LVU24
 103 003a 0134     		adds	r4, r4, #1
 104              	.LVL7:
 105              		.loc 1 164 24 view .LVU25
 106 003c 0394     		str	r4, [sp, #12]
 165:../../application/source/fobFirmware.c ****         send_board_message(&message);
 107              		.loc 1 165 9 is_stmt 1 view .LVU26
 108 003e 02A8     		add	r0, sp, #8
 109 0040 FFF7FEFF 		bl	send_board_message
 110              	.LVL8:
 111 0044 14E0     		b	.L1
 112              	.LVL9:
 113              	.L2:
 114              		.loc 1 165 9 is_stmt 0 view .LVU27
 115              	.LBE2:
 166:../../application/source/fobFirmware.c ****       }
 167:../../application/source/fobFirmware.c ****     }
 168:../../application/source/fobFirmware.c ****   }
 169:../../application/source/fobFirmware.c **** 
 170:../../application/source/fobFirmware.c ****   // Start pairing transaction - fob is not paired
ARM GAS  /tmp/ccVaGKXX.s 			page 6


 171:../../application/source/fobFirmware.c ****   else
 172:../../application/source/fobFirmware.c ****   {
 173:../../application/source/fobFirmware.c ****     message.buffer = (uint8_t *)&fob_state_ram->pair_info;
 116              		.loc 1 173 5 is_stmt 1 view .LVU28
 117              		.loc 1 173 33 is_stmt 0 view .LVU29
 118 0046 461C     		adds	r6, r0, #1
 119              		.loc 1 173 20 view .LVU30
 120 0048 0396     		str	r6, [sp, #12]
 174:../../application/source/fobFirmware.c ****     receive_board_message_by_type(&message, PAIR_MAGIC);
 121              		.loc 1 174 5 is_stmt 1 view .LVU31
 122 004a 5521     		movs	r1, #85
 123 004c 02A8     		add	r0, sp, #8
 124              	.LVL10:
 125              		.loc 1 174 5 is_stmt 0 view .LVU32
 126 004e FFF7FEFF 		bl	receive_board_message_by_type
 127              	.LVL11:
 175:../../application/source/fobFirmware.c ****     fob_state_ram->paired = FLASH_PAIRED;
 128              		.loc 1 175 5 is_stmt 1 view .LVU33
 129              		.loc 1 175 27 is_stmt 0 view .LVU34
 130 0052 0025     		movs	r5, #0
 131 0054 2046     		mov	r0, r4
 132 0056 00F8195B 		strb	r5, [r0], #25
 176:../../application/source/fobFirmware.c ****     strcpy((char *)fob_state_ram->feature_info.car_id,
 133              		.loc 1 176 5 is_stmt 1 view .LVU35
 134 005a 3146     		mov	r1, r6
 135 005c FFF7FEFF 		bl	strcpy
 136              	.LVL12:
 177:../../application/source/fobFirmware.c ****            (char *)fob_state_ram->pair_info.car_id);
 178:../../application/source/fobFirmware.c **** 
 179:../../application/source/fobFirmware.c ****     uart_write(HOST_UART, (uint8_t *)"Paired", 6);
 137              		.loc 1 179 5 view .LVU36
 138 0060 0622     		movs	r2, #6
 139 0062 0549     		ldr	r1, .L6+4
 140 0064 2846     		mov	r0, r5
 141 0066 FFF7FEFF 		bl	uart_write
 142              	.LVL13:
 180:../../application/source/fobFirmware.c **** 
 181:../../application/source/fobFirmware.c ****     saveFobState(fob_state_ram);
 143              		.loc 1 181 5 view .LVU37
 144 006a 2046     		mov	r0, r4
 145 006c FFF7FEFF 		bl	saveFobState
 146              	.LVL14:
 147              	.L1:
 182:../../application/source/fobFirmware.c ****   }
 183:../../application/source/fobFirmware.c **** }
 148              		.loc 1 183 1 is_stmt 0 view .LVU38
 149 0070 04B0     		add	sp, sp, #16
 150              	.LCFI2:
 151              		.cfi_def_cfa_offset 16
 152              		@ sp needed
 153 0072 70BD     		pop	{r4, r5, r6, pc}
 154              	.L7:
 155              		.align	2
 156              	.L6:
 157 0074 00000000 		.word	.LC0
 158 0078 04000000 		.word	.LC1
 159              		.cfi_endproc
ARM GAS  /tmp/ccVaGKXX.s 			page 7


 160              	.LFE4:
 162              		.section	.rodata.enableFeature.str1.4,"aMS",%progbits,1
 163              		.align	2
 164              	.LC2:
 165 0000 496E7369 		.ascii	"Inside enableFeature\012\000"
 165      64652065 
 165      6E61626C 
 165      65466561 
 165      74757265 
 166 0016 0000     		.align	2
 167              	.LC3:
 168 0018 4552524F 		.ascii	"ERROR: Car IDs don't match\012\000"
 168      523A2043 
 168      61722049 
 168      44732064 
 168      6F6E2774 
 169              		.align	2
 170              	.LC4:
 171 0034 45787065 		.ascii	"Expected %s, received %s\012\000"
 171      63746564 
 171      2025732C 
 171      20726563 
 171      65697665 
 172 004e 0000     		.align	2
 173              	.LC5:
 174 0050 4552524F 		.ascii	"ERROR: Feature list full\012\000"
 174      523A2046 
 174      65617475 
 174      7265206C 
 174      69737420 
 175 006a 0000     		.align	2
 176              	.LC6:
 177 006c 4552524F 		.ascii	"ERROR: Feature already enabled\012\000"
 177      523A2046 
 177      65617475 
 177      72652061 
 177      6C726561 
 178              		.align	2
 179              	.LC7:
 180 008c 456E6162 		.ascii	"Enabled\000"
 180      6C656400 
 181              		.section	.text.enableFeature,"ax",%progbits
 182              		.align	1
 183              		.global	enableFeature
 184              		.syntax unified
 185              		.thumb
 186              		.thumb_func
 187              		.fpu fpv4-sp-d16
 189              	enableFeature:
 190              	.LVL15:
 191              	.LFB5:
 184:../../application/source/fobFirmware.c **** 
 185:../../application/source/fobFirmware.c **** /**
 186:../../application/source/fobFirmware.c ****  * @brief Function that handles enabling a new feature on the fob
 187:../../application/source/fobFirmware.c ****  *
 188:../../application/source/fobFirmware.c ****  * @param fob_state_ram pointer to the current fob state in ram
 189:../../application/source/fobFirmware.c ****  */
ARM GAS  /tmp/ccVaGKXX.s 			page 8


 190:../../application/source/fobFirmware.c **** void enableFeature(FLASH_DATA *fob_state_ram)
 191:../../application/source/fobFirmware.c **** {
 192              		.loc 1 191 1 is_stmt 1 view -0
 193              		.cfi_startproc
 194              		@ args = 0, pretend = 0, frame = 88
 195              		@ frame_needed = 0, uses_anonymous_args = 0
 192:../../application/source/fobFirmware.c ****   if (fob_state_ram->paired == FLASH_PAIRED)
 196              		.loc 1 192 3 view .LVU40
 197              		.loc 1 192 20 is_stmt 0 view .LVU41
 198 0000 0378     		ldrb	r3, [r0]	@ zero_extendqisi2
 199              		.loc 1 192 6 view .LVU42
 200 0002 03B1     		cbz	r3, .L19
 201 0004 7047     		bx	lr
 202              	.L19:
 191:../../application/source/fobFirmware.c ****   if (fob_state_ram->paired == FLASH_PAIRED)
 203              		.loc 1 191 1 view .LVU43
 204 0006 70B5     		push	{r4, r5, r6, lr}
 205              	.LCFI3:
 206              		.cfi_def_cfa_offset 16
 207              		.cfi_offset 4, -16
 208              		.cfi_offset 5, -12
 209              		.cfi_offset 6, -8
 210              		.cfi_offset 14, -4
 211 0008 96B0     		sub	sp, sp, #88
 212              	.LCFI4:
 213              		.cfi_def_cfa_offset 104
 214 000a 0446     		mov	r4, r0
 215              	.LBB3:
 193:../../application/source/fobFirmware.c ****   {
 194:../../application/source/fobFirmware.c ****     uint8_t uart_buffer[20];
 216              		.loc 1 194 5 is_stmt 1 view .LVU44
 195:../../application/source/fobFirmware.c ****     uart_readline(HOST_UART, uart_buffer);
 217              		.loc 1 195 5 view .LVU45
 218 000c 01A9     		add	r1, sp, #4
 219 000e 0020     		movs	r0, #0
 220              	.LVL16:
 221              		.loc 1 195 5 is_stmt 0 view .LVU46
 222 0010 FFF7FEFF 		bl	uart_readline
 223              	.LVL17:
 196:../../application/source/fobFirmware.c **** 
 197:../../application/source/fobFirmware.c ****     char msg[64] = {0};
 224              		.loc 1 197 5 is_stmt 1 view .LVU47
 225              		.loc 1 197 10 is_stmt 0 view .LVU48
 226 0014 0021     		movs	r1, #0
 227 0016 0691     		str	r1, [sp, #24]
 228 0018 3C22     		movs	r2, #60
 229 001a 07A8     		add	r0, sp, #28
 230 001c FFF7FEFF 		bl	memset
 231              	.LVL18:
 198:../../application/source/fobFirmware.c ****     strcpy(msg, "Inside enableFeature\n");
 232              		.loc 1 198 5 is_stmt 1 view .LVU49
 233 0020 0DF1180C 		add	ip, sp, #24
 234 0024 3D4D     		ldr	r5, .L24
 235 0026 0FCD     		ldmia	r5!, {r0, r1, r2, r3}
 236 0028 ACE80F00 		stmia	ip!, {r0, r1, r2, r3}
 237 002c 95E80300 		ldm	r5, {r0, r1}
 238 0030 4CF8040B 		str	r0, [ip], #4
ARM GAS  /tmp/ccVaGKXX.s 			page 9


 239 0034 ACF80010 		strh	r1, [ip]	@ movhi
 199:../../application/source/fobFirmware.c ****     uart_write(BOARD_UART, (uint8_t*)msg, strlen(msg));
 240              		.loc 1 199 5 view .LVU50
 241              		.loc 1 199 43 is_stmt 0 view .LVU51
 242 0038 06A8     		add	r0, sp, #24
 243 003a FFF7FEFF 		bl	strlen
 244              	.LVL19:
 245 003e 0246     		mov	r2, r0
 246              		.loc 1 199 5 view .LVU52
 247 0040 06A9     		add	r1, sp, #24
 248 0042 0120     		movs	r0, #1
 249 0044 FFF7FEFF 		bl	uart_write
 250              	.LVL20:
 200:../../application/source/fobFirmware.c **** 
 201:../../application/source/fobFirmware.c ****     ENABLE_PACKET *enable_message = (ENABLE_PACKET *)uart_buffer;
 251              		.loc 1 201 5 is_stmt 1 view .LVU53
 202:../../application/source/fobFirmware.c ****     if (strcmp((char *)fob_state_ram->pair_info.car_id,
 252              		.loc 1 202 5 view .LVU54
 253              		.loc 1 202 24 is_stmt 0 view .LVU55
 254 0048 651C     		adds	r5, r4, #1
 255              		.loc 1 202 9 view .LVU56
 256 004a 01A9     		add	r1, sp, #4
 257              	.LVL21:
 258              		.loc 1 202 9 view .LVU57
 259 004c 2846     		mov	r0, r5
 260 004e FFF7FEFF 		bl	strcmp
 261              	.LVL22:
 262              		.loc 1 202 8 view .LVU58
 263 0052 0346     		mov	r3, r0
 264 0054 70B9     		cbnz	r0, .L20
 203:../../application/source/fobFirmware.c ****                (char *)enable_message->car_id))
 204:../../application/source/fobFirmware.c ****     {
 205:../../application/source/fobFirmware.c ****       strcpy(msg, "ERROR: Car IDs don't match\n");
 206:../../application/source/fobFirmware.c ****       uart_write(BOARD_UART, (uint8_t*)msg, strlen(msg));
 207:../../application/source/fobFirmware.c ****       sprintf(msg, "Expected %s, received %s\n", (char *)fob_state_ram->pair_info.car_id, (char *)e
 208:../../application/source/fobFirmware.c ****       uart_write(BOARD_UART, (uint8_t*)msg, strlen(msg));
 209:../../application/source/fobFirmware.c ****       return;
 210:../../application/source/fobFirmware.c ****     }
 211:../../application/source/fobFirmware.c **** 
 212:../../application/source/fobFirmware.c ****     // Feature list full
 213:../../application/source/fobFirmware.c ****     if (fob_state_ram->feature_info.num_active == NUM_FEATURES)
 265              		.loc 1 213 5 is_stmt 1 view .LVU59
 266              		.loc 1 213 36 is_stmt 0 view .LVU60
 267 0056 94F82100 		ldrb	r0, [r4, #33]	@ zero_extendqisi2
 268              		.loc 1 213 8 view .LVU61
 269 005a 0328     		cmp	r0, #3
 270 005c 29D0     		beq	.L21
 271              	.L12:
 272              	.LVL23:
 273              	.LBB4:
 214:../../application/source/fobFirmware.c ****     {
 215:../../application/source/fobFirmware.c ****       strcpy(msg, "ERROR: Feature list full\n");
 216:../../application/source/fobFirmware.c ****       uart_write(BOARD_UART, (uint8_t*)msg, strlen(msg));
 217:../../application/source/fobFirmware.c ****       return;
 218:../../application/source/fobFirmware.c ****     }
 219:../../application/source/fobFirmware.c **** 
 220:../../application/source/fobFirmware.c ****     // Search for feature in list
ARM GAS  /tmp/ccVaGKXX.s 			page 10


 221:../../application/source/fobFirmware.c ****     for (int i = 0; i < fob_state_ram->feature_info.num_active; i++)
 274              		.loc 1 221 21 is_stmt 1 discriminator 1 view .LVU62
 275              		.loc 1 221 5 is_stmt 0 discriminator 1 view .LVU63
 276 005e 9842     		cmp	r0, r3
 277 0060 49DD     		ble	.L22
 222:../../application/source/fobFirmware.c ****     {
 223:../../application/source/fobFirmware.c ****       if (fob_state_ram->feature_info.features[i] == enable_message->feature)
 278              		.loc 1 223 7 is_stmt 1 view .LVU64
 279              		.loc 1 223 47 is_stmt 0 view .LVU65
 280 0062 E218     		adds	r2, r4, r3
 281 0064 92F82210 		ldrb	r1, [r2, #34]	@ zero_extendqisi2
 282              		.loc 1 223 68 view .LVU66
 283 0068 9DF80C20 		ldrb	r2, [sp, #12]	@ zero_extendqisi2
 284              		.loc 1 223 10 view .LVU67
 285 006c 9142     		cmp	r1, r2
 286 006e 31D0     		beq	.L23
 221:../../application/source/fobFirmware.c ****     {
 287              		.loc 1 221 65 is_stmt 1 discriminator 2 view .LVU68
 221:../../application/source/fobFirmware.c ****     {
 288              		.loc 1 221 66 is_stmt 0 discriminator 2 view .LVU69
 289 0070 0133     		adds	r3, r3, #1
 290              	.LVL24:
 221:../../application/source/fobFirmware.c ****     {
 291              		.loc 1 221 66 discriminator 2 view .LVU70
 292 0072 F4E7     		b	.L12
 293              	.LVL25:
 294              	.L20:
 221:../../application/source/fobFirmware.c ****     {
 295              		.loc 1 221 66 discriminator 2 view .LVU71
 296              	.LBE4:
 205:../../application/source/fobFirmware.c ****       uart_write(BOARD_UART, (uint8_t*)msg, strlen(msg));
 297              		.loc 1 205 7 is_stmt 1 view .LVU72
 298 0074 06AC     		add	r4, sp, #24
 299              	.LVL26:
 205:../../application/source/fobFirmware.c ****       uart_write(BOARD_UART, (uint8_t*)msg, strlen(msg));
 300              		.loc 1 205 7 is_stmt 0 view .LVU73
 301 0076 2A4E     		ldr	r6, .L24+4
 302 0078 0FCE     		ldmia	r6!, {r0, r1, r2, r3}
 303 007a 0FC4     		stmia	r4!, {r0, r1, r2, r3}
 304 007c 96E80700 		ldm	r6, {r0, r1, r2}
 305 0080 84E80700 		stm	r4, {r0, r1, r2}
 206:../../application/source/fobFirmware.c ****       sprintf(msg, "Expected %s, received %s\n", (char *)fob_state_ram->pair_info.car_id, (char *)e
 306              		.loc 1 206 7 is_stmt 1 view .LVU74
 206:../../application/source/fobFirmware.c ****       sprintf(msg, "Expected %s, received %s\n", (char *)fob_state_ram->pair_info.car_id, (char *)e
 307              		.loc 1 206 45 is_stmt 0 view .LVU75
 308 0084 06A8     		add	r0, sp, #24
 309 0086 FFF7FEFF 		bl	strlen
 310              	.LVL27:
 311 008a 0246     		mov	r2, r0
 206:../../application/source/fobFirmware.c ****       sprintf(msg, "Expected %s, received %s\n", (char *)fob_state_ram->pair_info.car_id, (char *)e
 312              		.loc 1 206 7 view .LVU76
 313 008c 06A9     		add	r1, sp, #24
 314 008e 0120     		movs	r0, #1
 315 0090 FFF7FEFF 		bl	uart_write
 316              	.LVL28:
 207:../../application/source/fobFirmware.c ****       uart_write(BOARD_UART, (uint8_t*)msg, strlen(msg));
 317              		.loc 1 207 7 is_stmt 1 view .LVU77
ARM GAS  /tmp/ccVaGKXX.s 			page 11


 318 0094 01AB     		add	r3, sp, #4
 319              	.LVL29:
 207:../../application/source/fobFirmware.c ****       uart_write(BOARD_UART, (uint8_t*)msg, strlen(msg));
 320              		.loc 1 207 7 is_stmt 0 view .LVU78
 321 0096 2A46     		mov	r2, r5
 322 0098 2249     		ldr	r1, .L24+8
 323 009a 06A8     		add	r0, sp, #24
 324 009c FFF7FEFF 		bl	sprintf
 325              	.LVL30:
 208:../../application/source/fobFirmware.c ****       return;
 326              		.loc 1 208 7 is_stmt 1 view .LVU79
 208:../../application/source/fobFirmware.c ****       return;
 327              		.loc 1 208 45 is_stmt 0 view .LVU80
 328 00a0 06A8     		add	r0, sp, #24
 329 00a2 FFF7FEFF 		bl	strlen
 330              	.LVL31:
 331 00a6 0246     		mov	r2, r0
 208:../../application/source/fobFirmware.c ****       return;
 332              		.loc 1 208 7 view .LVU81
 333 00a8 06A9     		add	r1, sp, #24
 334 00aa 0120     		movs	r0, #1
 335 00ac FFF7FEFF 		bl	uart_write
 336              	.LVL32:
 209:../../application/source/fobFirmware.c ****     }
 337              		.loc 1 209 7 is_stmt 1 view .LVU82
 338 00b0 31E0     		b	.L8
 339              	.LVL33:
 340              	.L21:
 215:../../application/source/fobFirmware.c ****       uart_write(BOARD_UART, (uint8_t*)msg, strlen(msg));
 341              		.loc 1 215 7 view .LVU83
 342 00b2 06AC     		add	r4, sp, #24
 343              	.LVL34:
 215:../../application/source/fobFirmware.c ****       uart_write(BOARD_UART, (uint8_t*)msg, strlen(msg));
 344              		.loc 1 215 7 is_stmt 0 view .LVU84
 345 00b4 1C4D     		ldr	r5, .L24+12
 346              	.LVL35:
 215:../../application/source/fobFirmware.c ****       uart_write(BOARD_UART, (uint8_t*)msg, strlen(msg));
 347              		.loc 1 215 7 view .LVU85
 348 00b6 0FCD     		ldmia	r5!, {r0, r1, r2, r3}
 349 00b8 0FC4     		stmia	r4!, {r0, r1, r2, r3}
 350 00ba 95E80700 		ldm	r5, {r0, r1, r2}
 351 00be 03C4     		stmia	r4!, {r0, r1}
 352 00c0 2280     		strh	r2, [r4]	@ movhi
 216:../../application/source/fobFirmware.c ****       return;
 353              		.loc 1 216 7 is_stmt 1 view .LVU86
 216:../../application/source/fobFirmware.c ****       return;
 354              		.loc 1 216 45 is_stmt 0 view .LVU87
 355 00c2 06A8     		add	r0, sp, #24
 356 00c4 FFF7FEFF 		bl	strlen
 357              	.LVL36:
 358 00c8 0246     		mov	r2, r0
 216:../../application/source/fobFirmware.c ****       return;
 359              		.loc 1 216 7 view .LVU88
 360 00ca 06A9     		add	r1, sp, #24
 361 00cc 0120     		movs	r0, #1
 362 00ce FFF7FEFF 		bl	uart_write
 363              	.LVL37:
ARM GAS  /tmp/ccVaGKXX.s 			page 12


 217:../../application/source/fobFirmware.c ****     }
 364              		.loc 1 217 7 is_stmt 1 view .LVU89
 365 00d2 20E0     		b	.L8
 366              	.LVL38:
 367              	.L23:
 368              	.LBB5:
 224:../../application/source/fobFirmware.c ****       {
 225:../../application/source/fobFirmware.c ****         strcpy(msg, "ERROR: Feature already enabled\n");
 369              		.loc 1 225 9 view .LVU90
 370 00d4 06AC     		add	r4, sp, #24
 371              	.LVL39:
 372              		.loc 1 225 9 is_stmt 0 view .LVU91
 373 00d6 154D     		ldr	r5, .L24+16
 374              	.LVL40:
 375              		.loc 1 225 9 view .LVU92
 376 00d8 0FCD     		ldmia	r5!, {r0, r1, r2, r3}
 377              	.LVL41:
 378              		.loc 1 225 9 view .LVU93
 379 00da 0FC4     		stmia	r4!, {r0, r1, r2, r3}
 380 00dc 95E80F00 		ldm	r5, {r0, r1, r2, r3}
 381 00e0 84E80F00 		stm	r4, {r0, r1, r2, r3}
 226:../../application/source/fobFirmware.c ****         uart_write(BOARD_UART, (uint8_t*)msg, strlen(msg));
 382              		.loc 1 226 9 is_stmt 1 view .LVU94
 383              		.loc 1 226 47 is_stmt 0 view .LVU95
 384 00e4 06A8     		add	r0, sp, #24
 385 00e6 FFF7FEFF 		bl	strlen
 386              	.LVL42:
 387 00ea 0246     		mov	r2, r0
 388              		.loc 1 226 9 view .LVU96
 389 00ec 06A9     		add	r1, sp, #24
 390 00ee 0120     		movs	r0, #1
 391 00f0 FFF7FEFF 		bl	uart_write
 392              	.LVL43:
 227:../../application/source/fobFirmware.c ****         return;
 393              		.loc 1 227 9 is_stmt 1 view .LVU97
 394 00f4 0FE0     		b	.L8
 395              	.LVL44:
 396              	.L22:
 397              		.loc 1 227 9 is_stmt 0 view .LVU98
 398              	.LBE5:
 228:../../application/source/fobFirmware.c ****       }
 229:../../application/source/fobFirmware.c ****     }
 230:../../application/source/fobFirmware.c **** 
 231:../../application/source/fobFirmware.c ****     fob_state_ram->feature_info
 399              		.loc 1 231 5 is_stmt 1 view .LVU99
 232:../../application/source/fobFirmware.c ****         .features[fob_state_ram->feature_info.num_active] =
 233:../../application/source/fobFirmware.c ****         enable_message->feature;
 400              		.loc 1 233 23 is_stmt 0 view .LVU100
 401 00f6 9DF80C20 		ldrb	r2, [sp, #12]	@ zero_extendqisi2
 232:../../application/source/fobFirmware.c ****         .features[fob_state_ram->feature_info.num_active] =
 402              		.loc 1 232 59 view .LVU101
 403 00fa 2318     		adds	r3, r4, r0
 404              	.LVL45:
 232:../../application/source/fobFirmware.c ****         .features[fob_state_ram->feature_info.num_active] =
 405              		.loc 1 232 59 view .LVU102
 406 00fc 83F82220 		strb	r2, [r3, #34]
 234:../../application/source/fobFirmware.c ****     fob_state_ram->feature_info.num_active++;
ARM GAS  /tmp/ccVaGKXX.s 			page 13


 407              		.loc 1 234 5 is_stmt 1 view .LVU103
 408              		.loc 1 234 43 is_stmt 0 view .LVU104
 409 0100 0130     		adds	r0, r0, #1
 410 0102 84F82100 		strb	r0, [r4, #33]
 235:../../application/source/fobFirmware.c **** 
 236:../../application/source/fobFirmware.c ****     saveFobState(fob_state_ram);
 411              		.loc 1 236 5 is_stmt 1 view .LVU105
 412 0106 2046     		mov	r0, r4
 413 0108 FFF7FEFF 		bl	saveFobState
 414              	.LVL46:
 237:../../application/source/fobFirmware.c ****     uart_write(HOST_UART, (uint8_t *)"Enabled", 7);
 415              		.loc 1 237 5 view .LVU106
 416 010c 0722     		movs	r2, #7
 417 010e 0849     		ldr	r1, .L24+20
 418 0110 0020     		movs	r0, #0
 419 0112 FFF7FEFF 		bl	uart_write
 420              	.LVL47:
 421              	.L8:
 422              		.loc 1 237 5 is_stmt 0 view .LVU107
 423              	.LBE3:
 238:../../application/source/fobFirmware.c ****   }
 239:../../application/source/fobFirmware.c **** }
 424              		.loc 1 239 1 view .LVU108
 425 0116 16B0     		add	sp, sp, #88
 426              	.LCFI5:
 427              		.cfi_def_cfa_offset 16
 428              		@ sp needed
 429 0118 70BD     		pop	{r4, r5, r6, pc}
 430              	.LVL48:
 431              	.L25:
 432              		.loc 1 239 1 view .LVU109
 433 011a 00BF     		.align	2
 434              	.L24:
 435 011c 00000000 		.word	.LC2
 436 0120 18000000 		.word	.LC3
 437 0124 34000000 		.word	.LC4
 438 0128 50000000 		.word	.LC5
 439 012c 6C000000 		.word	.LC6
 440 0130 8C000000 		.word	.LC7
 441              		.cfi_endproc
 442              	.LFE5:
 444              		.section	.text.unlockCar,"ax",%progbits
 445              		.align	1
 446              		.global	unlockCar
 447              		.syntax unified
 448              		.thumb
 449              		.thumb_func
 450              		.fpu fpv4-sp-d16
 452              	unlockCar:
 453              	.LVL49:
 454              	.LFB6:
 240:../../application/source/fobFirmware.c **** 
 241:../../application/source/fobFirmware.c **** /**
 242:../../application/source/fobFirmware.c ****  * @brief Function that handles the fob unlocking a car
 243:../../application/source/fobFirmware.c ****  *
 244:../../application/source/fobFirmware.c ****  * @param fob_state_ram pointer to the current fob state in ram
 245:../../application/source/fobFirmware.c ****  */
ARM GAS  /tmp/ccVaGKXX.s 			page 14


 246:../../application/source/fobFirmware.c **** void unlockCar(FLASH_DATA *fob_state_ram)
 247:../../application/source/fobFirmware.c **** {
 455              		.loc 1 247 1 is_stmt 1 view -0
 456              		.cfi_startproc
 457              		@ args = 0, pretend = 0, frame = 8
 458              		@ frame_needed = 0, uses_anonymous_args = 0
 248:../../application/source/fobFirmware.c ****   if (fob_state_ram->paired == FLASH_PAIRED)
 459              		.loc 1 248 3 view .LVU111
 460              		.loc 1 248 20 is_stmt 0 view .LVU112
 461 0000 0378     		ldrb	r3, [r0]	@ zero_extendqisi2
 462              		.loc 1 248 6 view .LVU113
 463 0002 03B1     		cbz	r3, .L32
 464 0004 7047     		bx	lr
 465              	.L32:
 247:../../application/source/fobFirmware.c ****   if (fob_state_ram->paired == FLASH_PAIRED)
 466              		.loc 1 247 1 view .LVU114
 467 0006 00B5     		push	{lr}
 468              	.LCFI6:
 469              		.cfi_def_cfa_offset 4
 470              		.cfi_offset 14, -4
 471 0008 83B0     		sub	sp, sp, #12
 472              	.LCFI7:
 473              		.cfi_def_cfa_offset 16
 474              	.LBB6:
 249:../../application/source/fobFirmware.c ****   {
 250:../../application/source/fobFirmware.c ****     MESSAGE_PACKET message;
 475              		.loc 1 250 5 is_stmt 1 view .LVU115
 251:../../application/source/fobFirmware.c ****     message.message_len = 6;
 476              		.loc 1 251 5 view .LVU116
 477              		.loc 1 251 25 is_stmt 0 view .LVU117
 478 000a 0623     		movs	r3, #6
 479 000c 8DF80130 		strb	r3, [sp, #1]
 252:../../application/source/fobFirmware.c ****     message.magic = UNLOCK_MAGIC;
 480              		.loc 1 252 5 is_stmt 1 view .LVU118
 481              		.loc 1 252 19 is_stmt 0 view .LVU119
 482 0010 5623     		movs	r3, #86
 483 0012 8DF80030 		strb	r3, [sp]
 253:../../application/source/fobFirmware.c ****     message.buffer = fob_state_ram->pair_info.password;
 484              		.loc 1 253 5 is_stmt 1 view .LVU120
 485              		.loc 1 253 22 is_stmt 0 view .LVU121
 486 0016 0930     		adds	r0, r0, #9
 487              	.LVL50:
 488              		.loc 1 253 20 view .LVU122
 489 0018 0190     		str	r0, [sp, #4]
 254:../../application/source/fobFirmware.c **** 
 255:../../application/source/fobFirmware.c ****     send_board_message(&message);
 490              		.loc 1 255 5 is_stmt 1 view .LVU123
 491 001a 6846     		mov	r0, sp
 492              	.LVL51:
 493              		.loc 1 255 5 is_stmt 0 view .LVU124
 494 001c FFF7FEFF 		bl	send_board_message
 495              	.LVL52:
 496              		.loc 1 255 5 view .LVU125
 497              	.LBE6:
 256:../../application/source/fobFirmware.c ****   }
 257:../../application/source/fobFirmware.c **** }
 498              		.loc 1 257 1 view .LVU126
ARM GAS  /tmp/ccVaGKXX.s 			page 15


 499 0020 03B0     		add	sp, sp, #12
 500              	.LCFI8:
 501              		.cfi_def_cfa_offset 4
 502              		@ sp needed
 503 0022 5DF804FB 		ldr	pc, [sp], #4
 504              		.cfi_endproc
 505              	.LFE6:
 507              		.section	.text.startCar,"ax",%progbits
 508              		.align	1
 509              		.global	startCar
 510              		.syntax unified
 511              		.thumb
 512              		.thumb_func
 513              		.fpu fpv4-sp-d16
 515              	startCar:
 516              	.LVL53:
 517              	.LFB7:
 258:../../application/source/fobFirmware.c **** 
 259:../../application/source/fobFirmware.c **** /**
 260:../../application/source/fobFirmware.c ****  * @brief Function that handles the fob starting a car
 261:../../application/source/fobFirmware.c ****  *
 262:../../application/source/fobFirmware.c ****  * @param fob_state_ram pointer to the current fob state in ram
 263:../../application/source/fobFirmware.c ****  */
 264:../../application/source/fobFirmware.c **** void startCar(FLASH_DATA *fob_state_ram)
 265:../../application/source/fobFirmware.c **** {
 518              		.loc 1 265 1 is_stmt 1 view -0
 519              		.cfi_startproc
 520              		@ args = 0, pretend = 0, frame = 8
 521              		@ frame_needed = 0, uses_anonymous_args = 0
 266:../../application/source/fobFirmware.c ****   if (fob_state_ram->paired == FLASH_PAIRED)
 522              		.loc 1 266 3 view .LVU128
 523              		.loc 1 266 20 is_stmt 0 view .LVU129
 524 0000 0378     		ldrb	r3, [r0]	@ zero_extendqisi2
 525              		.loc 1 266 6 view .LVU130
 526 0002 03B1     		cbz	r3, .L39
 527 0004 7047     		bx	lr
 528              	.L39:
 265:../../application/source/fobFirmware.c ****   if (fob_state_ram->paired == FLASH_PAIRED)
 529              		.loc 1 265 1 view .LVU131
 530 0006 00B5     		push	{lr}
 531              	.LCFI9:
 532              		.cfi_def_cfa_offset 4
 533              		.cfi_offset 14, -4
 534 0008 83B0     		sub	sp, sp, #12
 535              	.LCFI10:
 536              		.cfi_def_cfa_offset 16
 537              	.LBB7:
 267:../../application/source/fobFirmware.c ****   {
 268:../../application/source/fobFirmware.c ****     MESSAGE_PACKET message;
 538              		.loc 1 268 5 is_stmt 1 view .LVU132
 269:../../application/source/fobFirmware.c ****     message.magic = START_MAGIC;
 539              		.loc 1 269 5 view .LVU133
 540              		.loc 1 269 19 is_stmt 0 view .LVU134
 541 000a 5723     		movs	r3, #87
 542 000c 8DF80030 		strb	r3, [sp]
 270:../../application/source/fobFirmware.c ****     message.message_len = sizeof(FEATURE_DATA);
 543              		.loc 1 270 5 is_stmt 1 view .LVU135
ARM GAS  /tmp/ccVaGKXX.s 			page 16


 544              		.loc 1 270 25 is_stmt 0 view .LVU136
 545 0010 0C23     		movs	r3, #12
 546 0012 8DF80130 		strb	r3, [sp, #1]
 271:../../application/source/fobFirmware.c ****     message.buffer = (uint8_t *)&fob_state_ram->feature_info;  
 547              		.loc 1 271 5 is_stmt 1 view .LVU137
 548              		.loc 1 271 33 is_stmt 0 view .LVU138
 549 0016 1930     		adds	r0, r0, #25
 550              	.LVL54:
 551              		.loc 1 271 20 view .LVU139
 552 0018 0190     		str	r0, [sp, #4]
 272:../../application/source/fobFirmware.c **** 
 273:../../application/source/fobFirmware.c ****     send_board_message(&message);
 553              		.loc 1 273 5 is_stmt 1 view .LVU140
 554 001a 6846     		mov	r0, sp
 555              	.LVL55:
 556              		.loc 1 273 5 is_stmt 0 view .LVU141
 557 001c FFF7FEFF 		bl	send_board_message
 558              	.LVL56:
 559              		.loc 1 273 5 view .LVU142
 560              	.LBE7:
 274:../../application/source/fobFirmware.c ****   }
 275:../../application/source/fobFirmware.c **** }
 561              		.loc 1 275 1 view .LVU143
 562 0020 03B0     		add	sp, sp, #12
 563              	.LCFI11:
 564              		.cfi_def_cfa_offset 4
 565              		@ sp needed
 566 0022 5DF804FB 		ldr	pc, [sp], #4
 567              		.cfi_endproc
 568              	.LFE7:
 570              		.section	.text.receiveAck,"ax",%progbits
 571              		.align	1
 572              		.global	receiveAck
 573              		.syntax unified
 574              		.thumb
 575              		.thumb_func
 576              		.fpu fpv4-sp-d16
 578              	receiveAck:
 579              	.LFB8:
 276:../../application/source/fobFirmware.c **** 
 277:../../application/source/fobFirmware.c **** /**
 278:../../application/source/fobFirmware.c ****  * @brief Function that receives an ack and returns whether ack was
 279:../../application/source/fobFirmware.c ****  * success/failure
 280:../../application/source/fobFirmware.c ****  *
 281:../../application/source/fobFirmware.c ****  * @return uint8_t Ack success/failure
 282:../../application/source/fobFirmware.c ****  */
 283:../../application/source/fobFirmware.c **** uint8_t receiveAck()
 284:../../application/source/fobFirmware.c **** {
 580              		.loc 1 284 1 is_stmt 1 view -0
 581              		.cfi_startproc
 582              		@ args = 0, pretend = 0, frame = 264
 583              		@ frame_needed = 0, uses_anonymous_args = 0
 584 0000 00B5     		push	{lr}
 585              	.LCFI12:
 586              		.cfi_def_cfa_offset 4
 587              		.cfi_offset 14, -4
 588 0002 C3B0     		sub	sp, sp, #268
ARM GAS  /tmp/ccVaGKXX.s 			page 17


 589              	.LCFI13:
 590              		.cfi_def_cfa_offset 272
 285:../../application/source/fobFirmware.c ****   MESSAGE_PACKET message;
 591              		.loc 1 285 3 view .LVU145
 286:../../application/source/fobFirmware.c ****   uint8_t buffer[255];
 592              		.loc 1 286 3 view .LVU146
 287:../../application/source/fobFirmware.c ****   message.buffer = buffer;
 593              		.loc 1 287 3 view .LVU147
 594              		.loc 1 287 18 is_stmt 0 view .LVU148
 595 0004 CDF804D1 		str	sp, [sp, #260]
 288:../../application/source/fobFirmware.c ****   receive_board_message_by_type(&message, ACK_MAGIC);
 596              		.loc 1 288 3 is_stmt 1 view .LVU149
 597 0008 5421     		movs	r1, #84
 598 000a 40A8     		add	r0, sp, #256
 599 000c FFF7FEFF 		bl	receive_board_message_by_type
 600              	.LVL57:
 289:../../application/source/fobFirmware.c **** 
 290:../../application/source/fobFirmware.c ****   return message.buffer[0];
 601              		.loc 1 290 3 view .LVU150
 291:../../application/source/fobFirmware.c **** }...
 602              		.loc 1 291 1 is_stmt 0 view .LVU151
 603 0010 419B     		ldr	r3, [sp, #260]
 604 0012 1878     		ldrb	r0, [r3]	@ zero_extendqisi2
 605 0014 43B0     		add	sp, sp, #268
 606              	.LCFI14:
 607              		.cfi_def_cfa_offset 4
 608              		@ sp needed
 609 0016 5DF804FB 		ldr	pc, [sp], #4
 610              		.cfi_endproc
 611              	.LFE8:
 613              		.section	.rodata.main.str1.4,"aMS",%progbits,1
 614              		.align	2
 615              	.LC8:
 616 0000 666F625F 		.ascii	"fob_state\000"
 616      73746174 
 616      6500
 617 000a 0000     		.align	2
 618              	.LC9:
 619 000c 756E6C6F 		.ascii	"unlock\000"
 619      636B00
 620 0013 00       		.align	2
 621              	.LC10:
 622 0014 31323334 		.ascii	"123456\000"
 622      353600
 623 001b 00       		.align	2
 624              	.LC11:
 625 001c 39383700 		.ascii	"987\000"
 626              		.align	2
 627              	.LC12:
 628 0020 656E6162 		.ascii	"enable\000"
 628      6C6500
 629 0027 00       		.align	2
 630              	.LC13:
 631 0028 70616972 		.ascii	"pair\000"
 631      00
 632              		.section	.text.main,"ax",%progbits
 633              		.align	1
ARM GAS  /tmp/ccVaGKXX.s 			page 18


 634              		.global	main
 635              		.syntax unified
 636              		.thumb
 637              		.thumb_func
 638              		.fpu fpv4-sp-d16
 640              	main:
 641              	.LVL58:
 642              	.LFB3:
  53:../../application/source/fobFirmware.c **** {
 643              		.loc 1 53 1 is_stmt 1 view -0
 644              		.cfi_startproc
 645              		@ args = 0, pretend = 0, frame = 56
 646              		@ frame_needed = 0, uses_anonymous_args = 0
  53:../../application/source/fobFirmware.c **** {
 647              		.loc 1 53 1 is_stmt 0 view .LVU153
 648 0000 10B5     		push	{r4, lr}
 649              	.LCFI15:
 650              		.cfi_def_cfa_offset 8
 651              		.cfi_offset 4, -8
 652              		.cfi_offset 14, -4
 653 0002 8EB0     		sub	sp, sp, #56
 654              	.LCFI16:
 655              		.cfi_def_cfa_offset 64
  54:../../application/source/fobFirmware.c ****   initHardware_fob(argc, argv);
 656              		.loc 1 54 3 is_stmt 1 view .LVU154
 657 0004 FFF7FEFF 		bl	initHardware_fob
 658              	.LVL59:
  56:../../application/source/fobFirmware.c ****   FLASH_DATA fob_state_ram;
 659              		.loc 1 56 3 view .LVU155
  59:../../application/source/fobFirmware.c ****   readVar((uint8_t*)(&fob_state_ram), "fob_state");
 660              		.loc 1 59 3 view .LVU156
 661 0008 3B49     		ldr	r1, .L57
 662 000a 04A8     		add	r0, sp, #16
 663 000c FFF7FEFF 		bl	readVar
 664              	.LVL60:
  64:../../application/source/fobFirmware.c ****   if (fob_state_ram.paired == FLASH_UNPAIRED)
 665              		.loc 1 64 3 view .LVU157
  64:../../application/source/fobFirmware.c ****   if (fob_state_ram.paired == FLASH_UNPAIRED)
 666              		.loc 1 64 20 is_stmt 0 view .LVU158
 667 0010 9DF81030 		ldrb	r3, [sp, #16]	@ zero_extendqisi2
  64:../../application/source/fobFirmware.c ****   if (fob_state_ram.paired == FLASH_UNPAIRED)
 668              		.loc 1 64 6 view .LVU159
 669 0014 FF2B     		cmp	r3, #255
 670 0016 18D0     		beq	.L52
 671              	.L43:
  86:../../application/source/fobFirmware.c ****   if (fob_state_ram.feature_info.num_active == 0xFF)
 672              		.loc 1 86 3 is_stmt 1 view .LVU160
  86:../../application/source/fobFirmware.c ****   if (fob_state_ram.feature_info.num_active == 0xFF)
 673              		.loc 1 86 33 is_stmt 0 view .LVU161
 674 0018 9DF83130 		ldrb	r3, [sp, #49]	@ zero_extendqisi2
  86:../../application/source/fobFirmware.c ****   if (fob_state_ram.feature_info.num_active == 0xFF)
 675              		.loc 1 86 6 view .LVU162
 676 001c FF2B     		cmp	r3, #255
 677 001e 35D0     		beq	.L53
 678              	.L44:
  53:../../application/source/fobFirmware.c **** {
 679              		.loc 1 53 1 view .LVU163
ARM GAS  /tmp/ccVaGKXX.s 			page 19


 680 0020 0024     		movs	r4, #0
 681              	.L45:
 682              	.LVL61:
  97:../../application/source/fobFirmware.c ****   while (true)
 683              		.loc 1 97 3 is_stmt 1 view .LVU164
 101:../../application/source/fobFirmware.c ****     if (uart_avail(HOST_UART))
 684              		.loc 1 101 5 view .LVU165
 101:../../application/source/fobFirmware.c ****     if (uart_avail(HOST_UART))
 685              		.loc 1 101 9 is_stmt 0 view .LVU166
 686 0022 0020     		movs	r0, #0
 687 0024 FFF7FEFF 		bl	uart_avail
 688              	.LVL62:
 101:../../application/source/fobFirmware.c ****     if (uart_avail(HOST_UART))
 689              		.loc 1 101 8 view .LVU167
 690 0028 0028     		cmp	r0, #0
 691 002a 36D1     		bne	.L54
 692              	.LVL63:
 693              	.L46:
 127:../../application/source/fobFirmware.c ****     if(buttonPressed())
 694              		.loc 1 127 5 is_stmt 1 view .LVU168
 127:../../application/source/fobFirmware.c ****     if(buttonPressed())
 695              		.loc 1 127 8 is_stmt 0 view .LVU169
 696 002c FFF7FEFF 		bl	buttonPressed
 697              	.LVL64:
 127:../../application/source/fobFirmware.c ****     if(buttonPressed())
 698              		.loc 1 127 7 view .LVU170
 699 0030 0028     		cmp	r0, #0
 700 0032 F6D0     		beq	.L45
 129:../../application/source/fobFirmware.c ****       unlockCar(&fob_state_ram);
 701              		.loc 1 129 7 is_stmt 1 view .LVU171
 702 0034 04A8     		add	r0, sp, #16
 703 0036 FFF7FEFF 		bl	unlockCar
 704              	.LVL65:
 130:../../application/source/fobFirmware.c ****       if (receiveAck())
 705              		.loc 1 130 7 view .LVU172
 130:../../application/source/fobFirmware.c ****       if (receiveAck())
 706              		.loc 1 130 11 is_stmt 0 view .LVU173
 707 003a FFF7FEFF 		bl	receiveAck
 708              	.LVL66:
 130:../../application/source/fobFirmware.c ****       if (receiveAck())
 709              		.loc 1 130 10 view .LVU174
 710 003e 0028     		cmp	r0, #0
 711 0040 EFD0     		beq	.L45
 132:../../application/source/fobFirmware.c ****         startCar(&fob_state_ram);
 712              		.loc 1 132 9 is_stmt 1 view .LVU175
 713 0042 04A8     		add	r0, sp, #16
 714 0044 FFF7FEFF 		bl	startCar
 715              	.LVL67:
 716 0048 EBE7     		b	.L45
 717              	.LVL68:
 718              	.L52:
  66:../../application/source/fobFirmware.c ****     strcpy((char *)(fob_state_ram.pair_info.password), PASSWORD);
 719              		.loc 1 66 5 view .LVU176
 720 004a 2C4B     		ldr	r3, .L57+4
 721 004c 1868     		ldr	r0, [r3]
 722 004e CDF81900 		str	r0, [sp, #25]	@ unaligned
 723 0052 9A88     		ldrh	r2, [r3, #4]	@ unaligned
ARM GAS  /tmp/ccVaGKXX.s 			page 20


 724 0054 9B79     		ldrb	r3, [r3, #6]	@ zero_extendqisi2
 725 0056 ADF81D20 		strh	r2, [sp, #29]	@ unaligned
 726 005a 8DF81F30 		strb	r3, [sp, #31]
  67:../../application/source/fobFirmware.c ****     strcpy((char *)(fob_state_ram.pair_info.pin), PAIR_PIN);
 727              		.loc 1 67 5 view .LVU177
 728 005e 284B     		ldr	r3, .L57+8
 729 0060 1868     		ldr	r0, [r3]
 730 0062 CDF82100 		str	r0, [sp, #33]	@ unaligned
 731 0066 9A88     		ldrh	r2, [r3, #4]	@ unaligned
 732 0068 9B79     		ldrb	r3, [r3, #6]	@ zero_extendqisi2
 733 006a ADF82520 		strh	r2, [sp, #37]	@ unaligned
 734 006e 8DF82730 		strb	r3, [sp, #39]
  68:../../application/source/fobFirmware.c ****     strcpy((char *)(fob_state_ram.pair_info.car_id), CAR_ID);
 735              		.loc 1 68 5 view .LVU178
 736 0072 244B     		ldr	r3, .L57+12
 737 0074 1868     		ldr	r0, [r3]
 738 0076 CDF81100 		str	r0, [sp, #17]	@ unaligned
  69:../../application/source/fobFirmware.c ****     strcpy((char *)(fob_state_ram.feature_info.car_id), CAR_ID);
 739              		.loc 1 69 5 view .LVU179
 740 007a CDF82900 		str	r0, [sp, #41]	@ unaligned
  70:../../application/source/fobFirmware.c ****     fob_state_ram.paired = FLASH_PAIRED;
 741              		.loc 1 70 5 view .LVU180
  70:../../application/source/fobFirmware.c ****     fob_state_ram.paired = FLASH_PAIRED;
 742              		.loc 1 70 26 is_stmt 0 view .LVU181
 743 007e 0023     		movs	r3, #0
 744 0080 8DF81030 		strb	r3, [sp, #16]
  72:../../application/source/fobFirmware.c ****     saveFobState(&fob_state_ram);
 745              		.loc 1 72 5 is_stmt 1 view .LVU182
 746 0084 04A8     		add	r0, sp, #16
 747 0086 FFF7FEFF 		bl	saveFobState
 748              	.LVL69:
 749 008a C5E7     		b	.L43
 750              	.L53:
  88:../../application/source/fobFirmware.c ****     fob_state_ram.feature_info.num_active = 0;
 751              		.loc 1 88 5 view .LVU183
  88:../../application/source/fobFirmware.c ****     fob_state_ram.feature_info.num_active = 0;
 752              		.loc 1 88 43 is_stmt 0 view .LVU184
 753 008c 0023     		movs	r3, #0
 754 008e 8DF83130 		strb	r3, [sp, #49]
  89:../../application/source/fobFirmware.c ****     saveFobState(&fob_state_ram);
 755              		.loc 1 89 5 is_stmt 1 view .LVU185
 756 0092 04A8     		add	r0, sp, #16
 757 0094 FFF7FEFF 		bl	saveFobState
 758              	.LVL70:
 759 0098 C2E7     		b	.L44
 760              	.LVL71:
 761              	.L54:
 762              	.LBB8:
 103:../../application/source/fobFirmware.c ****       uint8_t uart_char = (uint8_t)uart_readb(HOST_UART);
 763              		.loc 1 103 7 view .LVU186
 103:../../application/source/fobFirmware.c ****       uint8_t uart_char = (uint8_t)uart_readb(HOST_UART);
 764              		.loc 1 103 36 is_stmt 0 view .LVU187
 765 009a 0020     		movs	r0, #0
 766 009c FFF7FEFF 		bl	uart_readb
 767              	.LVL72:
 103:../../application/source/fobFirmware.c ****       uint8_t uart_char = (uint8_t)uart_readb(HOST_UART);
 768              		.loc 1 103 15 view .LVU188
ARM GAS  /tmp/ccVaGKXX.s 			page 21


 769 00a0 C0B2     		uxtb	r0, r0
 770              	.LVL73:
 105:../../application/source/fobFirmware.c ****       if ((uart_char != '\r') && (uart_char != '\n') && (uart_char != '\0') &&
 771              		.loc 1 105 7 is_stmt 1 view .LVU189
 105:../../application/source/fobFirmware.c ****       if ((uart_char != '\r') && (uart_char != '\n') && (uart_char != '\0') &&
 772              		.loc 1 105 10 is_stmt 0 view .LVU190
 773 00a2 0D28     		cmp	r0, #13
 774 00a4 0AD0     		beq	.L47
 105:../../application/source/fobFirmware.c ****       if ((uart_char != '\r') && (uart_char != '\n') && (uart_char != '\0') &&
 775              		.loc 1 105 31 discriminator 1 view .LVU191
 776 00a6 0A28     		cmp	r0, #10
 777 00a8 08D0     		beq	.L47
 105:../../application/source/fobFirmware.c ****       if ((uart_char != '\r') && (uart_char != '\n') && (uart_char != '\0') &&
 778              		.loc 1 105 54 discriminator 2 view .LVU192
 779 00aa 38B1     		cbz	r0, .L47
 108:../../application/source/fobFirmware.c ****         uart_buffer[uart_buffer_index] = uart_char;
 780              		.loc 1 108 9 is_stmt 1 view .LVU193
 108:../../application/source/fobFirmware.c ****         uart_buffer[uart_buffer_index] = uart_char;
 781              		.loc 1 108 40 is_stmt 0 view .LVU194
 782 00ac 04F13803 		add	r3, r4, #56
 783 00b0 6B44     		add	r3, sp, r3
 784 00b2 03F8340C 		strb	r0, [r3, #-52]
 109:../../application/source/fobFirmware.c ****         uart_buffer_index++;
 785              		.loc 1 109 9 is_stmt 1 view .LVU195
 109:../../application/source/fobFirmware.c ****         uart_buffer_index++;
 786              		.loc 1 109 26 is_stmt 0 view .LVU196
 787 00b6 0134     		adds	r4, r4, #1
 788              	.LVL74:
 109:../../application/source/fobFirmware.c ****         uart_buffer_index++;
 789              		.loc 1 109 26 view .LVU197
 790 00b8 E4B2     		uxtb	r4, r4
 791              	.LVL75:
 109:../../application/source/fobFirmware.c ****         uart_buffer_index++;
 792              		.loc 1 109 26 view .LVU198
 793 00ba B7E7     		b	.L46
 794              	.L47:
 113:../../application/source/fobFirmware.c ****         uart_buffer[uart_buffer_index] = 0x00;
 795              		.loc 1 113 9 is_stmt 1 view .LVU199
 113:../../application/source/fobFirmware.c ****         uart_buffer[uart_buffer_index] = 0x00;
 796              		.loc 1 113 40 is_stmt 0 view .LVU200
 797 00bc 04F13803 		add	r3, r4, #56
 798 00c0 0DEB0304 		add	r4, sp, r3
 799              	.LVL76:
 113:../../application/source/fobFirmware.c ****         uart_buffer[uart_buffer_index] = 0x00;
 800              		.loc 1 113 40 view .LVU201
 801 00c4 0023     		movs	r3, #0
 802 00c6 04F8343C 		strb	r3, [r4, #-52]
 114:../../application/source/fobFirmware.c ****         uart_buffer_index = 0;
 803              		.loc 1 114 9 is_stmt 1 view .LVU202
 804              	.LVL77:
 116:../../application/source/fobFirmware.c ****         if (!(strcmp((char *)uart_buffer, "enable")))
 805              		.loc 1 116 9 view .LVU203
 116:../../application/source/fobFirmware.c ****         if (!(strcmp((char *)uart_buffer, "enable")))
 806              		.loc 1 116 15 is_stmt 0 view .LVU204
 807 00ca 0F49     		ldr	r1, .L57+16
 808 00cc 01A8     		add	r0, sp, #4
 809              	.LVL78:
ARM GAS  /tmp/ccVaGKXX.s 			page 22


 116:../../application/source/fobFirmware.c ****         if (!(strcmp((char *)uart_buffer, "enable")))
 810              		.loc 1 116 15 view .LVU205
 811 00ce FFF7FEFF 		bl	strcmp
 812              	.LVL79:
 116:../../application/source/fobFirmware.c ****         if (!(strcmp((char *)uart_buffer, "enable")))
 813              		.loc 1 116 12 view .LVU206
 814 00d2 30B1     		cbz	r0, .L55
 120:../../application/source/fobFirmware.c ****         else if (!(strcmp((char *)uart_buffer, "pair")))
 815              		.loc 1 120 14 is_stmt 1 view .LVU207
 120:../../application/source/fobFirmware.c ****         else if (!(strcmp((char *)uart_buffer, "pair")))
 816              		.loc 1 120 20 is_stmt 0 view .LVU208
 817 00d4 0D49     		ldr	r1, .L57+20
 818 00d6 01A8     		add	r0, sp, #4
 819 00d8 FFF7FEFF 		bl	strcmp
 820              	.LVL80:
 120:../../application/source/fobFirmware.c ****         else if (!(strcmp((char *)uart_buffer, "pair")))
 821              		.loc 1 120 17 view .LVU209
 822 00dc 30B1     		cbz	r0, .L56
 114:../../application/source/fobFirmware.c ****         uart_buffer_index = 0;
 823              		.loc 1 114 27 view .LVU210
 824 00de 0024     		movs	r4, #0
 825 00e0 A4E7     		b	.L46
 826              	.L55:
 118:../../application/source/fobFirmware.c ****           enableFeature(&fob_state_ram);
 827              		.loc 1 118 11 is_stmt 1 view .LVU211
 828 00e2 04A8     		add	r0, sp, #16
 829 00e4 FFF7FEFF 		bl	enableFeature
 830              	.LVL81:
 114:../../application/source/fobFirmware.c ****         uart_buffer_index = 0;
 831              		.loc 1 114 27 is_stmt 0 view .LVU212
 832 00e8 0024     		movs	r4, #0
 833 00ea 9FE7     		b	.L46
 834              	.L56:
 122:../../application/source/fobFirmware.c ****           pairFob(&fob_state_ram);
 835              		.loc 1 122 11 is_stmt 1 view .LVU213
 836 00ec 04A8     		add	r0, sp, #16
 837 00ee FFF7FEFF 		bl	pairFob
 838              	.LVL82:
 114:../../application/source/fobFirmware.c ****         uart_buffer_index = 0;
 839              		.loc 1 114 27 is_stmt 0 view .LVU214
 840 00f2 0024     		movs	r4, #0
 841 00f4 9AE7     		b	.L46
 842              	.L58:
 843 00f6 00BF     		.align	2
 844              	.L57:
 845 00f8 00000000 		.word	.LC8
 846 00fc 0C000000 		.word	.LC9
 847 0100 14000000 		.word	.LC10
 848 0104 1C000000 		.word	.LC11
 849 0108 20000000 		.word	.LC12
 850 010c 28000000 		.word	.LC13
 851              	.LBE8:
 852              		.cfi_endproc
 853              	.LFE3:
 855              		.text
 856              	.Letext0:
 857              		.file 2 "/usr/lib/gcc/arm-none-eabi/10.3.1/include/stdint.h"
ARM GAS  /tmp/ccVaGKXX.s 			page 23


 858              		.file 3 "../../application/include/messages.h"
 859              		.file 4 "../../application/include/dataFormats.h"
 860              		.file 5 "/usr/include/newlib/string.h"
 861              		.file 6 "../include/uart.h"
 862              		.file 7 "/usr/include/newlib/stdio.h"
 863              		.file 8 "../include/platform.h"
 864              		.file 9 "<built-in>"
ARM GAS  /tmp/ccVaGKXX.s 			page 24


DEFINED SYMBOLS
                            *ABS*:0000000000000000 fobFirmware.c
     /tmp/ccVaGKXX.s:18     .rodata.pairFob.str1.4:0000000000000000 $d
     /tmp/ccVaGKXX.s:25     .text.pairFob:0000000000000000 $t
     /tmp/ccVaGKXX.s:33     .text.pairFob:0000000000000000 pairFob
     /tmp/ccVaGKXX.s:157    .text.pairFob:0000000000000074 $d
     /tmp/ccVaGKXX.s:163    .rodata.enableFeature.str1.4:0000000000000000 $d
     /tmp/ccVaGKXX.s:182    .text.enableFeature:0000000000000000 $t
     /tmp/ccVaGKXX.s:189    .text.enableFeature:0000000000000000 enableFeature
     /tmp/ccVaGKXX.s:435    .text.enableFeature:000000000000011c $d
     /tmp/ccVaGKXX.s:445    .text.unlockCar:0000000000000000 $t
     /tmp/ccVaGKXX.s:452    .text.unlockCar:0000000000000000 unlockCar
     /tmp/ccVaGKXX.s:508    .text.startCar:0000000000000000 $t
     /tmp/ccVaGKXX.s:515    .text.startCar:0000000000000000 startCar
     /tmp/ccVaGKXX.s:571    .text.receiveAck:0000000000000000 $t
     /tmp/ccVaGKXX.s:578    .text.receiveAck:0000000000000000 receiveAck
     /tmp/ccVaGKXX.s:614    .rodata.main.str1.4:0000000000000000 $d
     /tmp/ccVaGKXX.s:633    .text.main:0000000000000000 $t
     /tmp/ccVaGKXX.s:640    .text.main:0000000000000000 main
     /tmp/ccVaGKXX.s:845    .text.main:00000000000000f8 $d

UNDEFINED SYMBOLS
uart_write
uart_readline
strcmp
send_board_message
receive_board_message_by_type
strcpy
saveFobState
memset
strlen
sprintf
initHardware_fob
readVar
uart_avail
buttonPressed
uart_readb
