ARM GAS  /tmp/cctWg5YZ.s 			page 1


   1              		.cpu cortex-m4
   2              		.eabi_attribute 27, 1
   3              		.eabi_attribute 28, 1
   4              		.eabi_attribute 20, 1
   5              		.eabi_attribute 21, 1
   6              		.eabi_attribute 23, 3
   7              		.eabi_attribute 24, 1
   8              		.eabi_attribute 25, 1
   9              		.eabi_attribute 26, 1
  10              		.eabi_attribute 30, 1
  11              		.eabi_attribute 34, 1
  12              		.eabi_attribute 18, 4
  13              		.file	"messages.c"
  14              		.text
  15              	.Ltext0:
  16              		.cfi_sections	.debug_frame
  17              		.section	.text.send_board_message,"ax",%progbits
  18              		.align	1
  19              		.global	send_board_message
  20              		.arch armv7e-m
  21              		.syntax unified
  22              		.thumb
  23              		.thumb_func
  24              		.fpu fpv4-sp-d16
  26              	send_board_message:
  27              	.LVL0:
  28              	.LFB0:
  29              		.file 1 "../../application/source/messages.c"
   1:../../application/source/messages.c **** /**
   2:../../application/source/messages.c ****  * @file board_link.h
   3:../../application/source/messages.c ****  * @author Frederich Stine
   4:../../application/source/messages.c ****  * @brief Firmware UART interface implementation.
   5:../../application/source/messages.c ****  * @date 2023
   6:../../application/source/messages.c ****  *
   7:../../application/source/messages.c ****  * This source file is part of an example system for MITRE's 2023 Embedded
   8:../../application/source/messages.c ****  * System CTF (eCTF). This code is being provided only for educational purposes
   9:../../application/source/messages.c ****  * for the 2023 MITRE eCTF competition, and may not meet MITRE standards for
  10:../../application/source/messages.c ****  * quality. Use this code at your own risk!
  11:../../application/source/messages.c ****  *
  12:../../application/source/messages.c ****  * @copyright Copyright (c) 2023 The MITRE Corporation
  13:../../application/source/messages.c ****  */
  14:../../application/source/messages.c **** 
  15:../../application/source/messages.c **** #include <stdbool.h>
  16:../../application/source/messages.c **** #include <stdint.h>
  17:../../application/source/messages.c **** 
  18:../../application/source/messages.c **** #include "messages.h"
  19:../../application/source/messages.c **** #include "uart.h"
  20:../../application/source/messages.c **** 
  21:../../application/source/messages.c **** /**
  22:../../application/source/messages.c ****  * @brief Send a message between boards
  23:../../application/source/messages.c ****  *
  24:../../application/source/messages.c ****  * @param message pointer to message to send
  25:../../application/source/messages.c ****  * @return uint32_t the number of bytes sent
  26:../../application/source/messages.c ****  */
  27:../../application/source/messages.c **** uint32_t send_board_message(MESSAGE_PACKET *message)
  28:../../application/source/messages.c **** {
  30              		.loc 1 28 1 view -0
ARM GAS  /tmp/cctWg5YZ.s 			page 2


  31              		.cfi_startproc
  32              		@ args = 0, pretend = 0, frame = 0
  33              		@ frame_needed = 0, uses_anonymous_args = 0
  34              		.loc 1 28 1 is_stmt 0 view .LVU1
  35 0000 10B5     		push	{r4, lr}
  36              	.LCFI0:
  37              		.cfi_def_cfa_offset 8
  38              		.cfi_offset 4, -8
  39              		.cfi_offset 14, -4
  40 0002 0446     		mov	r4, r0
  29:../../application/source/messages.c ****   uart_writeb(BOARD_UART, message->magic);
  41              		.loc 1 29 3 is_stmt 1 view .LVU2
  42 0004 0178     		ldrb	r1, [r0]	@ zero_extendqisi2
  43 0006 0120     		movs	r0, #1
  44              	.LVL1:
  45              		.loc 1 29 3 is_stmt 0 view .LVU3
  46 0008 FFF7FEFF 		bl	uart_writeb
  47              	.LVL2:
  30:../../application/source/messages.c ****   uart_writeb(BOARD_UART, message->message_len);
  48              		.loc 1 30 3 is_stmt 1 view .LVU4
  49 000c 6178     		ldrb	r1, [r4, #1]	@ zero_extendqisi2
  50 000e 0120     		movs	r0, #1
  51 0010 FFF7FEFF 		bl	uart_writeb
  52              	.LVL3:
  31:../../application/source/messages.c ****   uart_write(BOARD_UART, message->buffer, message->message_len);
  53              		.loc 1 31 3 view .LVU5
  54 0014 6278     		ldrb	r2, [r4, #1]	@ zero_extendqisi2
  55 0016 6168     		ldr	r1, [r4, #4]
  56 0018 0120     		movs	r0, #1
  57 001a FFF7FEFF 		bl	uart_write
  58              	.LVL4:
  32:../../application/source/messages.c ****   return message->message_len;
  59              		.loc 1 32 3 view .LVU6
  33:../../application/source/messages.c **** }
  60              		.loc 1 33 1 is_stmt 0 view .LVU7
  61 001e 6078     		ldrb	r0, [r4, #1]	@ zero_extendqisi2
  62 0020 10BD     		pop	{r4, pc}
  63              		.loc 1 33 1 view .LVU8
  64              		.cfi_endproc
  65              	.LFE0:
  67              		.section	.text.receive_board_message,"ax",%progbits
  68              		.align	1
  69              		.global	receive_board_message
  70              		.syntax unified
  71              		.thumb
  72              		.thumb_func
  73              		.fpu fpv4-sp-d16
  75              	receive_board_message:
  76              	.LVL5:
  77              	.LFB1:
  34:../../application/source/messages.c **** 
  35:../../application/source/messages.c **** /**
  36:../../application/source/messages.c ****  * @brief Receive a message between boards
  37:../../application/source/messages.c ****  *
  38:../../application/source/messages.c ****  * @param message pointer to message where data will be received
  39:../../application/source/messages.c ****  * @return uint32_t the number of bytes received - 0 for error
  40:../../application/source/messages.c ****  */
ARM GAS  /tmp/cctWg5YZ.s 			page 3


  41:../../application/source/messages.c **** uint32_t receive_board_message(MESSAGE_PACKET *message)
  42:../../application/source/messages.c **** {
  78              		.loc 1 42 1 is_stmt 1 view -0
  79              		.cfi_startproc
  80              		@ args = 0, pretend = 0, frame = 0
  81              		@ frame_needed = 0, uses_anonymous_args = 0
  82              		.loc 1 42 1 is_stmt 0 view .LVU10
  83 0000 10B5     		push	{r4, lr}
  84              	.LCFI1:
  85              		.cfi_def_cfa_offset 8
  86              		.cfi_offset 4, -8
  87              		.cfi_offset 14, -4
  88 0002 0446     		mov	r4, r0
  43:../../application/source/messages.c ****   message->magic = (uint8_t)uart_readb(BOARD_UART);
  89              		.loc 1 43 3 is_stmt 1 view .LVU11
  90              		.loc 1 43 29 is_stmt 0 view .LVU12
  91 0004 0120     		movs	r0, #1
  92              	.LVL6:
  93              		.loc 1 43 29 view .LVU13
  94 0006 FFF7FEFF 		bl	uart_readb
  95              	.LVL7:
  96              		.loc 1 43 20 view .LVU14
  97 000a C0B2     		uxtb	r0, r0
  98              		.loc 1 43 18 view .LVU15
  99 000c 2070     		strb	r0, [r4]
  44:../../application/source/messages.c **** 
  45:../../application/source/messages.c ****   if (message->magic == 0) {
 100              		.loc 1 45 3 is_stmt 1 view .LVU16
 101              		.loc 1 45 6 is_stmt 0 view .LVU17
 102 000e 08B9     		cbnz	r0, .L7
  46:../../application/source/messages.c ****     return 0;
 103              		.loc 1 46 12 view .LVU18
 104 0010 0020     		movs	r0, #0
 105              	.L3:
  47:../../application/source/messages.c ****   }
  48:../../application/source/messages.c **** 
  49:../../application/source/messages.c ****   message->message_len = (uint8_t)uart_readb(BOARD_UART);
  50:../../application/source/messages.c ****   uart_read(BOARD_UART, message->buffer, message->message_len);
  51:../../application/source/messages.c ****   
  52:../../application/source/messages.c ****   return message->message_len;
  53:../../application/source/messages.c **** }
 106              		.loc 1 53 1 view .LVU19
 107 0012 10BD     		pop	{r4, pc}
 108              	.LVL8:
 109              	.L7:
  49:../../application/source/messages.c ****   uart_read(BOARD_UART, message->buffer, message->message_len);
 110              		.loc 1 49 3 is_stmt 1 view .LVU20
  49:../../application/source/messages.c ****   uart_read(BOARD_UART, message->buffer, message->message_len);
 111              		.loc 1 49 35 is_stmt 0 view .LVU21
 112 0014 0120     		movs	r0, #1
 113 0016 FFF7FEFF 		bl	uart_readb
 114              	.LVL9:
  49:../../application/source/messages.c ****   uart_read(BOARD_UART, message->buffer, message->message_len);
 115              		.loc 1 49 26 view .LVU22
 116 001a C2B2     		uxtb	r2, r0
  49:../../application/source/messages.c ****   uart_read(BOARD_UART, message->buffer, message->message_len);
 117              		.loc 1 49 24 view .LVU23
ARM GAS  /tmp/cctWg5YZ.s 			page 4


 118 001c 6270     		strb	r2, [r4, #1]
  50:../../application/source/messages.c ****   
 119              		.loc 1 50 3 is_stmt 1 view .LVU24
 120 001e 6168     		ldr	r1, [r4, #4]
 121 0020 0120     		movs	r0, #1
 122 0022 FFF7FEFF 		bl	uart_read
 123              	.LVL10:
  52:../../application/source/messages.c **** }
 124              		.loc 1 52 3 view .LVU25
  52:../../application/source/messages.c **** }
 125              		.loc 1 52 17 is_stmt 0 view .LVU26
 126 0026 6078     		ldrb	r0, [r4, #1]	@ zero_extendqisi2
 127 0028 F3E7     		b	.L3
 128              		.cfi_endproc
 129              	.LFE1:
 131              		.section	.text.receive_board_message_by_type,"ax",%progbits
 132              		.align	1
 133              		.global	receive_board_message_by_type
 134              		.syntax unified
 135              		.thumb
 136              		.thumb_func
 137              		.fpu fpv4-sp-d16
 139              	receive_board_message_by_type:
 140              	.LVL11:
 141              	.LFB2:
  54:../../application/source/messages.c **** 
  55:../../application/source/messages.c **** /**
  56:../../application/source/messages.c ****  * @brief Function that retreives messages until the specified message is found
  57:../../application/source/messages.c ****  *
  58:../../application/source/messages.c ****  * @param message pointer to message where data will be received
  59:../../application/source/messages.c ****  * @param type the type of message to receive
  60:../../application/source/messages.c ****  * @return uint32_t the number of bytes received
  61:../../application/source/messages.c ****  */
  62:../../application/source/messages.c **** uint32_t receive_board_message_by_type(MESSAGE_PACKET *message, uint8_t type) {
 142              		.loc 1 62 79 is_stmt 1 view -0
 143              		.cfi_startproc
 144              		@ args = 0, pretend = 0, frame = 0
 145              		@ frame_needed = 0, uses_anonymous_args = 0
 146              		.loc 1 62 79 is_stmt 0 view .LVU28
 147 0000 38B5     		push	{r3, r4, r5, lr}
 148              	.LCFI2:
 149              		.cfi_def_cfa_offset 16
 150              		.cfi_offset 3, -16
 151              		.cfi_offset 4, -12
 152              		.cfi_offset 5, -8
 153              		.cfi_offset 14, -4
 154 0002 0446     		mov	r4, r0
 155 0004 0D46     		mov	r5, r1
 156              	.LVL12:
 157              	.L9:
  63:../../application/source/messages.c ****   do {
 158              		.loc 1 63 3 is_stmt 1 discriminator 1 view .LVU29
  64:../../application/source/messages.c ****     receive_board_message(message);
 159              		.loc 1 64 5 discriminator 1 view .LVU30
 160 0006 2046     		mov	r0, r4
 161 0008 FFF7FEFF 		bl	receive_board_message
 162              	.LVL13:
ARM GAS  /tmp/cctWg5YZ.s 			page 5


  65:../../application/source/messages.c ****   } while (message->magic != type);
 163              		.loc 1 65 11 discriminator 1 view .LVU31
 164              		.loc 1 65 19 is_stmt 0 discriminator 1 view .LVU32
 165 000c 2378     		ldrb	r3, [r4]	@ zero_extendqisi2
 166              		.loc 1 65 3 discriminator 1 view .LVU33
 167 000e AB42     		cmp	r3, r5
 168 0010 F9D1     		bne	.L9
  66:../../application/source/messages.c **** 
  67:../../application/source/messages.c ****   return message->message_len;
 169              		.loc 1 67 3 is_stmt 1 view .LVU34
  68:../../application/source/messages.c **** }
 170              		.loc 1 68 1 is_stmt 0 view .LVU35
 171 0012 6078     		ldrb	r0, [r4, #1]	@ zero_extendqisi2
 172 0014 38BD     		pop	{r3, r4, r5, pc}
 173              		.loc 1 68 1 view .LVU36
 174              		.cfi_endproc
 175              	.LFE2:
 177              		.text
 178              	.Letext0:
 179              		.file 2 "/usr/lib/gcc/arm-none-eabi/10.3.1/include/stdint.h"
 180              		.file 3 "../../application/include/messages.h"
 181              		.file 4 "../include/uart.h"
ARM GAS  /tmp/cctWg5YZ.s 			page 6

