ARM GAS  /tmp/ccFrNnBM.s 			page 1


   1              		.cpu cortex-m4
   2              		.eabi_attribute 27, 1
   3              		.eabi_attribute 28, 1
   4              		.eabi_attribute 20, 1
   5              		.eabi_attribute 21, 1
   6              		.eabi_attribute 23, 3
   7              		.eabi_attribute 24, 1
   8              		.eabi_attribute 25, 1
   9              		.eabi_attribute 26, 1
  10              		.eabi_attribute 30, 1
  11              		.eabi_attribute 34, 1
  12              		.eabi_attribute 18, 4
  13              		.file	"carFirmware.c"
  14              		.section	.rodata.str1.4,"aMS",%progbits,1
  15              		.align	2
  16              	.LC1:
  17 0000 66656174 		.ascii	"feature1\000"
  17      75726531 
  17      00
  18 0009 000000   		.align	2
  19              	.LC2:
  20 000c 66656174 		.ascii	"feature2\000"
  20      75726532 
  20      00
  21 0015 000000   		.align	2
  22              	.LC3:
  23 0018 66656174 		.ascii	"feature3\000"
  23      75726533 
  23      00
  24              		.text
  25              	.Ltext0:
  26              		.cfi_sections	.debug_frame
  27              		.section	.text.startCar,"ax",%progbits
  28              		.align	1
  29              		.global	startCar
  30              		.arch armv7e-m
  31              		.syntax unified
  32              		.thumb
  33              		.thumb_func
  34              		.fpu fpv4-sp-d16
  36              	startCar:
  37              	.LFB5:
  38              		.file 1 "../../application/source/carFirmware.c"
   1:../../application/source/carFirmware.c **** /**
   2:../../application/source/carFirmware.c ****  * @file main.c
   3:../../application/source/carFirmware.c ****  * @author Frederich Stine
   4:../../application/source/carFirmware.c ****  * @brief eCTF Car Example Design Implementation
   5:../../application/source/carFirmware.c ****  * @date 2023
   6:../../application/source/carFirmware.c ****  *
   7:../../application/source/carFirmware.c ****  * This source file is part of an example system for MITRE's 2023 Embedded
   8:../../application/source/carFirmware.c ****  * System CTF (eCTF). This code is being provided only for educational purposes
   9:../../application/source/carFirmware.c ****  * for the 2023 MITRE eCTF competition, and may not meet MITRE standards for
  10:../../application/source/carFirmware.c ****  * quality. Use this code at your own risk!
  11:../../application/source/carFirmware.c ****  *
  12:../../application/source/carFirmware.c ****  * @copyright Copyright (c) 2023 The MITRE Corporation
  13:../../application/source/carFirmware.c ****  */
  14:../../application/source/carFirmware.c **** 
ARM GAS  /tmp/ccFrNnBM.s 			page 2


  15:../../application/source/carFirmware.c **** #include <stdbool.h>
  16:../../application/source/carFirmware.c **** #include <stdint.h>
  17:../../application/source/carFirmware.c **** #include <string.h>
  18:../../application/source/carFirmware.c **** #include <stdio.h>
  19:../../application/source/carFirmware.c **** 
  20:../../application/source/carFirmware.c **** #include "secrets.h"
  21:../../application/source/carFirmware.c **** #include "messages.h"
  22:../../application/source/carFirmware.c **** #include "dataFormats.h"
  23:../../application/source/carFirmware.c **** #include "uart.h"
  24:../../application/source/carFirmware.c **** #include "platform.h"
  25:../../application/source/carFirmware.c **** 
  26:../../application/source/carFirmware.c **** /*** Function definitions ***/
  27:../../application/source/carFirmware.c **** // Core functions - unlockCar and startCar
  28:../../application/source/carFirmware.c **** void unlockCar(void);
  29:../../application/source/carFirmware.c **** void startCar(void);
  30:../../application/source/carFirmware.c **** 
  31:../../application/source/carFirmware.c **** // Helper functions - sending ack messages
  32:../../application/source/carFirmware.c **** void sendAckSuccess(void);
  33:../../application/source/carFirmware.c **** void sendAckFailure(void);
  34:../../application/source/carFirmware.c **** 
  35:../../application/source/carFirmware.c **** // Declare password
  36:../../application/source/carFirmware.c **** const uint8_t pass[] = PASSWORD;
  37:../../application/source/carFirmware.c **** const uint8_t car_id[] = CAR_ID;
  38:../../application/source/carFirmware.c **** 
  39:../../application/source/carFirmware.c **** /**
  40:../../application/source/carFirmware.c ****  * @brief Main function for the car example
  41:../../application/source/carFirmware.c ****  *
  42:../../application/source/carFirmware.c ****  * Initializes the RF module and waits for a successful unlock attempt.
  43:../../application/source/carFirmware.c ****  * If successful prints out the unlock flag.
  44:../../application/source/carFirmware.c ****  */
  45:../../application/source/carFirmware.c **** int main(int argc, char ** argv) {
  46:../../application/source/carFirmware.c ****   initHardware_car(argc, argv);
  47:../../application/source/carFirmware.c **** 
  48:../../application/source/carFirmware.c ****   while (true) {
  49:../../application/source/carFirmware.c **** 
  50:../../application/source/carFirmware.c ****     unlockCar();
  51:../../application/source/carFirmware.c ****   }
  52:../../application/source/carFirmware.c **** }
  53:../../application/source/carFirmware.c **** 
  54:../../application/source/carFirmware.c **** /**
  55:../../application/source/carFirmware.c ****  * @brief Function that handles unlocking of car
  56:../../application/source/carFirmware.c ****  */
  57:../../application/source/carFirmware.c **** void unlockCar(void) {
  58:../../application/source/carFirmware.c ****   // Create a message struct variable for receiving data
  59:../../application/source/carFirmware.c ****   MESSAGE_PACKET message;
  60:../../application/source/carFirmware.c ****   uint8_t buffer[256];
  61:../../application/source/carFirmware.c ****   message.buffer = buffer;
  62:../../application/source/carFirmware.c **** 
  63:../../application/source/carFirmware.c ****   // Receive packet with some error checking
  64:../../application/source/carFirmware.c ****   receive_board_message_by_type(&message, UNLOCK_MAGIC);
  65:../../application/source/carFirmware.c **** 
  66:../../application/source/carFirmware.c ****   // Pad payload to a string
  67:../../application/source/carFirmware.c ****   message.buffer[message.message_len] = 0;
  68:../../application/source/carFirmware.c **** 
  69:../../application/source/carFirmware.c ****   // If the data transfer is the password, unlock
  70:../../application/source/carFirmware.c ****   // ***ERROR HERE?? The password portion of buffer isn't nul-terminated; won't strcmp not work?
  71:../../application/source/carFirmware.c ****   if (!strcmp((char *)(message.buffer), (char *)pass)) {
ARM GAS  /tmp/ccFrNnBM.s 			page 3


  72:../../application/source/carFirmware.c ****     uint8_t eeprom_message[UNLOCK_SIZE];
  73:../../application/source/carFirmware.c ****     // Read last 64B of EEPROM
  74:../../application/source/carFirmware.c ****     readVar(eeprom_message, "unlock");
  75:../../application/source/carFirmware.c **** 
  76:../../application/source/carFirmware.c ****     // Write out full flag if applicable
  77:../../application/source/carFirmware.c ****     uart_write(HOST_UART, eeprom_message, UNLOCK_SIZE);
  78:../../application/source/carFirmware.c **** 
  79:../../application/source/carFirmware.c ****     sendAckSuccess();
  80:../../application/source/carFirmware.c **** 
  81:../../application/source/carFirmware.c ****     startCar();
  82:../../application/source/carFirmware.c ****   } else {
  83:../../application/source/carFirmware.c ****     sendAckFailure();
  84:../../application/source/carFirmware.c ****   }
  85:../../application/source/carFirmware.c **** }
  86:../../application/source/carFirmware.c **** 
  87:../../application/source/carFirmware.c **** /**
  88:../../application/source/carFirmware.c ****  * @brief Function that handles starting of car - feature list
  89:../../application/source/carFirmware.c ****  */
  90:../../application/source/carFirmware.c **** void startCar(void) {
  39              		.loc 1 90 21 view -0
  40              		.cfi_startproc
  41              		@ args = 0, pretend = 0, frame = 344
  42              		@ frame_needed = 0, uses_anonymous_args = 0
  43 0000 10B5     		push	{r4, lr}
  44              	.LCFI0:
  45              		.cfi_def_cfa_offset 8
  46              		.cfi_offset 4, -8
  47              		.cfi_offset 14, -4
  48 0002 D6B0     		sub	sp, sp, #344
  49              	.LCFI1:
  50              		.cfi_def_cfa_offset 352
  91:../../application/source/carFirmware.c ****   // Create a message struct variable for receiving data
  92:../../application/source/carFirmware.c ****   MESSAGE_PACKET message;
  51              		.loc 1 92 3 view .LVU1
  93:../../application/source/carFirmware.c ****   uint8_t buffer[256];
  52              		.loc 1 93 3 view .LVU2
  94:../../application/source/carFirmware.c ****   message.buffer = buffer;
  53              		.loc 1 94 3 view .LVU3
  54              		.loc 1 94 18 is_stmt 0 view .LVU4
  55 0004 14AC     		add	r4, sp, #80
  56 0006 5594     		str	r4, [sp, #340]
  95:../../application/source/carFirmware.c **** 
  96:../../application/source/carFirmware.c ****   // Receive start message
  97:../../application/source/carFirmware.c ****   receive_board_message_by_type(&message, START_MAGIC);
  57              		.loc 1 97 3 is_stmt 1 view .LVU5
  58 0008 5721     		movs	r1, #87
  59 000a 54A8     		add	r0, sp, #336
  60 000c FFF7FEFF 		bl	receive_board_message_by_type
  61              	.LVL0:
  98:../../application/source/carFirmware.c **** 
  99:../../application/source/carFirmware.c ****   FEATURE_DATA *feature_info = (FEATURE_DATA *)buffer;
  62              		.loc 1 99 3 view .LVU6
 100:../../application/source/carFirmware.c **** 
 101:../../application/source/carFirmware.c ****   // Verify correct car id
 102:../../application/source/carFirmware.c ****   // ***SAME ERROR HERE???
 103:../../application/source/carFirmware.c ****   if (strcmp((char *)car_id, (char *)feature_info->car_id)) {
  63              		.loc 1 103 3 view .LVU7
ARM GAS  /tmp/ccFrNnBM.s 			page 4


  64              		.loc 1 103 7 is_stmt 0 view .LVU8
  65 0010 2146     		mov	r1, r4
  66 0012 1148     		ldr	r0, .L6
  67 0014 FFF7FEFF 		bl	strcmp
  68              	.LVL1:
  69              		.loc 1 103 6 view .LVU9
  70 0018 0446     		mov	r4, r0
  71              	.LVL2:
  72              		.loc 1 103 6 view .LVU10
  73 001a 98B1     		cbz	r0, .L2
  74 001c 19E0     		b	.L1
  75              	.LVL3:
  76              	.L4:
  77              	.LBB2:
  78              	.LBB3:
 104:../../application/source/carFirmware.c ****     return;
 105:../../application/source/carFirmware.c ****   }
 106:../../application/source/carFirmware.c **** 
 107:../../application/source/carFirmware.c ****   // Print out features for all active features
 108:../../application/source/carFirmware.c ****   for (int i = 0; i < feature_info->num_active; i++) {
 109:../../application/source/carFirmware.c ****     uint8_t eeprom_message[64];
  79              		.loc 1 109 5 is_stmt 1 discriminator 3 view .LVU11
 110:../../application/source/carFirmware.c ****     char* featureNumToStr[] = { "\0", "feature1", "feature2", "feature3" };
  80              		.loc 1 110 5 discriminator 3 view .LVU12
  81              		.loc 1 110 11 is_stmt 0 discriminator 3 view .LVU13
  82 001e EC46     		mov	ip, sp
  83 0020 0E4B     		ldr	r3, .L6+4
  84 0022 0FCB     		ldm	r3, {r0, r1, r2, r3}
  85 0024 8CE80F00 		stm	ip, {r0, r1, r2, r3}
 111:../../application/source/carFirmware.c **** 
 112:../../application/source/carFirmware.c ****     uint8_t featureNum = feature_info->features[i];
  86              		.loc 1 112 5 is_stmt 1 discriminator 3 view .LVU14
  87              		.loc 1 112 13 is_stmt 0 discriminator 3 view .LVU15
  88 0028 14AB     		add	r3, sp, #80
  89              	.LVL4:
  90              		.loc 1 112 13 discriminator 3 view .LVU16
  91 002a 2344     		add	r3, r3, r4
  92              	.LVL5:
  93              		.loc 1 112 13 discriminator 3 view .LVU17
  94 002c 5B7A     		ldrb	r3, [r3, #9]	@ zero_extendqisi2
  95              	.LVL6:
 113:../../application/source/carFirmware.c ****     readVar(eeprom_message, featureNumToStr[featureNum]);
  96              		.loc 1 113 5 is_stmt 1 discriminator 3 view .LVU18
  97 002e 5CF82310 		ldr	r1, [ip, r3, lsl #2]
  98 0032 04A8     		add	r0, sp, #16
  99 0034 FFF7FEFF 		bl	readVar
 100              	.LVL7:
 114:../../application/source/carFirmware.c **** 
 115:../../application/source/carFirmware.c ****     uart_write(HOST_UART, eeprom_message, FEATURE_SIZE);
 101              		.loc 1 115 5 discriminator 3 view .LVU19
 102 0038 4022     		movs	r2, #64
 103 003a 04A9     		add	r1, sp, #16
 104 003c 0020     		movs	r0, #0
 105 003e FFF7FEFF 		bl	uart_write
 106              	.LVL8:
 107              	.LBE3:
 108:../../application/source/carFirmware.c ****     uint8_t eeprom_message[64];
ARM GAS  /tmp/ccFrNnBM.s 			page 5


 108              		.loc 1 108 49 discriminator 3 view .LVU20
 108:../../application/source/carFirmware.c ****     uint8_t eeprom_message[64];
 109              		.loc 1 108 50 is_stmt 0 discriminator 3 view .LVU21
 110 0042 0134     		adds	r4, r4, #1
 111              	.LVL9:
 112              	.L2:
 108:../../application/source/carFirmware.c ****     uint8_t eeprom_message[64];
 113              		.loc 1 108 19 is_stmt 1 discriminator 1 view .LVU22
 108:../../application/source/carFirmware.c ****     uint8_t eeprom_message[64];
 114              		.loc 1 108 35 is_stmt 0 discriminator 1 view .LVU23
 115 0044 9DF85830 		ldrb	r3, [sp, #88]	@ zero_extendqisi2
 108:../../application/source/carFirmware.c ****     uint8_t eeprom_message[64];
 116              		.loc 1 108 3 discriminator 1 view .LVU24
 117 0048 A342     		cmp	r3, r4
 118 004a E8DC     		bgt	.L4
 119              	.LBE2:
 116:../../application/source/carFirmware.c ****   }
 117:../../application/source/carFirmware.c **** 
 118:../../application/source/carFirmware.c ****   // Change LED color: green
 119:../../application/source/carFirmware.c ****   setLED(GREEN);
 120              		.loc 1 119 3 is_stmt 1 view .LVU25
 121 004c 0220     		movs	r0, #2
 122 004e FFF7FEFF 		bl	setLED
 123              	.LVL10:
 124              	.L1:
 120:../../application/source/carFirmware.c **** }
 125              		.loc 1 120 1 is_stmt 0 view .LVU26
 126 0052 56B0     		add	sp, sp, #344
 127              	.LCFI2:
 128              		.cfi_def_cfa_offset 8
 129              		@ sp needed
 130 0054 10BD     		pop	{r4, pc}
 131              	.LVL11:
 132              	.L7:
 133              		.loc 1 120 1 view .LVU27
 134 0056 00BF     		.align	2
 135              	.L6:
 136 0058 00000000 		.word	.LANCHOR0
 137 005c 04000000 		.word	.LANCHOR1+4
 138              		.cfi_endproc
 139              	.LFE5:
 141              		.section	.text.sendAckSuccess,"ax",%progbits
 142              		.align	1
 143              		.global	sendAckSuccess
 144              		.syntax unified
 145              		.thumb
 146              		.thumb_func
 147              		.fpu fpv4-sp-d16
 149              	sendAckSuccess:
 150              	.LFB6:
 121:../../application/source/carFirmware.c **** 
 122:../../application/source/carFirmware.c **** /**
 123:../../application/source/carFirmware.c ****  * @brief Function to send successful ACK message
 124:../../application/source/carFirmware.c ****  */
 125:../../application/source/carFirmware.c **** void sendAckSuccess(void) {
 151              		.loc 1 125 27 is_stmt 1 view -0
 152              		.cfi_startproc
ARM GAS  /tmp/ccFrNnBM.s 			page 6


 153              		@ args = 0, pretend = 0, frame = 16
 154              		@ frame_needed = 0, uses_anonymous_args = 0
 155 0000 00B5     		push	{lr}
 156              	.LCFI3:
 157              		.cfi_def_cfa_offset 4
 158              		.cfi_offset 14, -4
 159 0002 85B0     		sub	sp, sp, #20
 160              	.LCFI4:
 161              		.cfi_def_cfa_offset 24
 126:../../application/source/carFirmware.c ****   // Create packet for successful ack and send
 127:../../application/source/carFirmware.c ****   MESSAGE_PACKET message;
 162              		.loc 1 127 3 view .LVU29
 128:../../application/source/carFirmware.c **** 
 129:../../application/source/carFirmware.c ****   uint8_t buffer[1];
 163              		.loc 1 129 3 view .LVU30
 130:../../application/source/carFirmware.c ****   message.buffer = buffer;
 164              		.loc 1 130 3 view .LVU31
 165              		.loc 1 130 18 is_stmt 0 view .LVU32
 166 0004 01AB     		add	r3, sp, #4
 167 0006 0393     		str	r3, [sp, #12]
 131:../../application/source/carFirmware.c ****   message.magic = ACK_MAGIC;
 168              		.loc 1 131 3 is_stmt 1 view .LVU33
 169              		.loc 1 131 17 is_stmt 0 view .LVU34
 170 0008 5423     		movs	r3, #84
 171 000a 8DF80830 		strb	r3, [sp, #8]
 132:../../application/source/carFirmware.c ****   buffer[0] = ACK_SUCCESS;
 172              		.loc 1 132 3 is_stmt 1 view .LVU35
 173              		.loc 1 132 13 is_stmt 0 view .LVU36
 174 000e 0123     		movs	r3, #1
 175 0010 8DF80430 		strb	r3, [sp, #4]
 133:../../application/source/carFirmware.c ****   message.message_len = 1;
 176              		.loc 1 133 3 is_stmt 1 view .LVU37
 177              		.loc 1 133 23 is_stmt 0 view .LVU38
 178 0014 8DF80930 		strb	r3, [sp, #9]
 134:../../application/source/carFirmware.c **** 
 135:../../application/source/carFirmware.c ****   send_board_message(&message);
 179              		.loc 1 135 3 is_stmt 1 view .LVU39
 180 0018 02A8     		add	r0, sp, #8
 181 001a FFF7FEFF 		bl	send_board_message
 182              	.LVL12:
 136:../../application/source/carFirmware.c **** }
 183              		.loc 1 136 1 is_stmt 0 view .LVU40
 184 001e 05B0     		add	sp, sp, #20
 185              	.LCFI5:
 186              		.cfi_def_cfa_offset 4
 187              		@ sp needed
 188 0020 5DF804FB 		ldr	pc, [sp], #4
 189              		.cfi_endproc
 190              	.LFE6:
 192              		.section	.text.sendAckFailure,"ax",%progbits
 193              		.align	1
 194              		.global	sendAckFailure
 195              		.syntax unified
 196              		.thumb
 197              		.thumb_func
 198              		.fpu fpv4-sp-d16
 200              	sendAckFailure:
ARM GAS  /tmp/ccFrNnBM.s 			page 7


 201              	.LFB7:
 137:../../application/source/carFirmware.c **** 
 138:../../application/source/carFirmware.c **** /**
 139:../../application/source/carFirmware.c ****  * @brief Function to send unsuccessful ACK message
 140:../../application/source/carFirmware.c ****  */
 141:../../application/source/carFirmware.c **** void sendAckFailure(void) {
 202              		.loc 1 141 27 is_stmt 1 view -0
 203              		.cfi_startproc
 204              		@ args = 0, pretend = 0, frame = 16
 205              		@ frame_needed = 0, uses_anonymous_args = 0
 206 0000 00B5     		push	{lr}
 207              	.LCFI6:
 208              		.cfi_def_cfa_offset 4
 209              		.cfi_offset 14, -4
 210 0002 85B0     		sub	sp, sp, #20
 211              	.LCFI7:
 212              		.cfi_def_cfa_offset 24
 142:../../application/source/carFirmware.c ****   // Create packet for unsuccessful ack and send
 143:../../application/source/carFirmware.c ****   MESSAGE_PACKET message;
 213              		.loc 1 143 3 view .LVU42
 144:../../application/source/carFirmware.c **** 
 145:../../application/source/carFirmware.c ****   uint8_t buffer[1];
 214              		.loc 1 145 3 view .LVU43
 146:../../application/source/carFirmware.c ****   message.buffer = buffer;
 215              		.loc 1 146 3 view .LVU44
 216              		.loc 1 146 18 is_stmt 0 view .LVU45
 217 0004 01AB     		add	r3, sp, #4
 218 0006 0393     		str	r3, [sp, #12]
 147:../../application/source/carFirmware.c ****   message.magic = ACK_MAGIC;
 219              		.loc 1 147 3 is_stmt 1 view .LVU46
 220              		.loc 1 147 17 is_stmt 0 view .LVU47
 221 0008 5423     		movs	r3, #84
 222 000a 8DF80830 		strb	r3, [sp, #8]
 148:../../application/source/carFirmware.c ****   buffer[0] = ACK_FAIL;
 223              		.loc 1 148 3 is_stmt 1 view .LVU48
 224              		.loc 1 148 13 is_stmt 0 view .LVU49
 225 000e 0023     		movs	r3, #0
 226 0010 8DF80430 		strb	r3, [sp, #4]
 149:../../application/source/carFirmware.c ****   message.message_len = 1;
 227              		.loc 1 149 3 is_stmt 1 view .LVU50
 228              		.loc 1 149 23 is_stmt 0 view .LVU51
 229 0014 0123     		movs	r3, #1
 230 0016 8DF80930 		strb	r3, [sp, #9]
 150:../../application/source/carFirmware.c **** 
 151:../../application/source/carFirmware.c ****   send_board_message(&message);
 231              		.loc 1 151 3 is_stmt 1 view .LVU52
 232 001a 02A8     		add	r0, sp, #8
 233 001c FFF7FEFF 		bl	send_board_message
 234              	.LVL13:
 152:../../application/source/carFirmware.c **** }
 235              		.loc 1 152 1 is_stmt 0 view .LVU53
 236 0020 05B0     		add	sp, sp, #20
 237              	.LCFI8:
 238              		.cfi_def_cfa_offset 4
 239              		@ sp needed
 240 0022 5DF804FB 		ldr	pc, [sp], #4
 241              		.cfi_endproc
ARM GAS  /tmp/ccFrNnBM.s 			page 8


 242              	.LFE7:
 244              		.section	.rodata.unlockCar.str1.4,"aMS",%progbits,1
 245              		.align	2
 246              	.LC6:
 247 0000 756E6C6F 		.ascii	"unlock\000"
 247      636B00
 248              		.section	.text.unlockCar,"ax",%progbits
 249              		.align	1
 250              		.global	unlockCar
 251              		.syntax unified
 252              		.thumb
 253              		.thumb_func
 254              		.fpu fpv4-sp-d16
 256              	unlockCar:
 257              	.LFB4:
  57:../../application/source/carFirmware.c ****   // Create a message struct variable for receiving data
 258              		.loc 1 57 22 is_stmt 1 view -0
 259              		.cfi_startproc
 260              		@ args = 0, pretend = 0, frame = 328
 261              		@ frame_needed = 0, uses_anonymous_args = 0
 262 0000 00B5     		push	{lr}
 263              	.LCFI9:
 264              		.cfi_def_cfa_offset 4
 265              		.cfi_offset 14, -4
 266 0002 D3B0     		sub	sp, sp, #332
 267              	.LCFI10:
 268              		.cfi_def_cfa_offset 336
  59:../../application/source/carFirmware.c ****   uint8_t buffer[256];
 269              		.loc 1 59 3 view .LVU55
  60:../../application/source/carFirmware.c ****   message.buffer = buffer;
 270              		.loc 1 60 3 view .LVU56
  61:../../application/source/carFirmware.c **** 
 271              		.loc 1 61 3 view .LVU57
  61:../../application/source/carFirmware.c **** 
 272              		.loc 1 61 18 is_stmt 0 view .LVU58
 273 0004 10AB     		add	r3, sp, #64
 274 0006 5193     		str	r3, [sp, #324]
  64:../../application/source/carFirmware.c **** 
 275              		.loc 1 64 3 is_stmt 1 view .LVU59
 276 0008 5621     		movs	r1, #86
 277 000a 50A8     		add	r0, sp, #320
 278 000c FFF7FEFF 		bl	receive_board_message_by_type
 279              	.LVL14:
  67:../../application/source/carFirmware.c **** 
 280              		.loc 1 67 3 view .LVU60
  67:../../application/source/carFirmware.c **** 
 281              		.loc 1 67 25 is_stmt 0 view .LVU61
 282 0010 9DF84131 		ldrb	r3, [sp, #321]	@ zero_extendqisi2
  67:../../application/source/carFirmware.c **** 
 283              		.loc 1 67 39 view .LVU62
 284 0014 519A     		ldr	r2, [sp, #324]
 285 0016 0021     		movs	r1, #0
 286 0018 D154     		strb	r1, [r2, r3]
  71:../../application/source/carFirmware.c ****     uint8_t eeprom_message[UNLOCK_SIZE];
 287              		.loc 1 71 3 is_stmt 1 view .LVU63
  71:../../application/source/carFirmware.c ****     uint8_t eeprom_message[UNLOCK_SIZE];
 288              		.loc 1 71 8 is_stmt 0 view .LVU64
ARM GAS  /tmp/ccFrNnBM.s 			page 9


 289 001a 0C49     		ldr	r1, .L16
 290 001c 5198     		ldr	r0, [sp, #324]
 291 001e FFF7FEFF 		bl	strcmp
 292              	.LVL15:
  71:../../application/source/carFirmware.c ****     uint8_t eeprom_message[UNLOCK_SIZE];
 293              		.loc 1 71 6 view .LVU65
 294 0022 78B9     		cbnz	r0, .L13
 295              	.LBB4:
  72:../../application/source/carFirmware.c ****     // Read last 64B of EEPROM
 296              		.loc 1 72 5 is_stmt 1 view .LVU66
  74:../../application/source/carFirmware.c **** 
 297              		.loc 1 74 5 view .LVU67
 298 0024 0A49     		ldr	r1, .L16+4
 299 0026 6846     		mov	r0, sp
 300 0028 FFF7FEFF 		bl	readVar
 301              	.LVL16:
  77:../../application/source/carFirmware.c **** 
 302              		.loc 1 77 5 view .LVU68
 303 002c 4022     		movs	r2, #64
 304 002e 6946     		mov	r1, sp
 305 0030 0020     		movs	r0, #0
 306 0032 FFF7FEFF 		bl	uart_write
 307              	.LVL17:
  79:../../application/source/carFirmware.c **** 
 308              		.loc 1 79 5 view .LVU69
 309 0036 FFF7FEFF 		bl	sendAckSuccess
 310              	.LVL18:
  81:../../application/source/carFirmware.c ****   } else {
 311              		.loc 1 81 5 view .LVU70
 312 003a FFF7FEFF 		bl	startCar
 313              	.LVL19:
 314              	.L12:
 315              	.LBE4:
  85:../../application/source/carFirmware.c **** 
 316              		.loc 1 85 1 is_stmt 0 view .LVU71
 317 003e 53B0     		add	sp, sp, #332
 318              	.LCFI11:
 319              		.cfi_remember_state
 320              		.cfi_def_cfa_offset 4
 321              		@ sp needed
 322 0040 5DF804FB 		ldr	pc, [sp], #4
 323              	.L13:
 324              	.LCFI12:
 325              		.cfi_restore_state
  83:../../application/source/carFirmware.c ****   }
 326              		.loc 1 83 5 is_stmt 1 view .LVU72
 327 0044 FFF7FEFF 		bl	sendAckFailure
 328              	.LVL20:
  85:../../application/source/carFirmware.c **** 
 329              		.loc 1 85 1 is_stmt 0 view .LVU73
 330 0048 F9E7     		b	.L12
 331              	.L17:
 332 004a 00BF     		.align	2
 333              	.L16:
 334 004c 00000000 		.word	.LANCHOR2
 335 0050 00000000 		.word	.LC6
 336              		.cfi_endproc
ARM GAS  /tmp/ccFrNnBM.s 			page 10


 337              	.LFE4:
 339              		.section	.text.main,"ax",%progbits
 340              		.align	1
 341              		.global	main
 342              		.syntax unified
 343              		.thumb
 344              		.thumb_func
 345              		.fpu fpv4-sp-d16
 347              	main:
 348              	.LVL21:
 349              	.LFB3:
  45:../../application/source/carFirmware.c ****   initHardware_car(argc, argv);
 350              		.loc 1 45 34 is_stmt 1 view -0
 351              		.cfi_startproc
 352              		@ Volatile: function does not return.
 353              		@ args = 0, pretend = 0, frame = 0
 354              		@ frame_needed = 0, uses_anonymous_args = 0
  45:../../application/source/carFirmware.c ****   initHardware_car(argc, argv);
 355              		.loc 1 45 34 is_stmt 0 view .LVU75
 356 0000 08B5     		push	{r3, lr}
 357              	.LCFI13:
 358              		.cfi_def_cfa_offset 8
 359              		.cfi_offset 3, -8
 360              		.cfi_offset 14, -4
  46:../../application/source/carFirmware.c **** 
 361              		.loc 1 46 3 is_stmt 1 view .LVU76
 362 0002 FFF7FEFF 		bl	initHardware_car
 363              	.LVL22:
 364              	.L19:
  48:../../application/source/carFirmware.c **** 
 365              		.loc 1 48 3 discriminator 1 view .LVU77
  50:../../application/source/carFirmware.c ****   }
 366              		.loc 1 50 5 discriminator 1 view .LVU78
 367 0006 FFF7FEFF 		bl	unlockCar
 368              	.LVL23:
  48:../../application/source/carFirmware.c **** 
 369              		.loc 1 48 9 discriminator 1 view .LVU79
 370 000a FCE7     		b	.L19
 371              		.cfi_endproc
 372              	.LFE3:
 374              		.global	car_id
 375              		.global	pass
 376              		.section	.rodata
 377              		.align	2
 378              		.set	.LANCHOR1,. + 0
 379              	.LC0:
 380 0000 0000     		.ascii	"\000\000"
 381 0002 0000     		.space	2
 382              	.LC5:
 383 0004 00000000 		.word	.LC0
 384 0008 00000000 		.word	.LC1
 385 000c 0C000000 		.word	.LC2
 386 0010 18000000 		.word	.LC3
 387              		.section	.rodata.car_id,"a"
 388              		.align	2
 389              		.set	.LANCHOR0,. + 0
 392              	car_id:
ARM GAS  /tmp/ccFrNnBM.s 			page 11


 393 0000 31323334 		.ascii	"1234\000"
 393      00
 394              		.section	.rodata.pass,"a"
 395              		.align	2
 396              		.set	.LANCHOR2,. + 0
 399              	pass:
 400 0000 756E6C6F 		.ascii	"unlock\000"
 400      636B00
 401              		.text
 402              	.Letext0:
 403              		.file 2 "../../application/include/messages.h"
 404              		.file 3 "/usr/lib/gcc/arm-none-eabi/10.3.1/include/stdint.h"
 405              		.file 4 "../../application/include/dataFormats.h"
 406              		.file 5 "../include/uart.h"
 407              		.file 6 "../include/platform.h"
 408              		.file 7 "/usr/include/newlib/string.h"
ARM GAS  /tmp/ccFrNnBM.s 			page 12

