ARM GAS  /tmp/cc8nHYuQ.s 			page 1


   1              		.cpu cortex-m4
   2              		.eabi_attribute 27, 1
   3              		.eabi_attribute 28, 1
   4              		.eabi_attribute 20, 1
   5              		.eabi_attribute 21, 1
   6              		.eabi_attribute 23, 3
   7              		.eabi_attribute 24, 1
   8              		.eabi_attribute 25, 1
   9              		.eabi_attribute 26, 1
  10              		.eabi_attribute 30, 1
  11              		.eabi_attribute 34, 1
  12              		.eabi_attribute 18, 4
  13              		.file	"main.c"
  14              		.text
  15              	.Ltext0:
  16              		.cfi_sections	.debug_frame
  17              		.section	.text.get_flash_sector,"ax",%progbits
  18              		.align	1
  19              		.arch armv7e-m
  20              		.syntax unified
  21              		.thumb
  22              		.thumb_func
  23              		.fpu fpv4-sp-d16
  25              	get_flash_sector:
  26              	.LVL0:
  27              	.LFB141:
  28              		.file 1 "Core/Src/main.c"
   1:Core/Src/main.c **** /* USER CODE BEGIN Header */
   2:Core/Src/main.c **** /**
   3:Core/Src/main.c ****   ******************************************************************************
   4:Core/Src/main.c ****   * @file           : main.c
   5:Core/Src/main.c ****   * @brief          : Main program body
   6:Core/Src/main.c ****   ******************************************************************************
   7:Core/Src/main.c ****   * @attention
   8:Core/Src/main.c ****   *
   9:Core/Src/main.c ****   * Copyright (c) 2026 STMicroelectronics.
  10:Core/Src/main.c ****   * All rights reserved.
  11:Core/Src/main.c ****   *
  12:Core/Src/main.c ****   * This software is licensed under terms that can be found in the LICENSE file
  13:Core/Src/main.c ****   * in the root directory of this software component.
  14:Core/Src/main.c ****   * If no LICENSE file comes with this software, it is provided AS-IS.
  15:Core/Src/main.c ****   *
  16:Core/Src/main.c ****   ******************************************************************************
  17:Core/Src/main.c ****   */
  18:Core/Src/main.c **** /* USER CODE END Header */
  19:Core/Src/main.c **** /* Includes ------------------------------------------------------------------*/
  20:Core/Src/main.c **** #include "main.h"
  21:Core/Src/main.c **** 
  22:Core/Src/main.c **** /* Private includes ----------------------------------------------------------*/
  23:Core/Src/main.c **** /* USER CODE BEGIN Includes */
  24:Core/Src/main.c **** #include <string.h>
  25:Core/Src/main.c **** #include <stdio.h>
  26:Core/Src/main.c **** #include "messages.h"
  27:Core/Src/main.c **** #include "platform.h"
  28:Core/Src/main.c **** #include "dataFormats.h"
  29:Core/Src/main.c **** #include "uart.h"
  30:Core/Src/main.c **** /* USER CODE END Includes */
ARM GAS  /tmp/cc8nHYuQ.s 			page 2


  31:Core/Src/main.c **** 
  32:Core/Src/main.c **** /* Private typedef -----------------------------------------------------------*/
  33:Core/Src/main.c **** /* USER CODE BEGIN PTD */
  34:Core/Src/main.c **** 
  35:Core/Src/main.c **** /* USER CODE END PTD */
  36:Core/Src/main.c **** 
  37:Core/Src/main.c **** /* Private define ------------------------------------------------------------*/
  38:Core/Src/main.c **** /* USER CODE BEGIN PD */
  39:Core/Src/main.c **** #ifndef UNLOCK_FLAG
  40:Core/Src/main.c **** #define UNLOCK_FLAG   "default_unlock"
  41:Core/Src/main.c **** #endif
  42:Core/Src/main.c **** #ifndef FEATURE1_FLAG
  43:Core/Src/main.c **** #define FEATURE1_FLAG "default_feature1"
  44:Core/Src/main.c **** #endif
  45:Core/Src/main.c **** #ifndef FEATURE2_FLAG
  46:Core/Src/main.c **** #define FEATURE2_FLAG "default_feature2"
  47:Core/Src/main.c **** #endif
  48:Core/Src/main.c **** #ifndef FEATURE3_FLAG
  49:Core/Src/main.c **** #define FEATURE3_FLAG "default_feature3"
  50:Core/Src/main.c **** #endif
  51:Core/Src/main.c **** 
  52:Core/Src/main.c **** #define FLASH_DATA_BYTES         \
  53:Core/Src/main.c ****   (sizeof(FLASH_DATA) % 4 == 0) \
  54:Core/Src/main.c ****       ? sizeof(FLASH_DATA)      \
  55:Core/Src/main.c ****       : sizeof(FLASH_DATA) + (4 - (sizeof(FLASH_DATA) % 4))
  56:Core/Src/main.c **** #define FLASH_DATA_WORDS (FLASH_DATA_BYTES / 4)
  57:Core/Src/main.c **** /* USER CODE END PD */
  58:Core/Src/main.c **** 
  59:Core/Src/main.c **** /* Private macro -------------------------------------------------------------*/
  60:Core/Src/main.c **** /* USER CODE BEGIN PM */
  61:Core/Src/main.c **** 
  62:Core/Src/main.c **** /* USER CODE END PM */
  63:Core/Src/main.c **** 
  64:Core/Src/main.c **** /* Private variables ---------------------------------------------------------*/
  65:Core/Src/main.c **** UART_HandleTypeDef huart1;
  66:Core/Src/main.c **** UART_HandleTypeDef huart2;
  67:Core/Src/main.c **** 
  68:Core/Src/main.c **** /* USER CODE BEGIN PV */
  69:Core/Src/main.c **** const char unlock_flag[UNLOCK_SIZE]    = UNLOCK_FLAG;
  70:Core/Src/main.c **** const char feature1_flag[FEATURE_SIZE] = FEATURE1_FLAG;
  71:Core/Src/main.c **** const char feature2_flag[FEATURE_SIZE] = FEATURE2_FLAG;
  72:Core/Src/main.c **** const char feature3_flag[FEATURE_SIZE] = FEATURE3_FLAG;
  73:Core/Src/main.c **** 
  74:Core/Src/main.c **** FLASH_DATA flash_data __attribute__((section(".flash_data"))) = {
  75:Core/Src/main.c ****     .paired = FLASH_UNPAIRED,
  76:Core/Src/main.c ****     .pair_info = {{0}},
  77:Core/Src/main.c ****     .feature_info = {
  78:Core/Src/main.c ****         .car_id = {0},
  79:Core/Src/main.c ****         .num_active = 0xFF,
  80:Core/Src/main.c ****         .features = {0}
  81:Core/Src/main.c ****     }
  82:Core/Src/main.c **** };
  83:Core/Src/main.c **** 
  84:Core/Src/main.c **** extern uint8_t __flash_data_start__;
  85:Core/Src/main.c **** 
  86:Core/Src/main.c **** static UART_HandleTypeDef* const uart_base[2] = { [HOST_UART] = &huart2, [BOARD_UART] = &huart1 };
  87:Core/Src/main.c **** /* USER CODE END PV */
ARM GAS  /tmp/cc8nHYuQ.s 			page 3


  88:Core/Src/main.c **** 
  89:Core/Src/main.c **** /* Private function prototypes -----------------------------------------------*/
  90:Core/Src/main.c **** void SystemClock_Config(void);
  91:Core/Src/main.c **** static void MX_GPIO_Init(void);
  92:Core/Src/main.c **** static void MX_USART1_UART_Init(void);
  93:Core/Src/main.c **** static void MX_USART2_UART_Init(void);
  94:Core/Src/main.c **** /* USER CODE BEGIN PFP */
  95:Core/Src/main.c **** 
  96:Core/Src/main.c **** /* USER CODE END PFP */
  97:Core/Src/main.c **** 
  98:Core/Src/main.c **** /* Private user code ---------------------------------------------------------*/
  99:Core/Src/main.c **** /* USER CODE BEGIN 0 */
 100:Core/Src/main.c **** static void initHardware(int argc, char ** argv)
 101:Core/Src/main.c **** {
 102:Core/Src/main.c ****   /* Reset of all peripherals, Initializes the Flash interface and the Systick. */
 103:Core/Src/main.c ****   HAL_Init();
 104:Core/Src/main.c **** 
 105:Core/Src/main.c ****   /* Configure the system clock */
 106:Core/Src/main.c ****   SystemClock_Config();
 107:Core/Src/main.c **** 
 108:Core/Src/main.c ****   /* Initialize all configured peripherals */
 109:Core/Src/main.c ****   MX_GPIO_Init();
 110:Core/Src/main.c ****   
 111:Core/Src/main.c ****   //setup_board_link();
 112:Core/Src/main.c ****   uart_init(BOARD_UART);
 113:Core/Src/main.c ****   //uart_init();
 114:Core/Src/main.c ****   uart_init(HOST_UART);
 115:Core/Src/main.c **** 
 116:Core/Src/main.c ****   setLED(OFF);
 117:Core/Src/main.c **** }
 118:Core/Src/main.c **** 
 119:Core/Src/main.c **** void initHardware_car(int argc, char ** argv)
 120:Core/Src/main.c **** {
 121:Core/Src/main.c ****   initHardware(argc, argv);
 122:Core/Src/main.c **** }
 123:Core/Src/main.c **** 
 124:Core/Src/main.c **** void initHardware_fob(int argc, char ** argv)
 125:Core/Src/main.c **** {
 126:Core/Src/main.c ****   initHardware(argc, argv);
 127:Core/Src/main.c **** }
 128:Core/Src/main.c **** 
 129:Core/Src/main.c **** void readVar(uint8_t* dest, char * var)
 130:Core/Src/main.c **** {
 131:Core/Src/main.c ****   if(!strcmp(var, "unlock")) memcpy(dest, unlock_flag, UNLOCK_SIZE);
 132:Core/Src/main.c ****   else if(!strcmp(var, "feature1")) memcpy(dest, feature1_flag, FEATURE_SIZE);
 133:Core/Src/main.c ****   else if(!strcmp(var, "feature2")) memcpy(dest, feature2_flag, FEATURE_SIZE);
 134:Core/Src/main.c ****   else if(!strcmp(var, "feature3")) memcpy(dest, feature3_flag, FEATURE_SIZE);
 135:Core/Src/main.c ****   else if(!strcmp(var, "fob_state")) memcpy(dest, (uint8_t*)(&flash_data), sizeof(FLASH_DATA));
 136:Core/Src/main.c **** }
 137:Core/Src/main.c **** 
 138:Core/Src/main.c **** /* -----------------------------------------------------------
 139:Core/Src/main.c ****    Flash Sector Helper (F411 Example)
 140:Core/Src/main.c ****    ----------------------------------------------------------- */
 141:Core/Src/main.c **** static uint32_t get_flash_sector(uint32_t addr)
 142:Core/Src/main.c **** {
  29              		.loc 1 142 1 view -0
  30              		.cfi_startproc
ARM GAS  /tmp/cc8nHYuQ.s 			page 4


  31              		@ args = 0, pretend = 0, frame = 0
  32              		@ frame_needed = 0, uses_anonymous_args = 0
  33              		@ link register save eliminated.
 143:Core/Src/main.c ****   if (addr < 0x08004000) return FLASH_SECTOR_0;
  34              		.loc 1 143 3 view .LVU1
  35              		.loc 1 143 6 is_stmt 0 view .LVU2
  36 0000 144B     		ldr	r3, .L10
  37 0002 9842     		cmp	r0, r3
  38 0004 18D3     		bcc	.L3
 144:Core/Src/main.c ****   if (addr < 0x08008000) return FLASH_SECTOR_1;
  39              		.loc 1 144 3 is_stmt 1 view .LVU3
  40              		.loc 1 144 6 is_stmt 0 view .LVU4
  41 0006 03F58043 		add	r3, r3, #16384
  42 000a 9842     		cmp	r0, r3
  43 000c 16D3     		bcc	.L4
 145:Core/Src/main.c ****   if (addr < 0x0800C000) return FLASH_SECTOR_2;
  44              		.loc 1 145 3 is_stmt 1 view .LVU5
  45              		.loc 1 145 6 is_stmt 0 view .LVU6
  46 000e 03F58043 		add	r3, r3, #16384
  47 0012 9842     		cmp	r0, r3
  48 0014 14D3     		bcc	.L5
 146:Core/Src/main.c ****   if (addr < 0x08010000) return FLASH_SECTOR_3;
  49              		.loc 1 146 3 is_stmt 1 view .LVU7
  50              		.loc 1 146 6 is_stmt 0 view .LVU8
  51 0016 104B     		ldr	r3, .L10+4
  52 0018 9842     		cmp	r0, r3
  53 001a 13D9     		bls	.L6
 147:Core/Src/main.c ****   if (addr < 0x08020000) return FLASH_SECTOR_4;
  54              		.loc 1 147 3 is_stmt 1 view .LVU9
  55              		.loc 1 147 6 is_stmt 0 view .LVU10
  56 001c 03F58033 		add	r3, r3, #65536
  57 0020 9842     		cmp	r0, r3
  58 0022 11D9     		bls	.L7
 148:Core/Src/main.c ****   if (addr < 0x08040000) return FLASH_SECTOR_5;
  59              		.loc 1 148 3 is_stmt 1 view .LVU11
  60              		.loc 1 148 6 is_stmt 0 view .LVU12
  61 0024 03F50033 		add	r3, r3, #131072
  62 0028 9842     		cmp	r0, r3
  63 002a 0FD9     		bls	.L8
 149:Core/Src/main.c ****   if (addr < 0x08060000) return FLASH_SECTOR_6;
  64              		.loc 1 149 3 is_stmt 1 view .LVU13
  65              		.loc 1 149 6 is_stmt 0 view .LVU14
  66 002c 03F50033 		add	r3, r3, #131072
  67 0030 9842     		cmp	r0, r3
  68 0032 0DD9     		bls	.L9
 150:Core/Src/main.c ****   return FLASH_SECTOR_7;
  69              		.loc 1 150 10 view .LVU15
  70 0034 0720     		movs	r0, #7
  71              	.LVL1:
  72              		.loc 1 150 10 view .LVU16
  73 0036 7047     		bx	lr
  74              	.LVL2:
  75              	.L3:
 143:Core/Src/main.c ****   if (addr < 0x08008000) return FLASH_SECTOR_1;
  76              		.loc 1 143 33 view .LVU17
  77 0038 0020     		movs	r0, #0
  78              	.LVL3:
ARM GAS  /tmp/cc8nHYuQ.s 			page 5


 143:Core/Src/main.c ****   if (addr < 0x08008000) return FLASH_SECTOR_1;
  79              		.loc 1 143 33 view .LVU18
  80 003a 7047     		bx	lr
  81              	.LVL4:
  82              	.L4:
 144:Core/Src/main.c ****   if (addr < 0x0800C000) return FLASH_SECTOR_2;
  83              		.loc 1 144 33 view .LVU19
  84 003c 0120     		movs	r0, #1
  85              	.LVL5:
 144:Core/Src/main.c ****   if (addr < 0x0800C000) return FLASH_SECTOR_2;
  86              		.loc 1 144 33 view .LVU20
  87 003e 7047     		bx	lr
  88              	.LVL6:
  89              	.L5:
 145:Core/Src/main.c ****   if (addr < 0x08010000) return FLASH_SECTOR_3;
  90              		.loc 1 145 33 view .LVU21
  91 0040 0220     		movs	r0, #2
  92              	.LVL7:
 145:Core/Src/main.c ****   if (addr < 0x08010000) return FLASH_SECTOR_3;
  93              		.loc 1 145 33 view .LVU22
  94 0042 7047     		bx	lr
  95              	.LVL8:
  96              	.L6:
 146:Core/Src/main.c ****   if (addr < 0x08020000) return FLASH_SECTOR_4;
  97              		.loc 1 146 33 view .LVU23
  98 0044 0320     		movs	r0, #3
  99              	.LVL9:
 146:Core/Src/main.c ****   if (addr < 0x08020000) return FLASH_SECTOR_4;
 100              		.loc 1 146 33 view .LVU24
 101 0046 7047     		bx	lr
 102              	.LVL10:
 103              	.L7:
 147:Core/Src/main.c ****   if (addr < 0x08040000) return FLASH_SECTOR_5;
 104              		.loc 1 147 33 view .LVU25
 105 0048 0420     		movs	r0, #4
 106              	.LVL11:
 147:Core/Src/main.c ****   if (addr < 0x08040000) return FLASH_SECTOR_5;
 107              		.loc 1 147 33 view .LVU26
 108 004a 7047     		bx	lr
 109              	.LVL12:
 110              	.L8:
 148:Core/Src/main.c ****   if (addr < 0x08060000) return FLASH_SECTOR_6;
 111              		.loc 1 148 33 view .LVU27
 112 004c 0520     		movs	r0, #5
 113              	.LVL13:
 148:Core/Src/main.c ****   if (addr < 0x08060000) return FLASH_SECTOR_6;
 114              		.loc 1 148 33 view .LVU28
 115 004e 7047     		bx	lr
 116              	.LVL14:
 117              	.L9:
 149:Core/Src/main.c ****   return FLASH_SECTOR_7;
 118              		.loc 1 149 33 view .LVU29
 119 0050 0620     		movs	r0, #6
 120              	.LVL15:
 151:Core/Src/main.c **** }
 121              		.loc 1 151 1 view .LVU30
 122 0052 7047     		bx	lr
ARM GAS  /tmp/cc8nHYuQ.s 			page 6


 123              	.L11:
 124              		.align	2
 125              	.L10:
 126 0054 00400008 		.word	134234112
 127 0058 FFFF0008 		.word	134283263
 128              		.cfi_endproc
 129              	.LFE141:
 131              		.section	.text.MX_GPIO_Init,"ax",%progbits
 132              		.align	1
 133              		.syntax unified
 134              		.thumb
 135              		.thumb_func
 136              		.fpu fpv4-sp-d16
 138              	MX_GPIO_Init:
 139              	.LFB155:
 152:Core/Src/main.c **** 
 153:Core/Src/main.c **** /* -----------------------------------------------------------
 154:Core/Src/main.c ****    Config Flash Write (Overwrite Whole Sector)
 155:Core/Src/main.c ****    ----------------------------------------------------------- */
 156:Core/Src/main.c **** bool saveFobState(const FLASH_DATA *src)
 157:Core/Src/main.c **** {
 158:Core/Src/main.c ****   uint32_t base = (uint32_t)&__flash_data_start__;
 159:Core/Src/main.c ****   
 160:Core/Src/main.c ****   // Erase the sector that holds .config_flash
 161:Core/Src/main.c ****   uint32_t sector = get_flash_sector(base);
 162:Core/Src/main.c **** 
 163:Core/Src/main.c ****   FLASH_EraseInitTypeDef erase =
 164:Core/Src/main.c ****   {
 165:Core/Src/main.c ****       .TypeErase    = FLASH_TYPEERASE_SECTORS,
 166:Core/Src/main.c ****       .Sector       = sector,
 167:Core/Src/main.c ****       .NbSectors    = 1,
 168:Core/Src/main.c ****       .VoltageRange = FLASH_VOLTAGE_RANGE_3,
 169:Core/Src/main.c ****   };
 170:Core/Src/main.c **** 
 171:Core/Src/main.c ****   uint8_t padded_data[FLASH_DATA_BYTES];
 172:Core/Src/main.c ****   memset(padded_data, 0xFF, sizeof(padded_data));
 173:Core/Src/main.c ****   memcpy((FLASH_DATA*)(&padded_data), src, sizeof(FLASH_DATA));
 174:Core/Src/main.c **** 
 175:Core/Src/main.c ****   uint32_t sector_err = 0;
 176:Core/Src/main.c ****   HAL_FLASH_Unlock();
 177:Core/Src/main.c **** 
 178:Core/Src/main.c ****   if (HAL_FLASHEx_Erase(&erase, &sector_err) != HAL_OK)
 179:Core/Src/main.c ****   {
 180:Core/Src/main.c ****       HAL_FLASH_Lock();
 181:Core/Src/main.c ****       return false;
 182:Core/Src/main.c ****   }
 183:Core/Src/main.c **** 
 184:Core/Src/main.c ****   // Program new config data
 185:Core/Src/main.c ****   const uint32_t *words = (const uint32_t *)padded_data;
 186:Core/Src/main.c ****   uint32_t addr = base;
 187:Core/Src/main.c **** 
 188:Core/Src/main.c ****   for (size_t i = 0; i < FLASH_DATA_WORDS; i++)
 189:Core/Src/main.c ****   {
 190:Core/Src/main.c ****       if (HAL_FLASH_Program(FLASH_TYPEPROGRAM_WORD, addr, words[i]) != HAL_OK) {
 191:Core/Src/main.c ****           HAL_FLASH_Lock();
 192:Core/Src/main.c ****           return false;
 193:Core/Src/main.c ****       }
ARM GAS  /tmp/cc8nHYuQ.s 			page 7


 194:Core/Src/main.c ****       addr += 4;
 195:Core/Src/main.c ****   }
 196:Core/Src/main.c **** 
 197:Core/Src/main.c ****   HAL_FLASH_Lock();
 198:Core/Src/main.c **** 
 199:Core/Src/main.c ****   return true;
 200:Core/Src/main.c **** }
 201:Core/Src/main.c **** 
 202:Core/Src/main.c **** void setLED(led_color_t color)
 203:Core/Src/main.c **** {
 204:Core/Src/main.c ****   HAL_GPIO_WritePin(LD2_GPIO_Port, LD2_Pin, color == GREEN);
 205:Core/Src/main.c **** }
 206:Core/Src/main.c **** 
 207:Core/Src/main.c **** bool buttonPressed(void)
 208:Core/Src/main.c **** {
 209:Core/Src/main.c ****   static uint32_t history = 0;
 210:Core/Src/main.c ****   static bool latched = false;
 211:Core/Src/main.c **** 
 212:Core/Src/main.c ****   bool buttonValue = HAL_GPIO_ReadPin(B1_GPIO_Port, B1_Pin);
 213:Core/Src/main.c **** 
 214:Core/Src/main.c ****   history = (history << 1) |
 215:Core/Src/main.c ****             (buttonValue == GPIO_PIN_RESET);
 216:Core/Src/main.c **** 
 217:Core/Src/main.c ****   if (history == 0xFFFFFFFF && !latched) {
 218:Core/Src/main.c ****       latched = true;
 219:Core/Src/main.c ****       return true;        // button just pressed
 220:Core/Src/main.c ****   }
 221:Core/Src/main.c **** 
 222:Core/Src/main.c ****   if (history == 0x00000000) {
 223:Core/Src/main.c ****       latched = false;    // fully released
 224:Core/Src/main.c ****   }
 225:Core/Src/main.c **** 
 226:Core/Src/main.c ****   return false;
 227:Core/Src/main.c **** }
 228:Core/Src/main.c **** 
 229:Core/Src/main.c **** /**
 230:Core/Src/main.c ****  * @brief Initialize the UART interfaces.
 231:Core/Src/main.c ****  *
 232:Core/Src/main.c ****  * UART 0 is used to communicate with the host computer.
 233:Core/Src/main.c ****  */
 234:Core/Src/main.c **** void uart_init(hw_uart_t uart)
 235:Core/Src/main.c **** {
 236:Core/Src/main.c ****   switch(uart)
 237:Core/Src/main.c ****   {
 238:Core/Src/main.c ****   case HOST_UART:
 239:Core/Src/main.c ****     MX_USART2_UART_Init();
 240:Core/Src/main.c ****     break;
 241:Core/Src/main.c ****   case BOARD_UART:
 242:Core/Src/main.c ****     MX_USART1_UART_Init();
 243:Core/Src/main.c ****     break;
 244:Core/Src/main.c ****   }
 245:Core/Src/main.c **** }
 246:Core/Src/main.c **** 
 247:Core/Src/main.c **** /**
 248:Core/Src/main.c ****  * @brief Check if there are characters available on a UART interface.
 249:Core/Src/main.c ****  *
 250:Core/Src/main.c ****  * @param uart is the base address of the UART port.
ARM GAS  /tmp/cc8nHYuQ.s 			page 8


 251:Core/Src/main.c ****  * @return true if there is data available.
 252:Core/Src/main.c ****  * @return false if there is no data available.
 253:Core/Src/main.c ****  */
 254:Core/Src/main.c **** bool uart_avail(hw_uart_t uart) { return (__HAL_UART_GET_FLAG(uart_base[uart], UART_FLAG_RXNE) != R
 255:Core/Src/main.c **** 
 256:Core/Src/main.c **** /**
 257:Core/Src/main.c ****  * @brief Read a byte from a UART interface.
 258:Core/Src/main.c ****  *
 259:Core/Src/main.c ****  * @param uart is the base address of the UART port to read from.
 260:Core/Src/main.c ****  * @return the character read from the interface.
 261:Core/Src/main.c ****  */
 262:Core/Src/main.c **** int32_t uart_readb(hw_uart_t uart)
 263:Core/Src/main.c **** {
 264:Core/Src/main.c ****   int32_t c;
 265:Core/Src/main.c ****   HAL_UART_Receive(uart_base[uart], (uint8_t*)(&c), 1, HAL_MAX_DELAY);
 266:Core/Src/main.c ****   return c;
 267:Core/Src/main.c **** }
 268:Core/Src/main.c **** 
 269:Core/Src/main.c **** /**
 270:Core/Src/main.c ****  * @brief Read a sequence of bytes from a UART interface.
 271:Core/Src/main.c ****  *
 272:Core/Src/main.c ****  * @param uart is the base address of the UART port to read from.
 273:Core/Src/main.c ****  * @param buf is a pointer to the destination for the received data.
 274:Core/Src/main.c ****  * @param n is the number of bytes to read.
 275:Core/Src/main.c ****  * @return the number of bytes read from the UART interface.
 276:Core/Src/main.c ****  */
 277:Core/Src/main.c **** uint32_t uart_read(hw_uart_t uart, uint8_t *buf, uint32_t n)
 278:Core/Src/main.c **** {
 279:Core/Src/main.c ****   HAL_UART_Receive(uart_base[uart], buf, n, HAL_MAX_DELAY);
 280:Core/Src/main.c ****   return n;
 281:Core/Src/main.c **** }
 282:Core/Src/main.c **** 
 283:Core/Src/main.c **** /**
 284:Core/Src/main.c ****  * @brief Read a line (terminated with '\n') from a UART interface.
 285:Core/Src/main.c ****  *
 286:Core/Src/main.c ****  * @param uart is the base address of the UART port to read from.
 287:Core/Src/main.c ****  * @param buf is a pointer to the destination for the received data.
 288:Core/Src/main.c ****  * @return the number of bytes read from the UART interface.
 289:Core/Src/main.c ****  */
 290:Core/Src/main.c **** uint32_t uart_readline(hw_uart_t uart, uint8_t *buf) {
 291:Core/Src/main.c ****   uint32_t read = 0;
 292:Core/Src/main.c ****   uint8_t c;
 293:Core/Src/main.c ****   UART_HandleTypeDef* base = uart_base[uart];
 294:Core/Src/main.c **** 
 295:Core/Src/main.c ****   do
 296:Core/Src/main.c ****   {
 297:Core/Src/main.c ****     HAL_UART_Receive(base, &c, 1, HAL_MAX_DELAY);
 298:Core/Src/main.c **** 
 299:Core/Src/main.c ****     if ((c != '\r') && (c != '\n') && (c != 0xD))
 300:Core/Src/main.c ****     {
 301:Core/Src/main.c ****       buf[read] = c;
 302:Core/Src/main.c ****       read++;
 303:Core/Src/main.c ****     }
 304:Core/Src/main.c **** 
 305:Core/Src/main.c ****   } while ((c != '\n') && (c != 0xD));
 306:Core/Src/main.c **** 
 307:Core/Src/main.c ****   buf[read] = '\0';
ARM GAS  /tmp/cc8nHYuQ.s 			page 9


 308:Core/Src/main.c **** 
 309:Core/Src/main.c ****   return read;
 310:Core/Src/main.c **** }
 311:Core/Src/main.c **** 
 312:Core/Src/main.c **** /**
 313:Core/Src/main.c ****  * @brief Write a byte to a UART interface.
 314:Core/Src/main.c ****  *
 315:Core/Src/main.c ****  * @param uart is the base address of the UART port to write to.
 316:Core/Src/main.c ****  * @param data is the byte value to write.
 317:Core/Src/main.c ****  */
 318:Core/Src/main.c **** void uart_writeb(hw_uart_t uart, uint8_t data)
 319:Core/Src/main.c **** {
 320:Core/Src/main.c ****   HAL_UART_Transmit(uart_base[uart], &data, 1, HAL_MAX_DELAY);
 321:Core/Src/main.c **** }
 322:Core/Src/main.c **** 
 323:Core/Src/main.c **** /**
 324:Core/Src/main.c ****  * @brief Write a sequence of bytes to a UART interface.
 325:Core/Src/main.c ****  *
 326:Core/Src/main.c ****  * @param uart is the base address of the UART port to write to.
 327:Core/Src/main.c ****  * @param buf is a pointer to the data to send.
 328:Core/Src/main.c ****  * @param len is the number of bytes to send.
 329:Core/Src/main.c ****  * @return the number of bytes written.
 330:Core/Src/main.c ****  */
 331:Core/Src/main.c **** uint32_t uart_write(hw_uart_t uart, uint8_t *buf, uint32_t len)
 332:Core/Src/main.c **** {
 333:Core/Src/main.c ****   HAL_UART_Transmit(uart_base[uart], buf, len, HAL_MAX_DELAY);
 334:Core/Src/main.c ****   return len;
 335:Core/Src/main.c **** }
 336:Core/Src/main.c **** /* USER CODE END 0 */
 337:Core/Src/main.c **** 
 338:Core/Src/main.c **** /**
 339:Core/Src/main.c ****   * @brief  The application entry point.
 340:Core/Src/main.c ****   * @retval int
 341:Core/Src/main.c ****   */
 342:Core/Src/main.c **** 
 343:Core/Src/main.c **** /**
 344:Core/Src/main.c ****   * @brief System Clock Configuration
 345:Core/Src/main.c ****   * @retval None
 346:Core/Src/main.c ****   */
 347:Core/Src/main.c **** void SystemClock_Config(void)
 348:Core/Src/main.c **** {
 349:Core/Src/main.c ****   RCC_OscInitTypeDef RCC_OscInitStruct = {0};
 350:Core/Src/main.c ****   RCC_ClkInitTypeDef RCC_ClkInitStruct = {0};
 351:Core/Src/main.c **** 
 352:Core/Src/main.c ****   /** Configure the main internal regulator output voltage
 353:Core/Src/main.c ****   */
 354:Core/Src/main.c ****   __HAL_RCC_PWR_CLK_ENABLE();
 355:Core/Src/main.c ****   __HAL_PWR_VOLTAGESCALING_CONFIG(PWR_REGULATOR_VOLTAGE_SCALE1);
 356:Core/Src/main.c **** 
 357:Core/Src/main.c ****   /** Initializes the RCC Oscillators according to the specified parameters
 358:Core/Src/main.c ****   * in the RCC_OscInitTypeDef structure.
 359:Core/Src/main.c ****   */
 360:Core/Src/main.c ****   RCC_OscInitStruct.OscillatorType = RCC_OSCILLATORTYPE_HSI;
 361:Core/Src/main.c ****   RCC_OscInitStruct.HSIState = RCC_HSI_ON;
 362:Core/Src/main.c ****   RCC_OscInitStruct.HSICalibrationValue = RCC_HSICALIBRATION_DEFAULT;
 363:Core/Src/main.c ****   RCC_OscInitStruct.PLL.PLLState = RCC_PLL_ON;
 364:Core/Src/main.c ****   RCC_OscInitStruct.PLL.PLLSource = RCC_PLLSOURCE_HSI;
ARM GAS  /tmp/cc8nHYuQ.s 			page 10


 365:Core/Src/main.c ****   RCC_OscInitStruct.PLL.PLLM = 16;
 366:Core/Src/main.c ****   RCC_OscInitStruct.PLL.PLLN = 336;
 367:Core/Src/main.c ****   RCC_OscInitStruct.PLL.PLLP = RCC_PLLP_DIV4;
 368:Core/Src/main.c ****   RCC_OscInitStruct.PLL.PLLQ = 4;
 369:Core/Src/main.c ****   if (HAL_RCC_OscConfig(&RCC_OscInitStruct) != HAL_OK)
 370:Core/Src/main.c ****   {
 371:Core/Src/main.c ****     Error_Handler();
 372:Core/Src/main.c ****   }
 373:Core/Src/main.c **** 
 374:Core/Src/main.c ****   /** Initializes the CPU, AHB and APB buses clocks
 375:Core/Src/main.c ****   */
 376:Core/Src/main.c ****   RCC_ClkInitStruct.ClockType = RCC_CLOCKTYPE_HCLK|RCC_CLOCKTYPE_SYSCLK
 377:Core/Src/main.c ****                               |RCC_CLOCKTYPE_PCLK1|RCC_CLOCKTYPE_PCLK2;
 378:Core/Src/main.c ****   RCC_ClkInitStruct.SYSCLKSource = RCC_SYSCLKSOURCE_PLLCLK;
 379:Core/Src/main.c ****   RCC_ClkInitStruct.AHBCLKDivider = RCC_SYSCLK_DIV1;
 380:Core/Src/main.c ****   RCC_ClkInitStruct.APB1CLKDivider = RCC_HCLK_DIV2;
 381:Core/Src/main.c ****   RCC_ClkInitStruct.APB2CLKDivider = RCC_HCLK_DIV1;
 382:Core/Src/main.c **** 
 383:Core/Src/main.c ****   if (HAL_RCC_ClockConfig(&RCC_ClkInitStruct, FLASH_LATENCY_2) != HAL_OK)
 384:Core/Src/main.c ****   {
 385:Core/Src/main.c ****     Error_Handler();
 386:Core/Src/main.c ****   }
 387:Core/Src/main.c **** }
 388:Core/Src/main.c **** 
 389:Core/Src/main.c **** /**
 390:Core/Src/main.c ****   * @brief USART1 Initialization Function
 391:Core/Src/main.c ****   * @param None
 392:Core/Src/main.c ****   * @retval None
 393:Core/Src/main.c ****   */
 394:Core/Src/main.c **** static void MX_USART1_UART_Init(void)
 395:Core/Src/main.c **** {
 396:Core/Src/main.c **** 
 397:Core/Src/main.c ****   /* USER CODE BEGIN USART1_Init 0 */
 398:Core/Src/main.c **** 
 399:Core/Src/main.c ****   /* USER CODE END USART1_Init 0 */
 400:Core/Src/main.c **** 
 401:Core/Src/main.c ****   /* USER CODE BEGIN USART1_Init 1 */
 402:Core/Src/main.c **** 
 403:Core/Src/main.c ****   /* USER CODE END USART1_Init 1 */
 404:Core/Src/main.c ****   huart1.Instance = USART1;
 405:Core/Src/main.c ****   huart1.Init.BaudRate = 115200;
 406:Core/Src/main.c ****   huart1.Init.WordLength = UART_WORDLENGTH_8B;
 407:Core/Src/main.c ****   huart1.Init.StopBits = UART_STOPBITS_1;
 408:Core/Src/main.c ****   huart1.Init.Parity = UART_PARITY_NONE;
 409:Core/Src/main.c ****   huart1.Init.Mode = UART_MODE_TX_RX;
 410:Core/Src/main.c ****   huart1.Init.HwFlowCtl = UART_HWCONTROL_NONE;
 411:Core/Src/main.c ****   huart1.Init.OverSampling = UART_OVERSAMPLING_16;
 412:Core/Src/main.c ****   if (HAL_UART_Init(&huart1) != HAL_OK)
 413:Core/Src/main.c ****   {
 414:Core/Src/main.c ****     Error_Handler();
 415:Core/Src/main.c ****   }
 416:Core/Src/main.c ****   /* USER CODE BEGIN USART1_Init 2 */
 417:Core/Src/main.c **** 
 418:Core/Src/main.c ****   /* USER CODE END USART1_Init 2 */
 419:Core/Src/main.c **** 
 420:Core/Src/main.c **** }
 421:Core/Src/main.c **** 
ARM GAS  /tmp/cc8nHYuQ.s 			page 11


 422:Core/Src/main.c **** /**
 423:Core/Src/main.c ****   * @brief USART2 Initialization Function
 424:Core/Src/main.c ****   * @param None
 425:Core/Src/main.c ****   * @retval None
 426:Core/Src/main.c ****   */
 427:Core/Src/main.c **** static void MX_USART2_UART_Init(void)
 428:Core/Src/main.c **** {
 429:Core/Src/main.c **** 
 430:Core/Src/main.c ****   /* USER CODE BEGIN USART2_Init 0 */
 431:Core/Src/main.c **** 
 432:Core/Src/main.c ****   /* USER CODE END USART2_Init 0 */
 433:Core/Src/main.c **** 
 434:Core/Src/main.c ****   /* USER CODE BEGIN USART2_Init 1 */
 435:Core/Src/main.c **** 
 436:Core/Src/main.c ****   /* USER CODE END USART2_Init 1 */
 437:Core/Src/main.c ****   huart2.Instance = USART2;
 438:Core/Src/main.c ****   huart2.Init.BaudRate = 115200;
 439:Core/Src/main.c ****   huart2.Init.WordLength = UART_WORDLENGTH_8B;
 440:Core/Src/main.c ****   huart2.Init.StopBits = UART_STOPBITS_1;
 441:Core/Src/main.c ****   huart2.Init.Parity = UART_PARITY_NONE;
 442:Core/Src/main.c ****   huart2.Init.Mode = UART_MODE_TX_RX;
 443:Core/Src/main.c ****   huart2.Init.HwFlowCtl = UART_HWCONTROL_NONE;
 444:Core/Src/main.c ****   huart2.Init.OverSampling = UART_OVERSAMPLING_16;
 445:Core/Src/main.c ****   if (HAL_UART_Init(&huart2) != HAL_OK)
 446:Core/Src/main.c ****   {
 447:Core/Src/main.c ****     Error_Handler();
 448:Core/Src/main.c ****   }
 449:Core/Src/main.c ****   /* USER CODE BEGIN USART2_Init 2 */
 450:Core/Src/main.c **** 
 451:Core/Src/main.c ****   /* USER CODE END USART2_Init 2 */
 452:Core/Src/main.c **** 
 453:Core/Src/main.c **** }
 454:Core/Src/main.c **** 
 455:Core/Src/main.c **** /**
 456:Core/Src/main.c ****   * @brief GPIO Initialization Function
 457:Core/Src/main.c ****   * @param None
 458:Core/Src/main.c ****   * @retval None
 459:Core/Src/main.c ****   */
 460:Core/Src/main.c **** static void MX_GPIO_Init(void)
 461:Core/Src/main.c **** {
 140              		.loc 1 461 1 is_stmt 1 view -0
 141              		.cfi_startproc
 142              		@ args = 0, pretend = 0, frame = 40
 143              		@ frame_needed = 0, uses_anonymous_args = 0
 144 0000 30B5     		push	{r4, r5, lr}
 145              	.LCFI0:
 146              		.cfi_def_cfa_offset 12
 147              		.cfi_offset 4, -12
 148              		.cfi_offset 5, -8
 149              		.cfi_offset 14, -4
 150 0002 8BB0     		sub	sp, sp, #44
 151              	.LCFI1:
 152              		.cfi_def_cfa_offset 56
 462:Core/Src/main.c ****   GPIO_InitTypeDef GPIO_InitStruct = {0};
 153              		.loc 1 462 3 view .LVU32
 154              		.loc 1 462 20 is_stmt 0 view .LVU33
 155 0004 0024     		movs	r4, #0
ARM GAS  /tmp/cc8nHYuQ.s 			page 12


 156 0006 0594     		str	r4, [sp, #20]
 157 0008 0694     		str	r4, [sp, #24]
 158 000a 0794     		str	r4, [sp, #28]
 159 000c 0894     		str	r4, [sp, #32]
 160 000e 0994     		str	r4, [sp, #36]
 463:Core/Src/main.c ****   /* USER CODE BEGIN MX_GPIO_Init_1 */
 464:Core/Src/main.c **** 
 465:Core/Src/main.c ****   /* USER CODE END MX_GPIO_Init_1 */
 466:Core/Src/main.c **** 
 467:Core/Src/main.c ****   /* GPIO Ports Clock Enable */
 468:Core/Src/main.c ****   __HAL_RCC_GPIOC_CLK_ENABLE();
 161              		.loc 1 468 3 is_stmt 1 view .LVU34
 162              	.LBB4:
 163              		.loc 1 468 3 view .LVU35
 164 0010 0194     		str	r4, [sp, #4]
 165              		.loc 1 468 3 view .LVU36
 166 0012 224B     		ldr	r3, .L14
 167 0014 1A6B     		ldr	r2, [r3, #48]
 168 0016 42F00402 		orr	r2, r2, #4
 169 001a 1A63     		str	r2, [r3, #48]
 170              		.loc 1 468 3 view .LVU37
 171 001c 1A6B     		ldr	r2, [r3, #48]
 172 001e 02F00402 		and	r2, r2, #4
 173 0022 0192     		str	r2, [sp, #4]
 174              		.loc 1 468 3 view .LVU38
 175 0024 019A     		ldr	r2, [sp, #4]
 176              	.LBE4:
 177              		.loc 1 468 3 view .LVU39
 469:Core/Src/main.c ****   __HAL_RCC_GPIOH_CLK_ENABLE();
 178              		.loc 1 469 3 view .LVU40
 179              	.LBB5:
 180              		.loc 1 469 3 view .LVU41
 181 0026 0294     		str	r4, [sp, #8]
 182              		.loc 1 469 3 view .LVU42
 183 0028 1A6B     		ldr	r2, [r3, #48]
 184 002a 42F08002 		orr	r2, r2, #128
 185 002e 1A63     		str	r2, [r3, #48]
 186              		.loc 1 469 3 view .LVU43
 187 0030 1A6B     		ldr	r2, [r3, #48]
 188 0032 02F08002 		and	r2, r2, #128
 189 0036 0292     		str	r2, [sp, #8]
 190              		.loc 1 469 3 view .LVU44
 191 0038 029A     		ldr	r2, [sp, #8]
 192              	.LBE5:
 193              		.loc 1 469 3 view .LVU45
 470:Core/Src/main.c ****   __HAL_RCC_GPIOA_CLK_ENABLE();
 194              		.loc 1 470 3 view .LVU46
 195              	.LBB6:
 196              		.loc 1 470 3 view .LVU47
 197 003a 0394     		str	r4, [sp, #12]
 198              		.loc 1 470 3 view .LVU48
 199 003c 1A6B     		ldr	r2, [r3, #48]
 200 003e 42F00102 		orr	r2, r2, #1
 201 0042 1A63     		str	r2, [r3, #48]
 202              		.loc 1 470 3 view .LVU49
 203 0044 1A6B     		ldr	r2, [r3, #48]
 204 0046 02F00102 		and	r2, r2, #1
ARM GAS  /tmp/cc8nHYuQ.s 			page 13


 205 004a 0392     		str	r2, [sp, #12]
 206              		.loc 1 470 3 view .LVU50
 207 004c 039A     		ldr	r2, [sp, #12]
 208              	.LBE6:
 209              		.loc 1 470 3 view .LVU51
 471:Core/Src/main.c ****   __HAL_RCC_GPIOB_CLK_ENABLE();
 210              		.loc 1 471 3 view .LVU52
 211              	.LBB7:
 212              		.loc 1 471 3 view .LVU53
 213 004e 0494     		str	r4, [sp, #16]
 214              		.loc 1 471 3 view .LVU54
 215 0050 1A6B     		ldr	r2, [r3, #48]
 216 0052 42F00202 		orr	r2, r2, #2
 217 0056 1A63     		str	r2, [r3, #48]
 218              		.loc 1 471 3 view .LVU55
 219 0058 1B6B     		ldr	r3, [r3, #48]
 220 005a 03F00203 		and	r3, r3, #2
 221 005e 0493     		str	r3, [sp, #16]
 222              		.loc 1 471 3 view .LVU56
 223 0060 049B     		ldr	r3, [sp, #16]
 224              	.LBE7:
 225              		.loc 1 471 3 view .LVU57
 472:Core/Src/main.c **** 
 473:Core/Src/main.c ****   /*Configure GPIO pin Output Level */
 474:Core/Src/main.c ****   HAL_GPIO_WritePin(LD2_GPIO_Port, LD2_Pin, GPIO_PIN_RESET);
 226              		.loc 1 474 3 view .LVU58
 227 0062 0F4D     		ldr	r5, .L14+4
 228 0064 2246     		mov	r2, r4
 229 0066 2021     		movs	r1, #32
 230 0068 2846     		mov	r0, r5
 231 006a FFF7FEFF 		bl	HAL_GPIO_WritePin
 232              	.LVL16:
 475:Core/Src/main.c **** 
 476:Core/Src/main.c ****   /*Configure GPIO pin : B1_Pin */
 477:Core/Src/main.c ****   GPIO_InitStruct.Pin = B1_Pin;
 233              		.loc 1 477 3 view .LVU59
 234              		.loc 1 477 23 is_stmt 0 view .LVU60
 235 006e 4FF40053 		mov	r3, #8192
 236 0072 0593     		str	r3, [sp, #20]
 478:Core/Src/main.c ****   GPIO_InitStruct.Mode = GPIO_MODE_IT_FALLING;
 237              		.loc 1 478 3 is_stmt 1 view .LVU61
 238              		.loc 1 478 24 is_stmt 0 view .LVU62
 239 0074 4FF40413 		mov	r3, #2162688
 240 0078 0693     		str	r3, [sp, #24]
 479:Core/Src/main.c ****   GPIO_InitStruct.Pull = GPIO_NOPULL;
 241              		.loc 1 479 3 is_stmt 1 view .LVU63
 242              		.loc 1 479 24 is_stmt 0 view .LVU64
 243 007a 0794     		str	r4, [sp, #28]
 480:Core/Src/main.c ****   HAL_GPIO_Init(B1_GPIO_Port, &GPIO_InitStruct);
 244              		.loc 1 480 3 is_stmt 1 view .LVU65
 245 007c 05A9     		add	r1, sp, #20
 246 007e 0948     		ldr	r0, .L14+8
 247 0080 FFF7FEFF 		bl	HAL_GPIO_Init
 248              	.LVL17:
 481:Core/Src/main.c **** 
 482:Core/Src/main.c ****   /*Configure GPIO pin : LD2_Pin */
 483:Core/Src/main.c ****   GPIO_InitStruct.Pin = LD2_Pin;
ARM GAS  /tmp/cc8nHYuQ.s 			page 14


 249              		.loc 1 483 3 view .LVU66
 250              		.loc 1 483 23 is_stmt 0 view .LVU67
 251 0084 2023     		movs	r3, #32
 252 0086 0593     		str	r3, [sp, #20]
 484:Core/Src/main.c ****   GPIO_InitStruct.Mode = GPIO_MODE_OUTPUT_PP;
 253              		.loc 1 484 3 is_stmt 1 view .LVU68
 254              		.loc 1 484 24 is_stmt 0 view .LVU69
 255 0088 0123     		movs	r3, #1
 256 008a 0693     		str	r3, [sp, #24]
 485:Core/Src/main.c ****   GPIO_InitStruct.Pull = GPIO_NOPULL;
 257              		.loc 1 485 3 is_stmt 1 view .LVU70
 258              		.loc 1 485 24 is_stmt 0 view .LVU71
 259 008c 0794     		str	r4, [sp, #28]
 486:Core/Src/main.c ****   GPIO_InitStruct.Speed = GPIO_SPEED_FREQ_LOW;
 260              		.loc 1 486 3 is_stmt 1 view .LVU72
 261              		.loc 1 486 25 is_stmt 0 view .LVU73
 262 008e 0894     		str	r4, [sp, #32]
 487:Core/Src/main.c ****   HAL_GPIO_Init(LD2_GPIO_Port, &GPIO_InitStruct);
 263              		.loc 1 487 3 is_stmt 1 view .LVU74
 264 0090 05A9     		add	r1, sp, #20
 265 0092 2846     		mov	r0, r5
 266 0094 FFF7FEFF 		bl	HAL_GPIO_Init
 267              	.LVL18:
 488:Core/Src/main.c **** 
 489:Core/Src/main.c ****   /* USER CODE BEGIN MX_GPIO_Init_2 */
 490:Core/Src/main.c **** 
 491:Core/Src/main.c ****   /* USER CODE END MX_GPIO_Init_2 */
 492:Core/Src/main.c **** }
 268              		.loc 1 492 1 is_stmt 0 view .LVU75
 269 0098 0BB0     		add	sp, sp, #44
 270              	.LCFI2:
 271              		.cfi_def_cfa_offset 12
 272              		@ sp needed
 273 009a 30BD     		pop	{r4, r5, pc}
 274              	.L15:
 275              		.align	2
 276              	.L14:
 277 009c 00380240 		.word	1073887232
 278 00a0 00000240 		.word	1073872896
 279 00a4 00080240 		.word	1073874944
 280              		.cfi_endproc
 281              	.LFE155:
 283              		.section	.rodata.readVar.str1.4,"aMS",%progbits,1
 284              		.align	2
 285              	.LC0:
 286 0000 756E6C6F 		.ascii	"unlock\000"
 286      636B00
 287 0007 00       		.align	2
 288              	.LC2:
 289 0008 66656174 		.ascii	"feature1\000"
 289      75726531 
 289      00
 290 0011 000000   		.align	2
 291              	.LC4:
 292 0014 66656174 		.ascii	"feature2\000"
 292      75726532 
 292      00
ARM GAS  /tmp/cc8nHYuQ.s 			page 15


 293 001d 000000   		.align	2
 294              	.LC6:
 295 0020 66656174 		.ascii	"feature3\000"
 295      75726533 
 295      00
 296 0029 000000   		.align	2
 297              	.LC8:
 298 002c 666F625F 		.ascii	"fob_state\000"
 298      73746174 
 298      6500
 299              		.section	.text.readVar,"ax",%progbits
 300              		.align	1
 301              		.global	readVar
 302              		.syntax unified
 303              		.thumb
 304              		.thumb_func
 305              		.fpu fpv4-sp-d16
 307              	readVar:
 308              	.LVL19:
 309              	.LFB140:
 130:Core/Src/main.c ****   if(!strcmp(var, "unlock")) memcpy(dest, unlock_flag, UNLOCK_SIZE);
 310              		.loc 1 130 1 is_stmt 1 view -0
 311              		.cfi_startproc
 312              		@ args = 0, pretend = 0, frame = 0
 313              		@ frame_needed = 0, uses_anonymous_args = 0
 130:Core/Src/main.c ****   if(!strcmp(var, "unlock")) memcpy(dest, unlock_flag, UNLOCK_SIZE);
 314              		.loc 1 130 1 is_stmt 0 view .LVU77
 315 0000 70B5     		push	{r4, r5, r6, lr}
 316              	.LCFI3:
 317              		.cfi_def_cfa_offset 16
 318              		.cfi_offset 4, -16
 319              		.cfi_offset 5, -12
 320              		.cfi_offset 6, -8
 321              		.cfi_offset 14, -4
 322 0002 0446     		mov	r4, r0
 323 0004 0D46     		mov	r5, r1
 131:Core/Src/main.c ****   else if(!strcmp(var, "feature1")) memcpy(dest, feature1_flag, FEATURE_SIZE);
 324              		.loc 1 131 3 is_stmt 1 view .LVU78
 131:Core/Src/main.c ****   else if(!strcmp(var, "feature1")) memcpy(dest, feature1_flag, FEATURE_SIZE);
 325              		.loc 1 131 7 is_stmt 0 view .LVU79
 326 0006 3249     		ldr	r1, .L24
 327              	.LVL20:
 131:Core/Src/main.c ****   else if(!strcmp(var, "feature1")) memcpy(dest, feature1_flag, FEATURE_SIZE);
 328              		.loc 1 131 7 view .LVU80
 329 0008 2846     		mov	r0, r5
 330              	.LVL21:
 131:Core/Src/main.c ****   else if(!strcmp(var, "feature1")) memcpy(dest, feature1_flag, FEATURE_SIZE);
 331              		.loc 1 131 7 view .LVU81
 332 000a FFF7FEFF 		bl	strcmp
 333              	.LVL22:
 131:Core/Src/main.c ****   else if(!strcmp(var, "feature1")) memcpy(dest, feature1_flag, FEATURE_SIZE);
 334              		.loc 1 131 5 view .LVU82
 335 000e 60B9     		cbnz	r0, .L17
 131:Core/Src/main.c ****   else if(!strcmp(var, "feature1")) memcpy(dest, feature1_flag, FEATURE_SIZE);
 336              		.loc 1 131 30 is_stmt 1 discriminator 1 view .LVU83
 337 0010 304B     		ldr	r3, .L24+4
 338 0012 1868     		ldr	r0, [r3]
ARM GAS  /tmp/cc8nHYuQ.s 			page 16


 339 0014 2060     		str	r0, [r4]	@ unaligned
 340 0016 9A88     		ldrh	r2, [r3, #4]	@ unaligned
 341 0018 9B79     		ldrb	r3, [r3, #6]	@ zero_extendqisi2
 342 001a A280     		strh	r2, [r4, #4]	@ unaligned
 343 001c A371     		strb	r3, [r4, #6]
 344 001e 3922     		movs	r2, #57
 345 0020 0021     		movs	r1, #0
 346 0022 E01D     		adds	r0, r4, #7
 347 0024 FFF7FEFF 		bl	memset
 348              	.LVL23:
 349              	.L16:
 136:Core/Src/main.c **** 
 350              		.loc 1 136 1 is_stmt 0 view .LVU84
 351 0028 70BD     		pop	{r4, r5, r6, pc}
 352              	.LVL24:
 353              	.L17:
 132:Core/Src/main.c ****   else if(!strcmp(var, "feature2")) memcpy(dest, feature2_flag, FEATURE_SIZE);
 354              		.loc 1 132 8 is_stmt 1 view .LVU85
 132:Core/Src/main.c ****   else if(!strcmp(var, "feature2")) memcpy(dest, feature2_flag, FEATURE_SIZE);
 355              		.loc 1 132 12 is_stmt 0 view .LVU86
 356 002a 2B49     		ldr	r1, .L24+8
 357 002c 2846     		mov	r0, r5
 358 002e FFF7FEFF 		bl	strcmp
 359              	.LVL25:
 132:Core/Src/main.c ****   else if(!strcmp(var, "feature2")) memcpy(dest, feature2_flag, FEATURE_SIZE);
 360              		.loc 1 132 10 view .LVU87
 361 0032 70B9     		cbnz	r0, .L19
 132:Core/Src/main.c ****   else if(!strcmp(var, "feature2")) memcpy(dest, feature2_flag, FEATURE_SIZE);
 362              		.loc 1 132 37 is_stmt 1 discriminator 1 view .LVU88
 363 0034 294D     		ldr	r5, .L24+12
 364              	.LVL26:
 132:Core/Src/main.c ****   else if(!strcmp(var, "feature2")) memcpy(dest, feature2_flag, FEATURE_SIZE);
 365              		.loc 1 132 37 is_stmt 0 discriminator 1 view .LVU89
 366 0036 0FCD     		ldmia	r5!, {r0, r1, r2, r3}
 367 0038 2060     		str	r0, [r4]	@ unaligned
 368 003a 6160     		str	r1, [r4, #4]	@ unaligned
 369 003c A260     		str	r2, [r4, #8]	@ unaligned
 370 003e E360     		str	r3, [r4, #12]	@ unaligned
 371 0040 2B78     		ldrb	r3, [r5]	@ zero_extendqisi2
 372 0042 2374     		strb	r3, [r4, #16]
 373 0044 2F22     		movs	r2, #47
 374 0046 0021     		movs	r1, #0
 375 0048 04F11100 		add	r0, r4, #17
 376 004c FFF7FEFF 		bl	memset
 377              	.LVL27:
 378 0050 EAE7     		b	.L16
 379              	.LVL28:
 380              	.L19:
 133:Core/Src/main.c ****   else if(!strcmp(var, "feature3")) memcpy(dest, feature3_flag, FEATURE_SIZE);
 381              		.loc 1 133 8 is_stmt 1 view .LVU90
 133:Core/Src/main.c ****   else if(!strcmp(var, "feature3")) memcpy(dest, feature3_flag, FEATURE_SIZE);
 382              		.loc 1 133 12 is_stmt 0 view .LVU91
 383 0052 2349     		ldr	r1, .L24+16
 384 0054 2846     		mov	r0, r5
 385 0056 FFF7FEFF 		bl	strcmp
 386              	.LVL29:
 133:Core/Src/main.c ****   else if(!strcmp(var, "feature3")) memcpy(dest, feature3_flag, FEATURE_SIZE);
ARM GAS  /tmp/cc8nHYuQ.s 			page 17


 387              		.loc 1 133 10 view .LVU92
 388 005a 70B9     		cbnz	r0, .L20
 133:Core/Src/main.c ****   else if(!strcmp(var, "feature3")) memcpy(dest, feature3_flag, FEATURE_SIZE);
 389              		.loc 1 133 37 is_stmt 1 discriminator 1 view .LVU93
 390 005c 214D     		ldr	r5, .L24+20
 391              	.LVL30:
 133:Core/Src/main.c ****   else if(!strcmp(var, "feature3")) memcpy(dest, feature3_flag, FEATURE_SIZE);
 392              		.loc 1 133 37 is_stmt 0 discriminator 1 view .LVU94
 393 005e 0FCD     		ldmia	r5!, {r0, r1, r2, r3}
 394 0060 2060     		str	r0, [r4]	@ unaligned
 395 0062 6160     		str	r1, [r4, #4]	@ unaligned
 396 0064 A260     		str	r2, [r4, #8]	@ unaligned
 397 0066 E360     		str	r3, [r4, #12]	@ unaligned
 398 0068 2B78     		ldrb	r3, [r5]	@ zero_extendqisi2
 399 006a 2374     		strb	r3, [r4, #16]
 400 006c 2F22     		movs	r2, #47
 401 006e 0021     		movs	r1, #0
 402 0070 04F11100 		add	r0, r4, #17
 403 0074 FFF7FEFF 		bl	memset
 404              	.LVL31:
 405 0078 D6E7     		b	.L16
 406              	.LVL32:
 407              	.L20:
 134:Core/Src/main.c ****   else if(!strcmp(var, "fob_state")) memcpy(dest, (uint8_t*)(&flash_data), sizeof(FLASH_DATA));
 408              		.loc 1 134 8 is_stmt 1 view .LVU95
 134:Core/Src/main.c ****   else if(!strcmp(var, "fob_state")) memcpy(dest, (uint8_t*)(&flash_data), sizeof(FLASH_DATA));
 409              		.loc 1 134 12 is_stmt 0 view .LVU96
 410 007a 1B49     		ldr	r1, .L24+24
 411 007c 2846     		mov	r0, r5
 412 007e FFF7FEFF 		bl	strcmp
 413              	.LVL33:
 134:Core/Src/main.c ****   else if(!strcmp(var, "fob_state")) memcpy(dest, (uint8_t*)(&flash_data), sizeof(FLASH_DATA));
 414              		.loc 1 134 10 view .LVU97
 415 0082 70B9     		cbnz	r0, .L21
 134:Core/Src/main.c ****   else if(!strcmp(var, "fob_state")) memcpy(dest, (uint8_t*)(&flash_data), sizeof(FLASH_DATA));
 416              		.loc 1 134 37 is_stmt 1 discriminator 1 view .LVU98
 417 0084 194D     		ldr	r5, .L24+28
 418              	.LVL34:
 134:Core/Src/main.c ****   else if(!strcmp(var, "fob_state")) memcpy(dest, (uint8_t*)(&flash_data), sizeof(FLASH_DATA));
 419              		.loc 1 134 37 is_stmt 0 discriminator 1 view .LVU99
 420 0086 0FCD     		ldmia	r5!, {r0, r1, r2, r3}
 421 0088 2060     		str	r0, [r4]	@ unaligned
 422 008a 6160     		str	r1, [r4, #4]	@ unaligned
 423 008c A260     		str	r2, [r4, #8]	@ unaligned
 424 008e E360     		str	r3, [r4, #12]	@ unaligned
 425 0090 2B78     		ldrb	r3, [r5]	@ zero_extendqisi2
 426 0092 2374     		strb	r3, [r4, #16]
 427 0094 2F22     		movs	r2, #47
 428 0096 0021     		movs	r1, #0
 429 0098 04F11100 		add	r0, r4, #17
 430 009c FFF7FEFF 		bl	memset
 431              	.LVL35:
 432 00a0 C2E7     		b	.L16
 433              	.LVL36:
 434              	.L21:
 135:Core/Src/main.c **** }
 435              		.loc 1 135 8 is_stmt 1 view .LVU100
ARM GAS  /tmp/cc8nHYuQ.s 			page 18


 135:Core/Src/main.c **** }
 436              		.loc 1 135 12 is_stmt 0 view .LVU101
 437 00a2 1349     		ldr	r1, .L24+32
 438 00a4 2846     		mov	r0, r5
 439 00a6 FFF7FEFF 		bl	strcmp
 440              	.LVL37:
 135:Core/Src/main.c **** }
 441              		.loc 1 135 10 view .LVU102
 442 00aa 0028     		cmp	r0, #0
 443 00ac BCD1     		bne	.L16
 135:Core/Src/main.c **** }
 444              		.loc 1 135 38 is_stmt 1 discriminator 1 view .LVU103
 445 00ae 114E     		ldr	r6, .L24+36
 446 00b0 06F1200C 		add	ip, r6, #32
 447              	.LVL38:
 448              	.L22:
 135:Core/Src/main.c **** }
 449              		.loc 1 135 38 is_stmt 0 discriminator 1 view .LVU104
 450 00b4 3546     		mov	r5, r6
 451 00b6 0FCD     		ldmia	r5!, {r0, r1, r2, r3}
 452 00b8 2060     		str	r0, [r4]	@ unaligned
 453 00ba 6160     		str	r1, [r4, #4]	@ unaligned
 454 00bc A260     		str	r2, [r4, #8]	@ unaligned
 455 00be E360     		str	r3, [r4, #12]	@ unaligned
 456 00c0 2E46     		mov	r6, r5
 457 00c2 1034     		adds	r4, r4, #16
 458 00c4 6545     		cmp	r5, ip
 459 00c6 F5D1     		bne	.L22
 460 00c8 03CE     		ldmia	r6!, {r0, r1}
 461 00ca 2060     		str	r0, [r4]	@ unaligned
 462 00cc 6160     		str	r1, [r4, #4]	@ unaligned
 136:Core/Src/main.c **** 
 463              		.loc 1 136 1 discriminator 1 view .LVU105
 464 00ce ABE7     		b	.L16
 465              	.L25:
 466              		.align	2
 467              	.L24:
 468 00d0 00000000 		.word	.LC0
 469 00d4 00000000 		.word	.LANCHOR0
 470 00d8 08000000 		.word	.LC2
 471 00dc 40000000 		.word	.LANCHOR0+64
 472 00e0 14000000 		.word	.LC4
 473 00e4 80000000 		.word	.LANCHOR0+128
 474 00e8 20000000 		.word	.LC6
 475 00ec C0000000 		.word	.LANCHOR0+192
 476 00f0 2C000000 		.word	.LC8
 477 00f4 00000000 		.word	.LANCHOR1
 478              		.cfi_endproc
 479              	.LFE140:
 481              		.section	.text.saveFobState,"ax",%progbits
 482              		.align	1
 483              		.global	saveFobState
 484              		.syntax unified
 485              		.thumb
 486              		.thumb_func
 487              		.fpu fpv4-sp-d16
 489              	saveFobState:
ARM GAS  /tmp/cc8nHYuQ.s 			page 19


 490              	.LVL39:
 491              	.LFB142:
 157:Core/Src/main.c ****   uint32_t base = (uint32_t)&__flash_data_start__;
 492              		.loc 1 157 1 is_stmt 1 view -0
 493              		.cfi_startproc
 494              		@ args = 0, pretend = 0, frame = 64
 495              		@ frame_needed = 0, uses_anonymous_args = 0
 157:Core/Src/main.c ****   uint32_t base = (uint32_t)&__flash_data_start__;
 496              		.loc 1 157 1 is_stmt 0 view .LVU107
 497 0000 70B5     		push	{r4, r5, r6, lr}
 498              	.LCFI4:
 499              		.cfi_def_cfa_offset 16
 500              		.cfi_offset 4, -16
 501              		.cfi_offset 5, -12
 502              		.cfi_offset 6, -8
 503              		.cfi_offset 14, -4
 504 0002 90B0     		sub	sp, sp, #64
 505              	.LCFI5:
 506              		.cfi_def_cfa_offset 80
 507 0004 0646     		mov	r6, r0
 158:Core/Src/main.c ****   
 508              		.loc 1 158 3 is_stmt 1 view .LVU108
 158:Core/Src/main.c ****   
 509              		.loc 1 158 12 is_stmt 0 view .LVU109
 510 0006 274D     		ldr	r5, .L37
 511              	.LVL40:
 161:Core/Src/main.c **** 
 512              		.loc 1 161 3 is_stmt 1 view .LVU110
 161:Core/Src/main.c **** 
 513              		.loc 1 161 21 is_stmt 0 view .LVU111
 514 0008 2846     		mov	r0, r5
 515              	.LVL41:
 161:Core/Src/main.c **** 
 516              		.loc 1 161 21 view .LVU112
 517 000a FFF7FEFF 		bl	get_flash_sector
 518              	.LVL42:
 163:Core/Src/main.c ****   {
 519              		.loc 1 163 3 is_stmt 1 view .LVU113
 163:Core/Src/main.c ****   {
 520              		.loc 1 163 26 is_stmt 0 view .LVU114
 521 000e 0023     		movs	r3, #0
 522 0010 0B93     		str	r3, [sp, #44]
 523 0012 0C93     		str	r3, [sp, #48]
 524 0014 0D93     		str	r3, [sp, #52]
 525 0016 0E93     		str	r3, [sp, #56]
 526 0018 0F93     		str	r3, [sp, #60]
 527 001a 0D90     		str	r0, [sp, #52]
 528 001c 0123     		movs	r3, #1
 529 001e 0E93     		str	r3, [sp, #56]
 530 0020 0223     		movs	r3, #2
 531 0022 0F93     		str	r3, [sp, #60]
 171:Core/Src/main.c ****   memset(padded_data, 0xFF, sizeof(padded_data));
 532              		.loc 1 171 3 is_stmt 1 view .LVU115
 172:Core/Src/main.c ****   memcpy((FLASH_DATA*)(&padded_data), src, sizeof(FLASH_DATA));
 533              		.loc 1 172 3 view .LVU116
 534 0024 2822     		movs	r2, #40
 535 0026 FF21     		movs	r1, #255
ARM GAS  /tmp/cc8nHYuQ.s 			page 20


 536 0028 01A8     		add	r0, sp, #4
 537              	.LVL43:
 172:Core/Src/main.c ****   memcpy((FLASH_DATA*)(&padded_data), src, sizeof(FLASH_DATA));
 538              		.loc 1 172 3 is_stmt 0 view .LVU117
 539 002a FFF7FEFF 		bl	memset
 540              	.LVL44:
 173:Core/Src/main.c **** 
 541              		.loc 1 173 3 is_stmt 1 view .LVU118
 542 002e 3446     		mov	r4, r6
 543 0030 0DF1040E 		add	lr, sp, #4
 544 0034 2036     		adds	r6, r6, #32
 545              	.LVL45:
 546              	.L27:
 173:Core/Src/main.c **** 
 547              		.loc 1 173 3 is_stmt 0 view .LVU119
 548 0036 F446     		mov	ip, lr
 549 0038 2068     		ldr	r0, [r4]	@ unaligned
 550 003a 6168     		ldr	r1, [r4, #4]	@ unaligned
 551 003c A268     		ldr	r2, [r4, #8]	@ unaligned
 552 003e E368     		ldr	r3, [r4, #12]	@ unaligned
 553 0040 ACE80F00 		stmia	ip!, {r0, r1, r2, r3}
 554 0044 1034     		adds	r4, r4, #16
 555 0046 E646     		mov	lr, ip
 556 0048 B442     		cmp	r4, r6
 557 004a F4D1     		bne	.L27
 558 004c 2068     		ldr	r0, [r4]	@ unaligned
 559 004e 6168     		ldr	r1, [r4, #4]	@ unaligned
 560 0050 AEE80300 		stmia	lr!, {r0, r1}
 175:Core/Src/main.c ****   HAL_FLASH_Unlock();
 561              		.loc 1 175 3 is_stmt 1 view .LVU120
 175:Core/Src/main.c ****   HAL_FLASH_Unlock();
 562              		.loc 1 175 12 is_stmt 0 view .LVU121
 563 0054 0023     		movs	r3, #0
 564 0056 0093     		str	r3, [sp]
 176:Core/Src/main.c **** 
 565              		.loc 1 176 3 is_stmt 1 view .LVU122
 566 0058 FFF7FEFF 		bl	HAL_FLASH_Unlock
 567              	.LVL46:
 178:Core/Src/main.c ****   {
 568              		.loc 1 178 3 view .LVU123
 178:Core/Src/main.c ****   {
 569              		.loc 1 178 7 is_stmt 0 view .LVU124
 570 005c 6946     		mov	r1, sp
 571 005e 0BA8     		add	r0, sp, #44
 572 0060 FFF7FEFF 		bl	HAL_FLASHEx_Erase
 573              	.LVL47:
 178:Core/Src/main.c ****   {
 574              		.loc 1 178 6 view .LVU125
 575 0064 80B9     		cbnz	r0, .L34
 576              	.LBB8:
 188:Core/Src/main.c ****   {
 577              		.loc 1 188 15 view .LVU126
 578 0066 0024     		movs	r4, #0
 579              	.L28:
 580              	.LVL48:
 188:Core/Src/main.c ****   {
 581              		.loc 1 188 22 is_stmt 1 discriminator 1 view .LVU127
ARM GAS  /tmp/cc8nHYuQ.s 			page 21


 188:Core/Src/main.c ****   {
 582              		.loc 1 188 3 is_stmt 0 discriminator 1 view .LVU128
 583 0068 272C     		cmp	r4, #39
 584 006a 16D8     		bhi	.L35
 190:Core/Src/main.c ****           HAL_FLASH_Lock();
 585              		.loc 1 190 7 is_stmt 1 view .LVU129
 190:Core/Src/main.c ****           HAL_FLASH_Lock();
 586              		.loc 1 190 64 is_stmt 0 view .LVU130
 587 006c 10AB     		add	r3, sp, #64
 588 006e 03EB8403 		add	r3, r3, r4, lsl #2
 190:Core/Src/main.c ****           HAL_FLASH_Lock();
 589              		.loc 1 190 11 view .LVU131
 590 0072 53F83C2C 		ldr	r2, [r3, #-60]
 591 0076 0023     		movs	r3, #0
 592 0078 2946     		mov	r1, r5
 593 007a 0220     		movs	r0, #2
 594 007c FFF7FEFF 		bl	HAL_FLASH_Program
 595              	.LVL49:
 190:Core/Src/main.c ****           HAL_FLASH_Lock();
 596              		.loc 1 190 10 view .LVU132
 597 0080 30B9     		cbnz	r0, .L36
 194:Core/Src/main.c ****   }
 598              		.loc 1 194 7 is_stmt 1 discriminator 2 view .LVU133
 194:Core/Src/main.c ****   }
 599              		.loc 1 194 12 is_stmt 0 discriminator 2 view .LVU134
 600 0082 0435     		adds	r5, r5, #4
 601              	.LVL50:
 188:Core/Src/main.c ****   {
 602              		.loc 1 188 44 is_stmt 1 discriminator 2 view .LVU135
 188:Core/Src/main.c ****   {
 603              		.loc 1 188 45 is_stmt 0 discriminator 2 view .LVU136
 604 0084 0134     		adds	r4, r4, #1
 605              	.LVL51:
 188:Core/Src/main.c ****   {
 606              		.loc 1 188 45 discriminator 2 view .LVU137
 607 0086 EFE7     		b	.L28
 608              	.LVL52:
 609              	.L34:
 188:Core/Src/main.c ****   {
 610              		.loc 1 188 45 discriminator 2 view .LVU138
 611              	.LBE8:
 180:Core/Src/main.c ****       return false;
 612              		.loc 1 180 7 is_stmt 1 view .LVU139
 613 0088 FFF7FEFF 		bl	HAL_FLASH_Lock
 614              	.LVL53:
 181:Core/Src/main.c ****   }
 615              		.loc 1 181 7 view .LVU140
 181:Core/Src/main.c ****   }
 616              		.loc 1 181 14 is_stmt 0 view .LVU141
 617 008c 0020     		movs	r0, #0
 618 008e 02E0     		b	.L29
 619              	.LVL54:
 620              	.L36:
 621              	.LBB9:
 191:Core/Src/main.c ****           return false;
 622              		.loc 1 191 11 is_stmt 1 view .LVU142
 623 0090 FFF7FEFF 		bl	HAL_FLASH_Lock
ARM GAS  /tmp/cc8nHYuQ.s 			page 22


 624              	.LVL55:
 192:Core/Src/main.c ****       }
 625              		.loc 1 192 11 view .LVU143
 192:Core/Src/main.c ****       }
 626              		.loc 1 192 18 is_stmt 0 view .LVU144
 627 0094 0020     		movs	r0, #0
 628              	.LVL56:
 629              	.L29:
 192:Core/Src/main.c ****       }
 630              		.loc 1 192 18 view .LVU145
 631              	.LBE9:
 200:Core/Src/main.c **** 
 632              		.loc 1 200 1 view .LVU146
 633 0096 10B0     		add	sp, sp, #64
 634              	.LCFI6:
 635              		.cfi_remember_state
 636              		.cfi_def_cfa_offset 16
 637              		@ sp needed
 638 0098 70BD     		pop	{r4, r5, r6, pc}
 639              	.LVL57:
 640              	.L35:
 641              	.LCFI7:
 642              		.cfi_restore_state
 197:Core/Src/main.c **** 
 643              		.loc 1 197 3 is_stmt 1 view .LVU147
 644 009a FFF7FEFF 		bl	HAL_FLASH_Lock
 645              	.LVL58:
 199:Core/Src/main.c **** }
 646              		.loc 1 199 3 view .LVU148
 199:Core/Src/main.c **** }
 647              		.loc 1 199 10 is_stmt 0 view .LVU149
 648 009e 0120     		movs	r0, #1
 649 00a0 F9E7     		b	.L29
 650              	.L38:
 651 00a2 00BF     		.align	2
 652              	.L37:
 653 00a4 00000000 		.word	__flash_data_start__
 654              		.cfi_endproc
 655              	.LFE142:
 657              		.section	.text.setLED,"ax",%progbits
 658              		.align	1
 659              		.global	setLED
 660              		.syntax unified
 661              		.thumb
 662              		.thumb_func
 663              		.fpu fpv4-sp-d16
 665              	setLED:
 666              	.LVL59:
 667              	.LFB143:
 203:Core/Src/main.c ****   HAL_GPIO_WritePin(LD2_GPIO_Port, LD2_Pin, color == GREEN);
 668              		.loc 1 203 1 is_stmt 1 view -0
 669              		.cfi_startproc
 670              		@ args = 0, pretend = 0, frame = 0
 671              		@ frame_needed = 0, uses_anonymous_args = 0
 203:Core/Src/main.c ****   HAL_GPIO_WritePin(LD2_GPIO_Port, LD2_Pin, color == GREEN);
 672              		.loc 1 203 1 is_stmt 0 view .LVU151
 673 0000 08B5     		push	{r3, lr}
ARM GAS  /tmp/cc8nHYuQ.s 			page 23


 674              	.LCFI8:
 675              		.cfi_def_cfa_offset 8
 676              		.cfi_offset 3, -8
 677              		.cfi_offset 14, -4
 204:Core/Src/main.c **** }
 678              		.loc 1 204 3 is_stmt 1 view .LVU152
 679 0002 0228     		cmp	r0, #2
 680 0004 14BF     		ite	ne
 681 0006 0022     		movne	r2, #0
 682 0008 0122     		moveq	r2, #1
 683 000a 2021     		movs	r1, #32
 684 000c 0148     		ldr	r0, .L41
 685              	.LVL60:
 204:Core/Src/main.c **** }
 686              		.loc 1 204 3 is_stmt 0 view .LVU153
 687 000e FFF7FEFF 		bl	HAL_GPIO_WritePin
 688              	.LVL61:
 205:Core/Src/main.c **** 
 689              		.loc 1 205 1 view .LVU154
 690 0012 08BD     		pop	{r3, pc}
 691              	.L42:
 692              		.align	2
 693              	.L41:
 694 0014 00000240 		.word	1073872896
 695              		.cfi_endproc
 696              	.LFE143:
 698              		.section	.text.buttonPressed,"ax",%progbits
 699              		.align	1
 700              		.global	buttonPressed
 701              		.syntax unified
 702              		.thumb
 703              		.thumb_func
 704              		.fpu fpv4-sp-d16
 706              	buttonPressed:
 707              	.LFB144:
 208:Core/Src/main.c ****   static uint32_t history = 0;
 708              		.loc 1 208 1 is_stmt 1 view -0
 709              		.cfi_startproc
 710              		@ args = 0, pretend = 0, frame = 0
 711              		@ frame_needed = 0, uses_anonymous_args = 0
 712 0000 08B5     		push	{r3, lr}
 713              	.LCFI9:
 714              		.cfi_def_cfa_offset 8
 715              		.cfi_offset 3, -8
 716              		.cfi_offset 14, -4
 209:Core/Src/main.c ****   static bool latched = false;
 717              		.loc 1 209 3 view .LVU156
 210:Core/Src/main.c **** 
 718              		.loc 1 210 3 view .LVU157
 212:Core/Src/main.c **** 
 719              		.loc 1 212 3 view .LVU158
 212:Core/Src/main.c **** 
 720              		.loc 1 212 22 is_stmt 0 view .LVU159
 721 0002 4FF40051 		mov	r1, #8192
 722 0006 0E48     		ldr	r0, .L49
 723 0008 FFF7FEFF 		bl	HAL_GPIO_ReadPin
 724              	.LVL62:
ARM GAS  /tmp/cc8nHYuQ.s 			page 24


 214:Core/Src/main.c ****             (buttonValue == GPIO_PIN_RESET);
 725              		.loc 1 214 3 is_stmt 1 view .LVU160
 214:Core/Src/main.c ****             (buttonValue == GPIO_PIN_RESET);
 726              		.loc 1 214 22 is_stmt 0 view .LVU161
 727 000c 0D4B     		ldr	r3, .L49+4
 728 000e 1A68     		ldr	r2, [r3]
 215:Core/Src/main.c **** 
 729              		.loc 1 215 26 view .LVU162
 730 0010 B0FA80F0 		clz	r0, r0
 731              	.LVL63:
 215:Core/Src/main.c **** 
 732              		.loc 1 215 26 view .LVU163
 733 0014 4009     		lsrs	r0, r0, #5
 214:Core/Src/main.c ****             (buttonValue == GPIO_PIN_RESET);
 734              		.loc 1 214 28 view .LVU164
 735 0016 40EA4200 		orr	r0, r0, r2, lsl #1
 214:Core/Src/main.c ****             (buttonValue == GPIO_PIN_RESET);
 736              		.loc 1 214 11 view .LVU165
 737 001a 1860     		str	r0, [r3]
 217:Core/Src/main.c ****       latched = true;
 738              		.loc 1 217 3 is_stmt 1 view .LVU166
 217:Core/Src/main.c ****       latched = true;
 739              		.loc 1 217 6 is_stmt 0 view .LVU167
 740 001c B0F1FF3F 		cmp	r0, #-1
 741 0020 03D0     		beq	.L48
 742              	.L44:
 222:Core/Src/main.c ****       latched = false;    // fully released
 743              		.loc 1 222 3 is_stmt 1 view .LVU168
 222:Core/Src/main.c ****       latched = false;    // fully released
 744              		.loc 1 222 6 is_stmt 0 view .LVU169
 745 0022 50B9     		cbnz	r0, .L46
 223:Core/Src/main.c ****   }
 746              		.loc 1 223 7 is_stmt 1 view .LVU170
 223:Core/Src/main.c ****   }
 747              		.loc 1 223 15 is_stmt 0 view .LVU171
 748 0024 084B     		ldr	r3, .L49+8
 749 0026 1870     		strb	r0, [r3]
 750              	.L45:
 227:Core/Src/main.c **** 
 751              		.loc 1 227 1 view .LVU172
 752 0028 08BD     		pop	{r3, pc}
 753              	.L48:
 217:Core/Src/main.c ****       latched = true;
 754              		.loc 1 217 32 discriminator 1 view .LVU173
 755 002a 074B     		ldr	r3, .L49+8
 756 002c 1B78     		ldrb	r3, [r3]	@ zero_extendqisi2
 217:Core/Src/main.c ****       latched = true;
 757              		.loc 1 217 29 discriminator 1 view .LVU174
 758 002e 002B     		cmp	r3, #0
 759 0030 F7D1     		bne	.L44
 218:Core/Src/main.c ****       return true;        // button just pressed
 760              		.loc 1 218 7 is_stmt 1 view .LVU175
 218:Core/Src/main.c ****       return true;        // button just pressed
 761              		.loc 1 218 15 is_stmt 0 view .LVU176
 762 0032 0120     		movs	r0, #1
 763 0034 044B     		ldr	r3, .L49+8
 764 0036 1870     		strb	r0, [r3]
ARM GAS  /tmp/cc8nHYuQ.s 			page 25


 219:Core/Src/main.c ****   }
 765              		.loc 1 219 7 is_stmt 1 view .LVU177
 219:Core/Src/main.c ****   }
 766              		.loc 1 219 14 is_stmt 0 view .LVU178
 767 0038 F6E7     		b	.L45
 768              	.L46:
 226:Core/Src/main.c **** }
 769              		.loc 1 226 10 view .LVU179
 770 003a 0020     		movs	r0, #0
 771 003c F4E7     		b	.L45
 772              	.L50:
 773 003e 00BF     		.align	2
 774              	.L49:
 775 0040 00080240 		.word	1073874944
 776 0044 00000000 		.word	.LANCHOR2
 777 0048 00000000 		.word	.LANCHOR3
 778              		.cfi_endproc
 779              	.LFE144:
 781              		.section	.text.uart_avail,"ax",%progbits
 782              		.align	1
 783              		.global	uart_avail
 784              		.syntax unified
 785              		.thumb
 786              		.thumb_func
 787              		.fpu fpv4-sp-d16
 789              	uart_avail:
 790              	.LVL64:
 791              	.LFB146:
 254:Core/Src/main.c **** 
 792              		.loc 1 254 33 is_stmt 1 view -0
 793              		.cfi_startproc
 794              		@ args = 0, pretend = 0, frame = 0
 795              		@ frame_needed = 0, uses_anonymous_args = 0
 796              		@ link register save eliminated.
 254:Core/Src/main.c **** 
 797              		.loc 1 254 35 view .LVU181
 254:Core/Src/main.c **** 
 798              		.loc 1 254 43 is_stmt 0 view .LVU182
 799 0000 034B     		ldr	r3, .L52
 800 0002 53F82030 		ldr	r3, [r3, r0, lsl #2]
 801 0006 1B68     		ldr	r3, [r3]
 802 0008 1868     		ldr	r0, [r3]
 803              	.LVL65:
 254:Core/Src/main.c **** 
 804              		.loc 1 254 107 view .LVU183
 805 000a C0F34010 		ubfx	r0, r0, #5, #1
 806 000e 7047     		bx	lr
 807              	.L53:
 808              		.align	2
 809              	.L52:
 810 0010 00000000 		.word	.LANCHOR4
 811              		.cfi_endproc
 812              	.LFE146:
 814              		.section	.text.uart_readb,"ax",%progbits
 815              		.align	1
 816              		.global	uart_readb
 817              		.syntax unified
ARM GAS  /tmp/cc8nHYuQ.s 			page 26


 818              		.thumb
 819              		.thumb_func
 820              		.fpu fpv4-sp-d16
 822              	uart_readb:
 823              	.LVL66:
 824              	.LFB147:
 263:Core/Src/main.c ****   int32_t c;
 825              		.loc 1 263 1 is_stmt 1 view -0
 826              		.cfi_startproc
 827              		@ args = 0, pretend = 0, frame = 8
 828              		@ frame_needed = 0, uses_anonymous_args = 0
 263:Core/Src/main.c ****   int32_t c;
 829              		.loc 1 263 1 is_stmt 0 view .LVU185
 830 0000 10B5     		push	{r4, lr}
 831              	.LCFI10:
 832              		.cfi_def_cfa_offset 8
 833              		.cfi_offset 4, -8
 834              		.cfi_offset 14, -4
 835 0002 82B0     		sub	sp, sp, #8
 836              	.LCFI11:
 837              		.cfi_def_cfa_offset 16
 264:Core/Src/main.c ****   HAL_UART_Receive(uart_base[uart], (uint8_t*)(&c), 1, HAL_MAX_DELAY);
 838              		.loc 1 264 3 is_stmt 1 view .LVU186
 265:Core/Src/main.c ****   return c;
 839              		.loc 1 265 3 view .LVU187
 840 0004 4FF0FF33 		mov	r3, #-1
 841 0008 0122     		movs	r2, #1
 842 000a 01A9     		add	r1, sp, #4
 843 000c 034C     		ldr	r4, .L56
 844 000e 54F82000 		ldr	r0, [r4, r0, lsl #2]
 845              	.LVL67:
 265:Core/Src/main.c ****   return c;
 846              		.loc 1 265 3 is_stmt 0 view .LVU188
 847 0012 FFF7FEFF 		bl	HAL_UART_Receive
 848              	.LVL68:
 266:Core/Src/main.c **** }
 849              		.loc 1 266 3 is_stmt 1 view .LVU189
 267:Core/Src/main.c **** 
 850              		.loc 1 267 1 is_stmt 0 view .LVU190
 851 0016 0198     		ldr	r0, [sp, #4]
 852 0018 02B0     		add	sp, sp, #8
 853              	.LCFI12:
 854              		.cfi_def_cfa_offset 8
 855              		@ sp needed
 856 001a 10BD     		pop	{r4, pc}
 857              	.L57:
 858              		.align	2
 859              	.L56:
 860 001c 00000000 		.word	.LANCHOR4
 861              		.cfi_endproc
 862              	.LFE147:
 864              		.section	.text.uart_read,"ax",%progbits
 865              		.align	1
 866              		.global	uart_read
 867              		.syntax unified
 868              		.thumb
 869              		.thumb_func
ARM GAS  /tmp/cc8nHYuQ.s 			page 27


 870              		.fpu fpv4-sp-d16
 872              	uart_read:
 873              	.LVL69:
 874              	.LFB148:
 278:Core/Src/main.c ****   HAL_UART_Receive(uart_base[uart], buf, n, HAL_MAX_DELAY);
 875              		.loc 1 278 1 is_stmt 1 view -0
 876              		.cfi_startproc
 877              		@ args = 0, pretend = 0, frame = 0
 878              		@ frame_needed = 0, uses_anonymous_args = 0
 278:Core/Src/main.c ****   HAL_UART_Receive(uart_base[uart], buf, n, HAL_MAX_DELAY);
 879              		.loc 1 278 1 is_stmt 0 view .LVU192
 880 0000 38B5     		push	{r3, r4, r5, lr}
 881              	.LCFI13:
 882              		.cfi_def_cfa_offset 16
 883              		.cfi_offset 3, -16
 884              		.cfi_offset 4, -12
 885              		.cfi_offset 5, -8
 886              		.cfi_offset 14, -4
 887 0002 1446     		mov	r4, r2
 279:Core/Src/main.c ****   return n;
 888              		.loc 1 279 3 is_stmt 1 view .LVU193
 889 0004 4FF0FF33 		mov	r3, #-1
 890 0008 92B2     		uxth	r2, r2
 891              	.LVL70:
 279:Core/Src/main.c ****   return n;
 892              		.loc 1 279 3 is_stmt 0 view .LVU194
 893 000a 034D     		ldr	r5, .L60
 894 000c 55F82000 		ldr	r0, [r5, r0, lsl #2]
 895              	.LVL71:
 279:Core/Src/main.c ****   return n;
 896              		.loc 1 279 3 view .LVU195
 897 0010 FFF7FEFF 		bl	HAL_UART_Receive
 898              	.LVL72:
 280:Core/Src/main.c **** }
 899              		.loc 1 280 3 is_stmt 1 view .LVU196
 281:Core/Src/main.c **** 
 900              		.loc 1 281 1 is_stmt 0 view .LVU197
 901 0014 2046     		mov	r0, r4
 902 0016 38BD     		pop	{r3, r4, r5, pc}
 903              	.LVL73:
 904              	.L61:
 281:Core/Src/main.c **** 
 905              		.loc 1 281 1 view .LVU198
 906              		.align	2
 907              	.L60:
 908 0018 00000000 		.word	.LANCHOR4
 909              		.cfi_endproc
 910              	.LFE148:
 912              		.section	.text.uart_readline,"ax",%progbits
 913              		.align	1
 914              		.global	uart_readline
 915              		.syntax unified
 916              		.thumb
 917              		.thumb_func
 918              		.fpu fpv4-sp-d16
 920              	uart_readline:
 921              	.LVL74:
ARM GAS  /tmp/cc8nHYuQ.s 			page 28


 922              	.LFB149:
 290:Core/Src/main.c ****   uint32_t read = 0;
 923              		.loc 1 290 54 is_stmt 1 view -0
 924              		.cfi_startproc
 925              		@ args = 0, pretend = 0, frame = 8
 926              		@ frame_needed = 0, uses_anonymous_args = 0
 290:Core/Src/main.c ****   uint32_t read = 0;
 927              		.loc 1 290 54 is_stmt 0 view .LVU200
 928 0000 70B5     		push	{r4, r5, r6, lr}
 929              	.LCFI14:
 930              		.cfi_def_cfa_offset 16
 931              		.cfi_offset 4, -16
 932              		.cfi_offset 5, -12
 933              		.cfi_offset 6, -8
 934              		.cfi_offset 14, -4
 935 0002 82B0     		sub	sp, sp, #8
 936              	.LCFI15:
 937              		.cfi_def_cfa_offset 24
 938 0004 0E46     		mov	r6, r1
 291:Core/Src/main.c ****   uint8_t c;
 939              		.loc 1 291 3 is_stmt 1 view .LVU201
 940              	.LVL75:
 292:Core/Src/main.c ****   UART_HandleTypeDef* base = uart_base[uart];
 941              		.loc 1 292 3 view .LVU202
 293:Core/Src/main.c **** 
 942              		.loc 1 293 3 view .LVU203
 293:Core/Src/main.c **** 
 943              		.loc 1 293 23 is_stmt 0 view .LVU204
 944 0006 104B     		ldr	r3, .L67
 945 0008 53F82050 		ldr	r5, [r3, r0, lsl #2]
 946              	.LVL76:
 291:Core/Src/main.c ****   uint8_t c;
 947              		.loc 1 291 12 view .LVU205
 948 000c 0024     		movs	r4, #0
 949 000e 05E0     		b	.L65
 950              	.LVL77:
 951              	.L63:
 305:Core/Src/main.c **** 
 952              		.loc 1 305 11 is_stmt 1 view .LVU206
 305:Core/Src/main.c **** 
 953              		.loc 1 305 15 is_stmt 0 view .LVU207
 954 0010 9DF80730 		ldrb	r3, [sp, #7]	@ zero_extendqisi2
 305:Core/Src/main.c **** 
 955              		.loc 1 305 3 view .LVU208
 956 0014 0A2B     		cmp	r3, #10
 957 0016 12D0     		beq	.L64
 305:Core/Src/main.c **** 
 958              		.loc 1 305 24 discriminator 1 view .LVU209
 959 0018 0D2B     		cmp	r3, #13
 960 001a 10D0     		beq	.L64
 961              	.LVL78:
 962              	.L65:
 295:Core/Src/main.c ****   {
 963              		.loc 1 295 3 is_stmt 1 view .LVU210
 297:Core/Src/main.c **** 
 964              		.loc 1 297 5 view .LVU211
 965 001c 4FF0FF33 		mov	r3, #-1
ARM GAS  /tmp/cc8nHYuQ.s 			page 29


 966 0020 0122     		movs	r2, #1
 967 0022 0DF10701 		add	r1, sp, #7
 968 0026 2846     		mov	r0, r5
 969 0028 FFF7FEFF 		bl	HAL_UART_Receive
 970              	.LVL79:
 299:Core/Src/main.c ****     {
 971              		.loc 1 299 5 view .LVU212
 299:Core/Src/main.c ****     {
 972              		.loc 1 299 12 is_stmt 0 view .LVU213
 973 002c 9DF80730 		ldrb	r3, [sp, #7]	@ zero_extendqisi2
 299:Core/Src/main.c ****     {
 974              		.loc 1 299 8 view .LVU214
 975 0030 0D2B     		cmp	r3, #13
 976 0032 EDD0     		beq	.L63
 299:Core/Src/main.c ****     {
 977              		.loc 1 299 21 discriminator 1 view .LVU215
 978 0034 0A2B     		cmp	r3, #10
 979 0036 EBD0     		beq	.L63
 301:Core/Src/main.c ****       read++;
 980              		.loc 1 301 7 is_stmt 1 view .LVU216
 301:Core/Src/main.c ****       read++;
 981              		.loc 1 301 17 is_stmt 0 view .LVU217
 982 0038 3355     		strb	r3, [r6, r4]
 302:Core/Src/main.c ****     }
 983              		.loc 1 302 7 is_stmt 1 view .LVU218
 302:Core/Src/main.c ****     }
 984              		.loc 1 302 11 is_stmt 0 view .LVU219
 985 003a 0134     		adds	r4, r4, #1
 986              	.LVL80:
 302:Core/Src/main.c ****     }
 987              		.loc 1 302 11 view .LVU220
 988 003c E8E7     		b	.L63
 989              	.L64:
 307:Core/Src/main.c **** 
 990              		.loc 1 307 3 is_stmt 1 view .LVU221
 307:Core/Src/main.c **** 
 991              		.loc 1 307 13 is_stmt 0 view .LVU222
 992 003e 0023     		movs	r3, #0
 993 0040 3355     		strb	r3, [r6, r4]
 309:Core/Src/main.c **** }
 994              		.loc 1 309 3 is_stmt 1 view .LVU223
 310:Core/Src/main.c **** 
 995              		.loc 1 310 1 is_stmt 0 view .LVU224
 996 0042 2046     		mov	r0, r4
 997 0044 02B0     		add	sp, sp, #8
 998              	.LCFI16:
 999              		.cfi_def_cfa_offset 16
 1000              		@ sp needed
 1001 0046 70BD     		pop	{r4, r5, r6, pc}
 1002              	.LVL81:
 1003              	.L68:
 310:Core/Src/main.c **** 
 1004              		.loc 1 310 1 view .LVU225
 1005              		.align	2
 1006              	.L67:
 1007 0048 00000000 		.word	.LANCHOR4
 1008              		.cfi_endproc
ARM GAS  /tmp/cc8nHYuQ.s 			page 30


 1009              	.LFE149:
 1011              		.section	.text.uart_writeb,"ax",%progbits
 1012              		.align	1
 1013              		.global	uart_writeb
 1014              		.syntax unified
 1015              		.thumb
 1016              		.thumb_func
 1017              		.fpu fpv4-sp-d16
 1019              	uart_writeb:
 1020              	.LVL82:
 1021              	.LFB150:
 319:Core/Src/main.c ****   HAL_UART_Transmit(uart_base[uart], &data, 1, HAL_MAX_DELAY);
 1022              		.loc 1 319 1 is_stmt 1 view -0
 1023              		.cfi_startproc
 1024              		@ args = 0, pretend = 0, frame = 8
 1025              		@ frame_needed = 0, uses_anonymous_args = 0
 319:Core/Src/main.c ****   HAL_UART_Transmit(uart_base[uart], &data, 1, HAL_MAX_DELAY);
 1026              		.loc 1 319 1 is_stmt 0 view .LVU227
 1027 0000 10B5     		push	{r4, lr}
 1028              	.LCFI17:
 1029              		.cfi_def_cfa_offset 8
 1030              		.cfi_offset 4, -8
 1031              		.cfi_offset 14, -4
 1032 0002 82B0     		sub	sp, sp, #8
 1033              	.LCFI18:
 1034              		.cfi_def_cfa_offset 16
 1035 0004 8DF80710 		strb	r1, [sp, #7]
 320:Core/Src/main.c **** }
 1036              		.loc 1 320 3 is_stmt 1 view .LVU228
 1037 0008 4FF0FF33 		mov	r3, #-1
 1038 000c 0122     		movs	r2, #1
 1039 000e 0DF10701 		add	r1, sp, #7
 1040              	.LVL83:
 320:Core/Src/main.c **** }
 1041              		.loc 1 320 3 is_stmt 0 view .LVU229
 1042 0012 034C     		ldr	r4, .L71
 1043 0014 54F82000 		ldr	r0, [r4, r0, lsl #2]
 1044              	.LVL84:
 320:Core/Src/main.c **** }
 1045              		.loc 1 320 3 view .LVU230
 1046 0018 FFF7FEFF 		bl	HAL_UART_Transmit
 1047              	.LVL85:
 321:Core/Src/main.c **** 
 1048              		.loc 1 321 1 view .LVU231
 1049 001c 02B0     		add	sp, sp, #8
 1050              	.LCFI19:
 1051              		.cfi_def_cfa_offset 8
 1052              		@ sp needed
 1053 001e 10BD     		pop	{r4, pc}
 1054              	.L72:
 1055              		.align	2
 1056              	.L71:
 1057 0020 00000000 		.word	.LANCHOR4
 1058              		.cfi_endproc
 1059              	.LFE150:
 1061              		.section	.text.uart_write,"ax",%progbits
 1062              		.align	1
ARM GAS  /tmp/cc8nHYuQ.s 			page 31


 1063              		.global	uart_write
 1064              		.syntax unified
 1065              		.thumb
 1066              		.thumb_func
 1067              		.fpu fpv4-sp-d16
 1069              	uart_write:
 1070              	.LVL86:
 1071              	.LFB151:
 332:Core/Src/main.c ****   HAL_UART_Transmit(uart_base[uart], buf, len, HAL_MAX_DELAY);
 1072              		.loc 1 332 1 is_stmt 1 view -0
 1073              		.cfi_startproc
 1074              		@ args = 0, pretend = 0, frame = 0
 1075              		@ frame_needed = 0, uses_anonymous_args = 0
 332:Core/Src/main.c ****   HAL_UART_Transmit(uart_base[uart], buf, len, HAL_MAX_DELAY);
 1076              		.loc 1 332 1 is_stmt 0 view .LVU233
 1077 0000 38B5     		push	{r3, r4, r5, lr}
 1078              	.LCFI20:
 1079              		.cfi_def_cfa_offset 16
 1080              		.cfi_offset 3, -16
 1081              		.cfi_offset 4, -12
 1082              		.cfi_offset 5, -8
 1083              		.cfi_offset 14, -4
 1084 0002 1446     		mov	r4, r2
 333:Core/Src/main.c ****   return len;
 1085              		.loc 1 333 3 is_stmt 1 view .LVU234
 1086 0004 4FF0FF33 		mov	r3, #-1
 1087 0008 92B2     		uxth	r2, r2
 1088              	.LVL87:
 333:Core/Src/main.c ****   return len;
 1089              		.loc 1 333 3 is_stmt 0 view .LVU235
 1090 000a 034D     		ldr	r5, .L75
 1091 000c 55F82000 		ldr	r0, [r5, r0, lsl #2]
 1092              	.LVL88:
 333:Core/Src/main.c ****   return len;
 1093              		.loc 1 333 3 view .LVU236
 1094 0010 FFF7FEFF 		bl	HAL_UART_Transmit
 1095              	.LVL89:
 334:Core/Src/main.c **** }
 1096              		.loc 1 334 3 is_stmt 1 view .LVU237
 335:Core/Src/main.c **** /* USER CODE END 0 */
 1097              		.loc 1 335 1 is_stmt 0 view .LVU238
 1098 0014 2046     		mov	r0, r4
 1099 0016 38BD     		pop	{r3, r4, r5, pc}
 1100              	.LVL90:
 1101              	.L76:
 335:Core/Src/main.c **** /* USER CODE END 0 */
 1102              		.loc 1 335 1 view .LVU239
 1103              		.align	2
 1104              	.L75:
 1105 0018 00000000 		.word	.LANCHOR4
 1106              		.cfi_endproc
 1107              	.LFE151:
 1109              		.section	.text.Error_Handler,"ax",%progbits
 1110              		.align	1
 1111              		.global	Error_Handler
 1112              		.syntax unified
 1113              		.thumb
ARM GAS  /tmp/cc8nHYuQ.s 			page 32


 1114              		.thumb_func
 1115              		.fpu fpv4-sp-d16
 1117              	Error_Handler:
 1118              	.LFB156:
 493:Core/Src/main.c **** 
 494:Core/Src/main.c **** /* USER CODE BEGIN 4 */
 495:Core/Src/main.c **** 
 496:Core/Src/main.c **** /* USER CODE END 4 */
 497:Core/Src/main.c **** 
 498:Core/Src/main.c **** /**
 499:Core/Src/main.c ****   * @brief  This function is executed in case of error occurrence.
 500:Core/Src/main.c ****   * @retval None
 501:Core/Src/main.c ****   */
 502:Core/Src/main.c **** void Error_Handler(void)
 503:Core/Src/main.c **** {
 1119              		.loc 1 503 1 is_stmt 1 view -0
 1120              		.cfi_startproc
 1121              		@ Volatile: function does not return.
 1122              		@ args = 0, pretend = 0, frame = 0
 1123              		@ frame_needed = 0, uses_anonymous_args = 0
 1124              		@ link register save eliminated.
 504:Core/Src/main.c ****   /* USER CODE BEGIN Error_Handler_Debug */
 505:Core/Src/main.c ****   /* User can add his own implementation to report the HAL error return state */
 506:Core/Src/main.c ****   __disable_irq();
 1125              		.loc 1 506 3 view .LVU241
 1126              	.LBB10:
 1127              	.LBI10:
 1128              		.file 2 "Drivers/CMSIS/Include/cmsis_gcc.h"
   1:Drivers/CMSIS/Include/cmsis_gcc.h **** /**************************************************************************//**
   2:Drivers/CMSIS/Include/cmsis_gcc.h ****  * @file     cmsis_gcc.h
   3:Drivers/CMSIS/Include/cmsis_gcc.h ****  * @brief    CMSIS compiler GCC header file
   4:Drivers/CMSIS/Include/cmsis_gcc.h ****  * @version  V5.4.1
   5:Drivers/CMSIS/Include/cmsis_gcc.h ****  * @date     27. May 2021
   6:Drivers/CMSIS/Include/cmsis_gcc.h ****  ******************************************************************************/
   7:Drivers/CMSIS/Include/cmsis_gcc.h **** /*
   8:Drivers/CMSIS/Include/cmsis_gcc.h ****  * Copyright (c) 2009-2021 Arm Limited. All rights reserved.
   9:Drivers/CMSIS/Include/cmsis_gcc.h ****  *
  10:Drivers/CMSIS/Include/cmsis_gcc.h ****  * SPDX-License-Identifier: Apache-2.0
  11:Drivers/CMSIS/Include/cmsis_gcc.h ****  *
  12:Drivers/CMSIS/Include/cmsis_gcc.h ****  * Licensed under the Apache License, Version 2.0 (the License); you may
  13:Drivers/CMSIS/Include/cmsis_gcc.h ****  * not use this file except in compliance with the License.
  14:Drivers/CMSIS/Include/cmsis_gcc.h ****  * You may obtain a copy of the License at
  15:Drivers/CMSIS/Include/cmsis_gcc.h ****  *
  16:Drivers/CMSIS/Include/cmsis_gcc.h ****  * www.apache.org/licenses/LICENSE-2.0
  17:Drivers/CMSIS/Include/cmsis_gcc.h ****  *
  18:Drivers/CMSIS/Include/cmsis_gcc.h ****  * Unless required by applicable law or agreed to in writing, software
  19:Drivers/CMSIS/Include/cmsis_gcc.h ****  * distributed under the License is distributed on an AS IS BASIS, WITHOUT
  20:Drivers/CMSIS/Include/cmsis_gcc.h ****  * WARRANTIES OR CONDITIONS OF ANY KIND, either express or implied.
  21:Drivers/CMSIS/Include/cmsis_gcc.h ****  * See the License for the specific language governing permissions and
  22:Drivers/CMSIS/Include/cmsis_gcc.h ****  * limitations under the License.
  23:Drivers/CMSIS/Include/cmsis_gcc.h ****  */
  24:Drivers/CMSIS/Include/cmsis_gcc.h **** 
  25:Drivers/CMSIS/Include/cmsis_gcc.h **** #ifndef __CMSIS_GCC_H
  26:Drivers/CMSIS/Include/cmsis_gcc.h **** #define __CMSIS_GCC_H
  27:Drivers/CMSIS/Include/cmsis_gcc.h **** 
  28:Drivers/CMSIS/Include/cmsis_gcc.h **** /* ignore some GCC warnings */
  29:Drivers/CMSIS/Include/cmsis_gcc.h **** #pragma GCC diagnostic push
ARM GAS  /tmp/cc8nHYuQ.s 			page 33


  30:Drivers/CMSIS/Include/cmsis_gcc.h **** #pragma GCC diagnostic ignored "-Wsign-conversion"
  31:Drivers/CMSIS/Include/cmsis_gcc.h **** #pragma GCC diagnostic ignored "-Wconversion"
  32:Drivers/CMSIS/Include/cmsis_gcc.h **** #pragma GCC diagnostic ignored "-Wunused-parameter"
  33:Drivers/CMSIS/Include/cmsis_gcc.h **** 
  34:Drivers/CMSIS/Include/cmsis_gcc.h **** /* Fallback for __has_builtin */
  35:Drivers/CMSIS/Include/cmsis_gcc.h **** #ifndef __has_builtin
  36:Drivers/CMSIS/Include/cmsis_gcc.h ****   #define __has_builtin(x) (0)
  37:Drivers/CMSIS/Include/cmsis_gcc.h **** #endif
  38:Drivers/CMSIS/Include/cmsis_gcc.h **** 
  39:Drivers/CMSIS/Include/cmsis_gcc.h **** /* CMSIS compiler specific defines */
  40:Drivers/CMSIS/Include/cmsis_gcc.h **** #ifndef   __ASM
  41:Drivers/CMSIS/Include/cmsis_gcc.h ****   #define __ASM                                  __asm
  42:Drivers/CMSIS/Include/cmsis_gcc.h **** #endif
  43:Drivers/CMSIS/Include/cmsis_gcc.h **** #ifndef   __INLINE
  44:Drivers/CMSIS/Include/cmsis_gcc.h ****   #define __INLINE                               inline
  45:Drivers/CMSIS/Include/cmsis_gcc.h **** #endif
  46:Drivers/CMSIS/Include/cmsis_gcc.h **** #ifndef   __STATIC_INLINE
  47:Drivers/CMSIS/Include/cmsis_gcc.h ****   #define __STATIC_INLINE                        static inline
  48:Drivers/CMSIS/Include/cmsis_gcc.h **** #endif
  49:Drivers/CMSIS/Include/cmsis_gcc.h **** #ifndef   __STATIC_FORCEINLINE
  50:Drivers/CMSIS/Include/cmsis_gcc.h ****   #define __STATIC_FORCEINLINE                   __attribute__((always_inline)) static inline
  51:Drivers/CMSIS/Include/cmsis_gcc.h **** #endif
  52:Drivers/CMSIS/Include/cmsis_gcc.h **** #ifndef   __NO_RETURN
  53:Drivers/CMSIS/Include/cmsis_gcc.h ****   #define __NO_RETURN                            __attribute__((__noreturn__))
  54:Drivers/CMSIS/Include/cmsis_gcc.h **** #endif
  55:Drivers/CMSIS/Include/cmsis_gcc.h **** #ifndef   __USED
  56:Drivers/CMSIS/Include/cmsis_gcc.h ****   #define __USED                                 __attribute__((used))
  57:Drivers/CMSIS/Include/cmsis_gcc.h **** #endif
  58:Drivers/CMSIS/Include/cmsis_gcc.h **** #ifndef   __WEAK
  59:Drivers/CMSIS/Include/cmsis_gcc.h ****   #define __WEAK                                 __attribute__((weak))
  60:Drivers/CMSIS/Include/cmsis_gcc.h **** #endif
  61:Drivers/CMSIS/Include/cmsis_gcc.h **** #ifndef   __PACKED
  62:Drivers/CMSIS/Include/cmsis_gcc.h ****   #define __PACKED                               __attribute__((packed, aligned(1)))
  63:Drivers/CMSIS/Include/cmsis_gcc.h **** #endif
  64:Drivers/CMSIS/Include/cmsis_gcc.h **** #ifndef   __PACKED_STRUCT
  65:Drivers/CMSIS/Include/cmsis_gcc.h ****   #define __PACKED_STRUCT                        struct __attribute__((packed, aligned(1)))
  66:Drivers/CMSIS/Include/cmsis_gcc.h **** #endif
  67:Drivers/CMSIS/Include/cmsis_gcc.h **** #ifndef   __PACKED_UNION
  68:Drivers/CMSIS/Include/cmsis_gcc.h ****   #define __PACKED_UNION                         union __attribute__((packed, aligned(1)))
  69:Drivers/CMSIS/Include/cmsis_gcc.h **** #endif
  70:Drivers/CMSIS/Include/cmsis_gcc.h **** #ifndef   __UNALIGNED_UINT32        /* deprecated */
  71:Drivers/CMSIS/Include/cmsis_gcc.h ****   #pragma GCC diagnostic push
  72:Drivers/CMSIS/Include/cmsis_gcc.h ****   #pragma GCC diagnostic ignored "-Wpacked"
  73:Drivers/CMSIS/Include/cmsis_gcc.h ****   #pragma GCC diagnostic ignored "-Wattributes"
  74:Drivers/CMSIS/Include/cmsis_gcc.h ****   struct __attribute__((packed)) T_UINT32 { uint32_t v; };
  75:Drivers/CMSIS/Include/cmsis_gcc.h ****   #pragma GCC diagnostic pop
  76:Drivers/CMSIS/Include/cmsis_gcc.h ****   #define __UNALIGNED_UINT32(x)                  (((struct T_UINT32 *)(x))->v)
  77:Drivers/CMSIS/Include/cmsis_gcc.h **** #endif
  78:Drivers/CMSIS/Include/cmsis_gcc.h **** #ifndef   __UNALIGNED_UINT16_WRITE
  79:Drivers/CMSIS/Include/cmsis_gcc.h ****   #pragma GCC diagnostic push
  80:Drivers/CMSIS/Include/cmsis_gcc.h ****   #pragma GCC diagnostic ignored "-Wpacked"
  81:Drivers/CMSIS/Include/cmsis_gcc.h ****   #pragma GCC diagnostic ignored "-Wattributes"
  82:Drivers/CMSIS/Include/cmsis_gcc.h ****   __PACKED_STRUCT T_UINT16_WRITE { uint16_t v; };
  83:Drivers/CMSIS/Include/cmsis_gcc.h ****   #pragma GCC diagnostic pop
  84:Drivers/CMSIS/Include/cmsis_gcc.h ****   #define __UNALIGNED_UINT16_WRITE(addr, val)    (void)((((struct T_UINT16_WRITE *)(void *)(addr))-
  85:Drivers/CMSIS/Include/cmsis_gcc.h **** #endif
  86:Drivers/CMSIS/Include/cmsis_gcc.h **** #ifndef   __UNALIGNED_UINT16_READ
ARM GAS  /tmp/cc8nHYuQ.s 			page 34


  87:Drivers/CMSIS/Include/cmsis_gcc.h ****   #pragma GCC diagnostic push
  88:Drivers/CMSIS/Include/cmsis_gcc.h ****   #pragma GCC diagnostic ignored "-Wpacked"
  89:Drivers/CMSIS/Include/cmsis_gcc.h ****   #pragma GCC diagnostic ignored "-Wattributes"
  90:Drivers/CMSIS/Include/cmsis_gcc.h ****   __PACKED_STRUCT T_UINT16_READ { uint16_t v; };
  91:Drivers/CMSIS/Include/cmsis_gcc.h ****   #pragma GCC diagnostic pop
  92:Drivers/CMSIS/Include/cmsis_gcc.h ****   #define __UNALIGNED_UINT16_READ(addr)          (((const struct T_UINT16_READ *)(const void *)(add
  93:Drivers/CMSIS/Include/cmsis_gcc.h **** #endif
  94:Drivers/CMSIS/Include/cmsis_gcc.h **** #ifndef   __UNALIGNED_UINT32_WRITE
  95:Drivers/CMSIS/Include/cmsis_gcc.h ****   #pragma GCC diagnostic push
  96:Drivers/CMSIS/Include/cmsis_gcc.h ****   #pragma GCC diagnostic ignored "-Wpacked"
  97:Drivers/CMSIS/Include/cmsis_gcc.h ****   #pragma GCC diagnostic ignored "-Wattributes"
  98:Drivers/CMSIS/Include/cmsis_gcc.h ****   __PACKED_STRUCT T_UINT32_WRITE { uint32_t v; };
  99:Drivers/CMSIS/Include/cmsis_gcc.h ****   #pragma GCC diagnostic pop
 100:Drivers/CMSIS/Include/cmsis_gcc.h ****   #define __UNALIGNED_UINT32_WRITE(addr, val)    (void)((((struct T_UINT32_WRITE *)(void *)(addr))-
 101:Drivers/CMSIS/Include/cmsis_gcc.h **** #endif
 102:Drivers/CMSIS/Include/cmsis_gcc.h **** #ifndef   __UNALIGNED_UINT32_READ
 103:Drivers/CMSIS/Include/cmsis_gcc.h ****   #pragma GCC diagnostic push
 104:Drivers/CMSIS/Include/cmsis_gcc.h ****   #pragma GCC diagnostic ignored "-Wpacked"
 105:Drivers/CMSIS/Include/cmsis_gcc.h ****   #pragma GCC diagnostic ignored "-Wattributes"
 106:Drivers/CMSIS/Include/cmsis_gcc.h ****   __PACKED_STRUCT T_UINT32_READ { uint32_t v; };
 107:Drivers/CMSIS/Include/cmsis_gcc.h ****   #pragma GCC diagnostic pop
 108:Drivers/CMSIS/Include/cmsis_gcc.h ****   #define __UNALIGNED_UINT32_READ(addr)          (((const struct T_UINT32_READ *)(const void *)(add
 109:Drivers/CMSIS/Include/cmsis_gcc.h **** #endif
 110:Drivers/CMSIS/Include/cmsis_gcc.h **** #ifndef   __ALIGNED
 111:Drivers/CMSIS/Include/cmsis_gcc.h ****   #define __ALIGNED(x)                           __attribute__((aligned(x)))
 112:Drivers/CMSIS/Include/cmsis_gcc.h **** #endif
 113:Drivers/CMSIS/Include/cmsis_gcc.h **** #ifndef   __RESTRICT
 114:Drivers/CMSIS/Include/cmsis_gcc.h ****   #define __RESTRICT                             __restrict
 115:Drivers/CMSIS/Include/cmsis_gcc.h **** #endif
 116:Drivers/CMSIS/Include/cmsis_gcc.h **** #ifndef   __COMPILER_BARRIER
 117:Drivers/CMSIS/Include/cmsis_gcc.h ****   #define __COMPILER_BARRIER()                   __ASM volatile("":::"memory")
 118:Drivers/CMSIS/Include/cmsis_gcc.h **** #endif
 119:Drivers/CMSIS/Include/cmsis_gcc.h **** 
 120:Drivers/CMSIS/Include/cmsis_gcc.h **** /* #########################  Startup and Lowlevel Init  ######################## */
 121:Drivers/CMSIS/Include/cmsis_gcc.h **** 
 122:Drivers/CMSIS/Include/cmsis_gcc.h **** #ifndef __PROGRAM_START
 123:Drivers/CMSIS/Include/cmsis_gcc.h **** 
 124:Drivers/CMSIS/Include/cmsis_gcc.h **** /**
 125:Drivers/CMSIS/Include/cmsis_gcc.h ****   \brief   Initializes data and bss sections
 126:Drivers/CMSIS/Include/cmsis_gcc.h ****   \details This default implementations initialized all data and additional bss
 127:Drivers/CMSIS/Include/cmsis_gcc.h ****            sections relying on .copy.table and .zero.table specified properly
 128:Drivers/CMSIS/Include/cmsis_gcc.h ****            in the used linker script.
 129:Drivers/CMSIS/Include/cmsis_gcc.h **** 
 130:Drivers/CMSIS/Include/cmsis_gcc.h ****  */
 131:Drivers/CMSIS/Include/cmsis_gcc.h **** __STATIC_FORCEINLINE __NO_RETURN void __cmsis_start(void)
 132:Drivers/CMSIS/Include/cmsis_gcc.h **** {
 133:Drivers/CMSIS/Include/cmsis_gcc.h ****   extern void _start(void) __NO_RETURN;
 134:Drivers/CMSIS/Include/cmsis_gcc.h **** 
 135:Drivers/CMSIS/Include/cmsis_gcc.h ****   typedef struct {
 136:Drivers/CMSIS/Include/cmsis_gcc.h ****     uint32_t const* src;
 137:Drivers/CMSIS/Include/cmsis_gcc.h ****     uint32_t* dest;
 138:Drivers/CMSIS/Include/cmsis_gcc.h ****     uint32_t  wlen;
 139:Drivers/CMSIS/Include/cmsis_gcc.h ****   } __copy_table_t;
 140:Drivers/CMSIS/Include/cmsis_gcc.h **** 
 141:Drivers/CMSIS/Include/cmsis_gcc.h ****   typedef struct {
 142:Drivers/CMSIS/Include/cmsis_gcc.h ****     uint32_t* dest;
 143:Drivers/CMSIS/Include/cmsis_gcc.h ****     uint32_t  wlen;
ARM GAS  /tmp/cc8nHYuQ.s 			page 35


 144:Drivers/CMSIS/Include/cmsis_gcc.h ****   } __zero_table_t;
 145:Drivers/CMSIS/Include/cmsis_gcc.h **** 
 146:Drivers/CMSIS/Include/cmsis_gcc.h ****   extern const __copy_table_t __copy_table_start__;
 147:Drivers/CMSIS/Include/cmsis_gcc.h ****   extern const __copy_table_t __copy_table_end__;
 148:Drivers/CMSIS/Include/cmsis_gcc.h ****   extern const __zero_table_t __zero_table_start__;
 149:Drivers/CMSIS/Include/cmsis_gcc.h ****   extern const __zero_table_t __zero_table_end__;
 150:Drivers/CMSIS/Include/cmsis_gcc.h **** 
 151:Drivers/CMSIS/Include/cmsis_gcc.h ****   for (__copy_table_t const* pTable = &__copy_table_start__; pTable < &__copy_table_end__; ++pTable
 152:Drivers/CMSIS/Include/cmsis_gcc.h ****     for(uint32_t i=0u; i<pTable->wlen; ++i) {
 153:Drivers/CMSIS/Include/cmsis_gcc.h ****       pTable->dest[i] = pTable->src[i];
 154:Drivers/CMSIS/Include/cmsis_gcc.h ****     }
 155:Drivers/CMSIS/Include/cmsis_gcc.h ****   }
 156:Drivers/CMSIS/Include/cmsis_gcc.h **** 
 157:Drivers/CMSIS/Include/cmsis_gcc.h ****   for (__zero_table_t const* pTable = &__zero_table_start__; pTable < &__zero_table_end__; ++pTable
 158:Drivers/CMSIS/Include/cmsis_gcc.h ****     for(uint32_t i=0u; i<pTable->wlen; ++i) {
 159:Drivers/CMSIS/Include/cmsis_gcc.h ****       pTable->dest[i] = 0u;
 160:Drivers/CMSIS/Include/cmsis_gcc.h ****     }
 161:Drivers/CMSIS/Include/cmsis_gcc.h ****   }
 162:Drivers/CMSIS/Include/cmsis_gcc.h **** 
 163:Drivers/CMSIS/Include/cmsis_gcc.h ****   _start();
 164:Drivers/CMSIS/Include/cmsis_gcc.h **** }
 165:Drivers/CMSIS/Include/cmsis_gcc.h **** 
 166:Drivers/CMSIS/Include/cmsis_gcc.h **** #define __PROGRAM_START           __cmsis_start
 167:Drivers/CMSIS/Include/cmsis_gcc.h **** #endif
 168:Drivers/CMSIS/Include/cmsis_gcc.h **** 
 169:Drivers/CMSIS/Include/cmsis_gcc.h **** #ifndef __INITIAL_SP
 170:Drivers/CMSIS/Include/cmsis_gcc.h **** #define __INITIAL_SP              __StackTop
 171:Drivers/CMSIS/Include/cmsis_gcc.h **** #endif
 172:Drivers/CMSIS/Include/cmsis_gcc.h **** 
 173:Drivers/CMSIS/Include/cmsis_gcc.h **** #ifndef __STACK_LIMIT
 174:Drivers/CMSIS/Include/cmsis_gcc.h **** #define __STACK_LIMIT             __StackLimit
 175:Drivers/CMSIS/Include/cmsis_gcc.h **** #endif
 176:Drivers/CMSIS/Include/cmsis_gcc.h **** 
 177:Drivers/CMSIS/Include/cmsis_gcc.h **** #ifndef __VECTOR_TABLE
 178:Drivers/CMSIS/Include/cmsis_gcc.h **** #define __VECTOR_TABLE            __Vectors
 179:Drivers/CMSIS/Include/cmsis_gcc.h **** #endif
 180:Drivers/CMSIS/Include/cmsis_gcc.h **** 
 181:Drivers/CMSIS/Include/cmsis_gcc.h **** #ifndef __VECTOR_TABLE_ATTRIBUTE
 182:Drivers/CMSIS/Include/cmsis_gcc.h **** #define __VECTOR_TABLE_ATTRIBUTE  __attribute__((used, section(".vectors")))
 183:Drivers/CMSIS/Include/cmsis_gcc.h **** #endif
 184:Drivers/CMSIS/Include/cmsis_gcc.h **** 
 185:Drivers/CMSIS/Include/cmsis_gcc.h **** #if defined (__ARM_FEATURE_CMSE) && (__ARM_FEATURE_CMSE == 3U)
 186:Drivers/CMSIS/Include/cmsis_gcc.h **** #ifndef __STACK_SEAL
 187:Drivers/CMSIS/Include/cmsis_gcc.h **** #define __STACK_SEAL              __StackSeal
 188:Drivers/CMSIS/Include/cmsis_gcc.h **** #endif
 189:Drivers/CMSIS/Include/cmsis_gcc.h **** 
 190:Drivers/CMSIS/Include/cmsis_gcc.h **** #ifndef __TZ_STACK_SEAL_SIZE
 191:Drivers/CMSIS/Include/cmsis_gcc.h **** #define __TZ_STACK_SEAL_SIZE      8U
 192:Drivers/CMSIS/Include/cmsis_gcc.h **** #endif
 193:Drivers/CMSIS/Include/cmsis_gcc.h **** 
 194:Drivers/CMSIS/Include/cmsis_gcc.h **** #ifndef __TZ_STACK_SEAL_VALUE
 195:Drivers/CMSIS/Include/cmsis_gcc.h **** #define __TZ_STACK_SEAL_VALUE     0xFEF5EDA5FEF5EDA5ULL
 196:Drivers/CMSIS/Include/cmsis_gcc.h **** #endif
 197:Drivers/CMSIS/Include/cmsis_gcc.h **** 
 198:Drivers/CMSIS/Include/cmsis_gcc.h **** 
 199:Drivers/CMSIS/Include/cmsis_gcc.h **** __STATIC_FORCEINLINE void __TZ_set_STACKSEAL_S (uint32_t* stackTop) {
 200:Drivers/CMSIS/Include/cmsis_gcc.h ****   *((uint64_t *)stackTop) = __TZ_STACK_SEAL_VALUE;
ARM GAS  /tmp/cc8nHYuQ.s 			page 36


 201:Drivers/CMSIS/Include/cmsis_gcc.h **** }
 202:Drivers/CMSIS/Include/cmsis_gcc.h **** #endif
 203:Drivers/CMSIS/Include/cmsis_gcc.h **** 
 204:Drivers/CMSIS/Include/cmsis_gcc.h **** 
 205:Drivers/CMSIS/Include/cmsis_gcc.h **** /* ##########################  Core Instruction Access  ######################### */
 206:Drivers/CMSIS/Include/cmsis_gcc.h **** /** \defgroup CMSIS_Core_InstructionInterface CMSIS Core Instruction Interface
 207:Drivers/CMSIS/Include/cmsis_gcc.h ****   Access to dedicated instructions
 208:Drivers/CMSIS/Include/cmsis_gcc.h ****   @{
 209:Drivers/CMSIS/Include/cmsis_gcc.h **** */
 210:Drivers/CMSIS/Include/cmsis_gcc.h **** 
 211:Drivers/CMSIS/Include/cmsis_gcc.h **** /* Define macros for porting to both thumb1 and thumb2.
 212:Drivers/CMSIS/Include/cmsis_gcc.h ****  * For thumb1, use low register (r0-r7), specified by constraint "l"
 213:Drivers/CMSIS/Include/cmsis_gcc.h ****  * Otherwise, use general registers, specified by constraint "r" */
 214:Drivers/CMSIS/Include/cmsis_gcc.h **** #if defined (__thumb__) && !defined (__thumb2__)
 215:Drivers/CMSIS/Include/cmsis_gcc.h **** #define __CMSIS_GCC_OUT_REG(r) "=l" (r)
 216:Drivers/CMSIS/Include/cmsis_gcc.h **** #define __CMSIS_GCC_RW_REG(r) "+l" (r)
 217:Drivers/CMSIS/Include/cmsis_gcc.h **** #define __CMSIS_GCC_USE_REG(r) "l" (r)
 218:Drivers/CMSIS/Include/cmsis_gcc.h **** #else
 219:Drivers/CMSIS/Include/cmsis_gcc.h **** #define __CMSIS_GCC_OUT_REG(r) "=r" (r)
 220:Drivers/CMSIS/Include/cmsis_gcc.h **** #define __CMSIS_GCC_RW_REG(r) "+r" (r)
 221:Drivers/CMSIS/Include/cmsis_gcc.h **** #define __CMSIS_GCC_USE_REG(r) "r" (r)
 222:Drivers/CMSIS/Include/cmsis_gcc.h **** #endif
 223:Drivers/CMSIS/Include/cmsis_gcc.h **** 
 224:Drivers/CMSIS/Include/cmsis_gcc.h **** /**
 225:Drivers/CMSIS/Include/cmsis_gcc.h ****   \brief   No Operation
 226:Drivers/CMSIS/Include/cmsis_gcc.h ****   \details No Operation does nothing. This instruction can be used for code alignment purposes.
 227:Drivers/CMSIS/Include/cmsis_gcc.h ****  */
 228:Drivers/CMSIS/Include/cmsis_gcc.h **** #define __NOP()                             __ASM volatile ("nop")
 229:Drivers/CMSIS/Include/cmsis_gcc.h **** 
 230:Drivers/CMSIS/Include/cmsis_gcc.h **** /**
 231:Drivers/CMSIS/Include/cmsis_gcc.h ****   \brief   Wait For Interrupt
 232:Drivers/CMSIS/Include/cmsis_gcc.h ****   \details Wait For Interrupt is a hint instruction that suspends execution until one of a number o
 233:Drivers/CMSIS/Include/cmsis_gcc.h ****  */
 234:Drivers/CMSIS/Include/cmsis_gcc.h **** #define __WFI()                             __ASM volatile ("wfi":::"memory")
 235:Drivers/CMSIS/Include/cmsis_gcc.h **** 
 236:Drivers/CMSIS/Include/cmsis_gcc.h **** 
 237:Drivers/CMSIS/Include/cmsis_gcc.h **** /**
 238:Drivers/CMSIS/Include/cmsis_gcc.h ****   \brief   Wait For Event
 239:Drivers/CMSIS/Include/cmsis_gcc.h ****   \details Wait For Event is a hint instruction that permits the processor to enter
 240:Drivers/CMSIS/Include/cmsis_gcc.h ****            a low-power state until one of a number of events occurs.
 241:Drivers/CMSIS/Include/cmsis_gcc.h ****  */
 242:Drivers/CMSIS/Include/cmsis_gcc.h **** #define __WFE()                             __ASM volatile ("wfe":::"memory")
 243:Drivers/CMSIS/Include/cmsis_gcc.h **** 
 244:Drivers/CMSIS/Include/cmsis_gcc.h **** 
 245:Drivers/CMSIS/Include/cmsis_gcc.h **** /**
 246:Drivers/CMSIS/Include/cmsis_gcc.h ****   \brief   Send Event
 247:Drivers/CMSIS/Include/cmsis_gcc.h ****   \details Send Event is a hint instruction. It causes an event to be signaled to the CPU.
 248:Drivers/CMSIS/Include/cmsis_gcc.h ****  */
 249:Drivers/CMSIS/Include/cmsis_gcc.h **** #define __SEV()                             __ASM volatile ("sev")
 250:Drivers/CMSIS/Include/cmsis_gcc.h **** 
 251:Drivers/CMSIS/Include/cmsis_gcc.h **** 
 252:Drivers/CMSIS/Include/cmsis_gcc.h **** /**
 253:Drivers/CMSIS/Include/cmsis_gcc.h ****   \brief   Instruction Synchronization Barrier
 254:Drivers/CMSIS/Include/cmsis_gcc.h ****   \details Instruction Synchronization Barrier flushes the pipeline in the processor,
 255:Drivers/CMSIS/Include/cmsis_gcc.h ****            so that all instructions following the ISB are fetched from cache or memory,
 256:Drivers/CMSIS/Include/cmsis_gcc.h ****            after the instruction has been completed.
 257:Drivers/CMSIS/Include/cmsis_gcc.h ****  */
ARM GAS  /tmp/cc8nHYuQ.s 			page 37


 258:Drivers/CMSIS/Include/cmsis_gcc.h **** __STATIC_FORCEINLINE void __ISB(void)
 259:Drivers/CMSIS/Include/cmsis_gcc.h **** {
 260:Drivers/CMSIS/Include/cmsis_gcc.h ****   __ASM volatile ("isb 0xF":::"memory");
 261:Drivers/CMSIS/Include/cmsis_gcc.h **** }
 262:Drivers/CMSIS/Include/cmsis_gcc.h **** 
 263:Drivers/CMSIS/Include/cmsis_gcc.h **** 
 264:Drivers/CMSIS/Include/cmsis_gcc.h **** /**
 265:Drivers/CMSIS/Include/cmsis_gcc.h ****   \brief   Data Synchronization Barrier
 266:Drivers/CMSIS/Include/cmsis_gcc.h ****   \details Acts as a special kind of Data Memory Barrier.
 267:Drivers/CMSIS/Include/cmsis_gcc.h ****            It completes when all explicit memory accesses before this instruction complete.
 268:Drivers/CMSIS/Include/cmsis_gcc.h ****  */
 269:Drivers/CMSIS/Include/cmsis_gcc.h **** __STATIC_FORCEINLINE void __DSB(void)
 270:Drivers/CMSIS/Include/cmsis_gcc.h **** {
 271:Drivers/CMSIS/Include/cmsis_gcc.h ****   __ASM volatile ("dsb 0xF":::"memory");
 272:Drivers/CMSIS/Include/cmsis_gcc.h **** }
 273:Drivers/CMSIS/Include/cmsis_gcc.h **** 
 274:Drivers/CMSIS/Include/cmsis_gcc.h **** 
 275:Drivers/CMSIS/Include/cmsis_gcc.h **** /**
 276:Drivers/CMSIS/Include/cmsis_gcc.h ****   \brief   Data Memory Barrier
 277:Drivers/CMSIS/Include/cmsis_gcc.h ****   \details Ensures the apparent order of the explicit memory operations before
 278:Drivers/CMSIS/Include/cmsis_gcc.h ****            and after the instruction, without ensuring their completion.
 279:Drivers/CMSIS/Include/cmsis_gcc.h ****  */
 280:Drivers/CMSIS/Include/cmsis_gcc.h **** __STATIC_FORCEINLINE void __DMB(void)
 281:Drivers/CMSIS/Include/cmsis_gcc.h **** {
 282:Drivers/CMSIS/Include/cmsis_gcc.h ****   __ASM volatile ("dmb 0xF":::"memory");
 283:Drivers/CMSIS/Include/cmsis_gcc.h **** }
 284:Drivers/CMSIS/Include/cmsis_gcc.h **** 
 285:Drivers/CMSIS/Include/cmsis_gcc.h **** 
 286:Drivers/CMSIS/Include/cmsis_gcc.h **** /**
 287:Drivers/CMSIS/Include/cmsis_gcc.h ****   \brief   Reverse byte order (32 bit)
 288:Drivers/CMSIS/Include/cmsis_gcc.h ****   \details Reverses the byte order in unsigned integer value. For example, 0x12345678 becomes 0x785
 289:Drivers/CMSIS/Include/cmsis_gcc.h ****   \param [in]    value  Value to reverse
 290:Drivers/CMSIS/Include/cmsis_gcc.h ****   \return               Reversed value
 291:Drivers/CMSIS/Include/cmsis_gcc.h ****  */
 292:Drivers/CMSIS/Include/cmsis_gcc.h **** __STATIC_FORCEINLINE uint32_t __REV(uint32_t value)
 293:Drivers/CMSIS/Include/cmsis_gcc.h **** {
 294:Drivers/CMSIS/Include/cmsis_gcc.h **** #if (__GNUC__ > 4) || (__GNUC__ == 4 && __GNUC_MINOR__ >= 5)
 295:Drivers/CMSIS/Include/cmsis_gcc.h ****   return __builtin_bswap32(value);
 296:Drivers/CMSIS/Include/cmsis_gcc.h **** #else
 297:Drivers/CMSIS/Include/cmsis_gcc.h ****   uint32_t result;
 298:Drivers/CMSIS/Include/cmsis_gcc.h **** 
 299:Drivers/CMSIS/Include/cmsis_gcc.h ****   __ASM ("rev %0, %1" : __CMSIS_GCC_OUT_REG (result) : __CMSIS_GCC_USE_REG (value) );
 300:Drivers/CMSIS/Include/cmsis_gcc.h ****   return result;
 301:Drivers/CMSIS/Include/cmsis_gcc.h **** #endif
 302:Drivers/CMSIS/Include/cmsis_gcc.h **** }
 303:Drivers/CMSIS/Include/cmsis_gcc.h **** 
 304:Drivers/CMSIS/Include/cmsis_gcc.h **** 
 305:Drivers/CMSIS/Include/cmsis_gcc.h **** /**
 306:Drivers/CMSIS/Include/cmsis_gcc.h ****   \brief   Reverse byte order (16 bit)
 307:Drivers/CMSIS/Include/cmsis_gcc.h ****   \details Reverses the byte order within each halfword of a word. For example, 0x12345678 becomes 
 308:Drivers/CMSIS/Include/cmsis_gcc.h ****   \param [in]    value  Value to reverse
 309:Drivers/CMSIS/Include/cmsis_gcc.h ****   \return               Reversed value
 310:Drivers/CMSIS/Include/cmsis_gcc.h ****  */
 311:Drivers/CMSIS/Include/cmsis_gcc.h **** __STATIC_FORCEINLINE uint32_t __REV16(uint32_t value)
 312:Drivers/CMSIS/Include/cmsis_gcc.h **** {
 313:Drivers/CMSIS/Include/cmsis_gcc.h ****   uint32_t result;
 314:Drivers/CMSIS/Include/cmsis_gcc.h **** 
ARM GAS  /tmp/cc8nHYuQ.s 			page 38


 315:Drivers/CMSIS/Include/cmsis_gcc.h ****   __ASM ("rev16 %0, %1" : __CMSIS_GCC_OUT_REG (result) : __CMSIS_GCC_USE_REG (value) );
 316:Drivers/CMSIS/Include/cmsis_gcc.h ****   return result;
 317:Drivers/CMSIS/Include/cmsis_gcc.h **** }
 318:Drivers/CMSIS/Include/cmsis_gcc.h **** 
 319:Drivers/CMSIS/Include/cmsis_gcc.h **** 
 320:Drivers/CMSIS/Include/cmsis_gcc.h **** /**
 321:Drivers/CMSIS/Include/cmsis_gcc.h ****   \brief   Reverse byte order (16 bit)
 322:Drivers/CMSIS/Include/cmsis_gcc.h ****   \details Reverses the byte order in a 16-bit value and returns the signed 16-bit result. For exam
 323:Drivers/CMSIS/Include/cmsis_gcc.h ****   \param [in]    value  Value to reverse
 324:Drivers/CMSIS/Include/cmsis_gcc.h ****   \return               Reversed value
 325:Drivers/CMSIS/Include/cmsis_gcc.h ****  */
 326:Drivers/CMSIS/Include/cmsis_gcc.h **** __STATIC_FORCEINLINE int16_t __REVSH(int16_t value)
 327:Drivers/CMSIS/Include/cmsis_gcc.h **** {
 328:Drivers/CMSIS/Include/cmsis_gcc.h **** #if (__GNUC__ > 4) || (__GNUC__ == 4 && __GNUC_MINOR__ >= 8)
 329:Drivers/CMSIS/Include/cmsis_gcc.h ****   return (int16_t)__builtin_bswap16(value);
 330:Drivers/CMSIS/Include/cmsis_gcc.h **** #else
 331:Drivers/CMSIS/Include/cmsis_gcc.h ****   int16_t result;
 332:Drivers/CMSIS/Include/cmsis_gcc.h **** 
 333:Drivers/CMSIS/Include/cmsis_gcc.h ****   __ASM ("revsh %0, %1" : __CMSIS_GCC_OUT_REG (result) : __CMSIS_GCC_USE_REG (value) );
 334:Drivers/CMSIS/Include/cmsis_gcc.h ****   return result;
 335:Drivers/CMSIS/Include/cmsis_gcc.h **** #endif
 336:Drivers/CMSIS/Include/cmsis_gcc.h **** }
 337:Drivers/CMSIS/Include/cmsis_gcc.h **** 
 338:Drivers/CMSIS/Include/cmsis_gcc.h **** 
 339:Drivers/CMSIS/Include/cmsis_gcc.h **** /**
 340:Drivers/CMSIS/Include/cmsis_gcc.h ****   \brief   Rotate Right in unsigned value (32 bit)
 341:Drivers/CMSIS/Include/cmsis_gcc.h ****   \details Rotate Right (immediate) provides the value of the contents of a register rotated by a v
 342:Drivers/CMSIS/Include/cmsis_gcc.h ****   \param [in]    op1  Value to rotate
 343:Drivers/CMSIS/Include/cmsis_gcc.h ****   \param [in]    op2  Number of Bits to rotate
 344:Drivers/CMSIS/Include/cmsis_gcc.h ****   \return               Rotated value
 345:Drivers/CMSIS/Include/cmsis_gcc.h ****  */
 346:Drivers/CMSIS/Include/cmsis_gcc.h **** __STATIC_FORCEINLINE uint32_t __ROR(uint32_t op1, uint32_t op2)
 347:Drivers/CMSIS/Include/cmsis_gcc.h **** {
 348:Drivers/CMSIS/Include/cmsis_gcc.h ****   op2 %= 32U;
 349:Drivers/CMSIS/Include/cmsis_gcc.h ****   if (op2 == 0U)
 350:Drivers/CMSIS/Include/cmsis_gcc.h ****   {
 351:Drivers/CMSIS/Include/cmsis_gcc.h ****     return op1;
 352:Drivers/CMSIS/Include/cmsis_gcc.h ****   }
 353:Drivers/CMSIS/Include/cmsis_gcc.h ****   return (op1 >> op2) | (op1 << (32U - op2));
 354:Drivers/CMSIS/Include/cmsis_gcc.h **** }
 355:Drivers/CMSIS/Include/cmsis_gcc.h **** 
 356:Drivers/CMSIS/Include/cmsis_gcc.h **** 
 357:Drivers/CMSIS/Include/cmsis_gcc.h **** /**
 358:Drivers/CMSIS/Include/cmsis_gcc.h ****   \brief   Breakpoint
 359:Drivers/CMSIS/Include/cmsis_gcc.h ****   \details Causes the processor to enter Debug state.
 360:Drivers/CMSIS/Include/cmsis_gcc.h ****            Debug tools can use this to investigate system state when the instruction at a particula
 361:Drivers/CMSIS/Include/cmsis_gcc.h ****   \param [in]    value  is ignored by the processor.
 362:Drivers/CMSIS/Include/cmsis_gcc.h ****                  If required, a debugger can use it to store additional information about the break
 363:Drivers/CMSIS/Include/cmsis_gcc.h ****  */
 364:Drivers/CMSIS/Include/cmsis_gcc.h **** #define __BKPT(value)                       __ASM volatile ("bkpt "#value)
 365:Drivers/CMSIS/Include/cmsis_gcc.h **** 
 366:Drivers/CMSIS/Include/cmsis_gcc.h **** 
 367:Drivers/CMSIS/Include/cmsis_gcc.h **** /**
 368:Drivers/CMSIS/Include/cmsis_gcc.h ****   \brief   Reverse bit order of value
 369:Drivers/CMSIS/Include/cmsis_gcc.h ****   \details Reverses the bit order of the given value.
 370:Drivers/CMSIS/Include/cmsis_gcc.h ****   \param [in]    value  Value to reverse
 371:Drivers/CMSIS/Include/cmsis_gcc.h ****   \return               Reversed value
ARM GAS  /tmp/cc8nHYuQ.s 			page 39


 372:Drivers/CMSIS/Include/cmsis_gcc.h ****  */
 373:Drivers/CMSIS/Include/cmsis_gcc.h **** __STATIC_FORCEINLINE uint32_t __RBIT(uint32_t value)
 374:Drivers/CMSIS/Include/cmsis_gcc.h **** {
 375:Drivers/CMSIS/Include/cmsis_gcc.h ****   uint32_t result;
 376:Drivers/CMSIS/Include/cmsis_gcc.h **** 
 377:Drivers/CMSIS/Include/cmsis_gcc.h **** #if ((defined (__ARM_ARCH_7M__      ) && (__ARM_ARCH_7M__      == 1)) || \
 378:Drivers/CMSIS/Include/cmsis_gcc.h ****      (defined (__ARM_ARCH_7EM__     ) && (__ARM_ARCH_7EM__     == 1)) || \
 379:Drivers/CMSIS/Include/cmsis_gcc.h ****      (defined (__ARM_ARCH_8M_MAIN__ ) && (__ARM_ARCH_8M_MAIN__ == 1))    )
 380:Drivers/CMSIS/Include/cmsis_gcc.h ****    __ASM ("rbit %0, %1" : "=r" (result) : "r" (value) );
 381:Drivers/CMSIS/Include/cmsis_gcc.h **** #else
 382:Drivers/CMSIS/Include/cmsis_gcc.h ****   uint32_t s = (4U /*sizeof(v)*/ * 8U) - 1U; /* extra shift needed at end */
 383:Drivers/CMSIS/Include/cmsis_gcc.h **** 
 384:Drivers/CMSIS/Include/cmsis_gcc.h ****   result = value;                      /* r will be reversed bits of v; first get LSB of v */
 385:Drivers/CMSIS/Include/cmsis_gcc.h ****   for (value >>= 1U; value != 0U; value >>= 1U)
 386:Drivers/CMSIS/Include/cmsis_gcc.h ****   {
 387:Drivers/CMSIS/Include/cmsis_gcc.h ****     result <<= 1U;
 388:Drivers/CMSIS/Include/cmsis_gcc.h ****     result |= value & 1U;
 389:Drivers/CMSIS/Include/cmsis_gcc.h ****     s--;
 390:Drivers/CMSIS/Include/cmsis_gcc.h ****   }
 391:Drivers/CMSIS/Include/cmsis_gcc.h ****   result <<= s;                        /* shift when v's highest bits are zero */
 392:Drivers/CMSIS/Include/cmsis_gcc.h **** #endif
 393:Drivers/CMSIS/Include/cmsis_gcc.h ****   return result;
 394:Drivers/CMSIS/Include/cmsis_gcc.h **** }
 395:Drivers/CMSIS/Include/cmsis_gcc.h **** 
 396:Drivers/CMSIS/Include/cmsis_gcc.h **** 
 397:Drivers/CMSIS/Include/cmsis_gcc.h **** /**
 398:Drivers/CMSIS/Include/cmsis_gcc.h ****   \brief   Count leading zeros
 399:Drivers/CMSIS/Include/cmsis_gcc.h ****   \details Counts the number of leading zeros of a data value.
 400:Drivers/CMSIS/Include/cmsis_gcc.h ****   \param [in]  value  Value to count the leading zeros
 401:Drivers/CMSIS/Include/cmsis_gcc.h ****   \return             number of leading zeros in value
 402:Drivers/CMSIS/Include/cmsis_gcc.h ****  */
 403:Drivers/CMSIS/Include/cmsis_gcc.h **** __STATIC_FORCEINLINE uint8_t __CLZ(uint32_t value)
 404:Drivers/CMSIS/Include/cmsis_gcc.h **** {
 405:Drivers/CMSIS/Include/cmsis_gcc.h ****   /* Even though __builtin_clz produces a CLZ instruction on ARM, formally
 406:Drivers/CMSIS/Include/cmsis_gcc.h ****      __builtin_clz(0) is undefined behaviour, so handle this case specially.
 407:Drivers/CMSIS/Include/cmsis_gcc.h ****      This guarantees ARM-compatible results if happening to compile on a non-ARM
 408:Drivers/CMSIS/Include/cmsis_gcc.h ****      target, and ensures the compiler doesn't decide to activate any
 409:Drivers/CMSIS/Include/cmsis_gcc.h ****      optimisations using the logic "value was passed to __builtin_clz, so it
 410:Drivers/CMSIS/Include/cmsis_gcc.h ****      is non-zero".
 411:Drivers/CMSIS/Include/cmsis_gcc.h ****      ARM GCC 7.3 and possibly earlier will optimise this test away, leaving a
 412:Drivers/CMSIS/Include/cmsis_gcc.h ****      single CLZ instruction.
 413:Drivers/CMSIS/Include/cmsis_gcc.h ****    */
 414:Drivers/CMSIS/Include/cmsis_gcc.h ****   if (value == 0U)
 415:Drivers/CMSIS/Include/cmsis_gcc.h ****   {
 416:Drivers/CMSIS/Include/cmsis_gcc.h ****     return 32U;
 417:Drivers/CMSIS/Include/cmsis_gcc.h ****   }
 418:Drivers/CMSIS/Include/cmsis_gcc.h ****   return __builtin_clz(value);
 419:Drivers/CMSIS/Include/cmsis_gcc.h **** }
 420:Drivers/CMSIS/Include/cmsis_gcc.h **** 
 421:Drivers/CMSIS/Include/cmsis_gcc.h **** 
 422:Drivers/CMSIS/Include/cmsis_gcc.h **** #if ((defined (__ARM_ARCH_7M__      ) && (__ARM_ARCH_7M__      == 1)) || \
 423:Drivers/CMSIS/Include/cmsis_gcc.h ****      (defined (__ARM_ARCH_7EM__     ) && (__ARM_ARCH_7EM__     == 1)) || \
 424:Drivers/CMSIS/Include/cmsis_gcc.h ****      (defined (__ARM_ARCH_8M_MAIN__ ) && (__ARM_ARCH_8M_MAIN__ == 1)) || \
 425:Drivers/CMSIS/Include/cmsis_gcc.h ****      (defined (__ARM_ARCH_8M_BASE__ ) && (__ARM_ARCH_8M_BASE__ == 1))    )
 426:Drivers/CMSIS/Include/cmsis_gcc.h **** /**
 427:Drivers/CMSIS/Include/cmsis_gcc.h ****   \brief   LDR Exclusive (8 bit)
 428:Drivers/CMSIS/Include/cmsis_gcc.h ****   \details Executes a exclusive LDR instruction for 8 bit value.
ARM GAS  /tmp/cc8nHYuQ.s 			page 40


 429:Drivers/CMSIS/Include/cmsis_gcc.h ****   \param [in]    ptr  Pointer to data
 430:Drivers/CMSIS/Include/cmsis_gcc.h ****   \return             value of type uint8_t at (*ptr)
 431:Drivers/CMSIS/Include/cmsis_gcc.h ****  */
 432:Drivers/CMSIS/Include/cmsis_gcc.h **** __STATIC_FORCEINLINE uint8_t __LDREXB(volatile uint8_t *addr)
 433:Drivers/CMSIS/Include/cmsis_gcc.h **** {
 434:Drivers/CMSIS/Include/cmsis_gcc.h ****     uint32_t result;
 435:Drivers/CMSIS/Include/cmsis_gcc.h **** 
 436:Drivers/CMSIS/Include/cmsis_gcc.h **** #if (__GNUC__ > 4) || (__GNUC__ == 4 && __GNUC_MINOR__ >= 8)
 437:Drivers/CMSIS/Include/cmsis_gcc.h ****    __ASM volatile ("ldrexb %0, %1" : "=r" (result) : "Q" (*addr) );
 438:Drivers/CMSIS/Include/cmsis_gcc.h **** #else
 439:Drivers/CMSIS/Include/cmsis_gcc.h ****     /* Prior to GCC 4.8, "Q" will be expanded to [rx, #0] which is not
 440:Drivers/CMSIS/Include/cmsis_gcc.h ****        accepted by assembler. So has to use following less efficient pattern.
 441:Drivers/CMSIS/Include/cmsis_gcc.h ****     */
 442:Drivers/CMSIS/Include/cmsis_gcc.h ****    __ASM volatile ("ldrexb %0, [%1]" : "=r" (result) : "r" (addr) : "memory" );
 443:Drivers/CMSIS/Include/cmsis_gcc.h **** #endif
 444:Drivers/CMSIS/Include/cmsis_gcc.h ****    return ((uint8_t) result);    /* Add explicit type cast here */
 445:Drivers/CMSIS/Include/cmsis_gcc.h **** }
 446:Drivers/CMSIS/Include/cmsis_gcc.h **** 
 447:Drivers/CMSIS/Include/cmsis_gcc.h **** 
 448:Drivers/CMSIS/Include/cmsis_gcc.h **** /**
 449:Drivers/CMSIS/Include/cmsis_gcc.h ****   \brief   LDR Exclusive (16 bit)
 450:Drivers/CMSIS/Include/cmsis_gcc.h ****   \details Executes a exclusive LDR instruction for 16 bit values.
 451:Drivers/CMSIS/Include/cmsis_gcc.h ****   \param [in]    ptr  Pointer to data
 452:Drivers/CMSIS/Include/cmsis_gcc.h ****   \return        value of type uint16_t at (*ptr)
 453:Drivers/CMSIS/Include/cmsis_gcc.h ****  */
 454:Drivers/CMSIS/Include/cmsis_gcc.h **** __STATIC_FORCEINLINE uint16_t __LDREXH(volatile uint16_t *addr)
 455:Drivers/CMSIS/Include/cmsis_gcc.h **** {
 456:Drivers/CMSIS/Include/cmsis_gcc.h ****     uint32_t result;
 457:Drivers/CMSIS/Include/cmsis_gcc.h **** 
 458:Drivers/CMSIS/Include/cmsis_gcc.h **** #if (__GNUC__ > 4) || (__GNUC__ == 4 && __GNUC_MINOR__ >= 8)
 459:Drivers/CMSIS/Include/cmsis_gcc.h ****    __ASM volatile ("ldrexh %0, %1" : "=r" (result) : "Q" (*addr) );
 460:Drivers/CMSIS/Include/cmsis_gcc.h **** #else
 461:Drivers/CMSIS/Include/cmsis_gcc.h ****     /* Prior to GCC 4.8, "Q" will be expanded to [rx, #0] which is not
 462:Drivers/CMSIS/Include/cmsis_gcc.h ****        accepted by assembler. So has to use following less efficient pattern.
 463:Drivers/CMSIS/Include/cmsis_gcc.h ****     */
 464:Drivers/CMSIS/Include/cmsis_gcc.h ****    __ASM volatile ("ldrexh %0, [%1]" : "=r" (result) : "r" (addr) : "memory" );
 465:Drivers/CMSIS/Include/cmsis_gcc.h **** #endif
 466:Drivers/CMSIS/Include/cmsis_gcc.h ****    return ((uint16_t) result);    /* Add explicit type cast here */
 467:Drivers/CMSIS/Include/cmsis_gcc.h **** }
 468:Drivers/CMSIS/Include/cmsis_gcc.h **** 
 469:Drivers/CMSIS/Include/cmsis_gcc.h **** 
 470:Drivers/CMSIS/Include/cmsis_gcc.h **** /**
 471:Drivers/CMSIS/Include/cmsis_gcc.h ****   \brief   LDR Exclusive (32 bit)
 472:Drivers/CMSIS/Include/cmsis_gcc.h ****   \details Executes a exclusive LDR instruction for 32 bit values.
 473:Drivers/CMSIS/Include/cmsis_gcc.h ****   \param [in]    ptr  Pointer to data
 474:Drivers/CMSIS/Include/cmsis_gcc.h ****   \return        value of type uint32_t at (*ptr)
 475:Drivers/CMSIS/Include/cmsis_gcc.h ****  */
 476:Drivers/CMSIS/Include/cmsis_gcc.h **** __STATIC_FORCEINLINE uint32_t __LDREXW(volatile uint32_t *addr)
 477:Drivers/CMSIS/Include/cmsis_gcc.h **** {
 478:Drivers/CMSIS/Include/cmsis_gcc.h ****     uint32_t result;
 479:Drivers/CMSIS/Include/cmsis_gcc.h **** 
 480:Drivers/CMSIS/Include/cmsis_gcc.h ****    __ASM volatile ("ldrex %0, %1" : "=r" (result) : "Q" (*addr) );
 481:Drivers/CMSIS/Include/cmsis_gcc.h ****    return(result);
 482:Drivers/CMSIS/Include/cmsis_gcc.h **** }
 483:Drivers/CMSIS/Include/cmsis_gcc.h **** 
 484:Drivers/CMSIS/Include/cmsis_gcc.h **** 
 485:Drivers/CMSIS/Include/cmsis_gcc.h **** /**
ARM GAS  /tmp/cc8nHYuQ.s 			page 41


 486:Drivers/CMSIS/Include/cmsis_gcc.h ****   \brief   STR Exclusive (8 bit)
 487:Drivers/CMSIS/Include/cmsis_gcc.h ****   \details Executes a exclusive STR instruction for 8 bit values.
 488:Drivers/CMSIS/Include/cmsis_gcc.h ****   \param [in]  value  Value to store
 489:Drivers/CMSIS/Include/cmsis_gcc.h ****   \param [in]    ptr  Pointer to location
 490:Drivers/CMSIS/Include/cmsis_gcc.h ****   \return          0  Function succeeded
 491:Drivers/CMSIS/Include/cmsis_gcc.h ****   \return          1  Function failed
 492:Drivers/CMSIS/Include/cmsis_gcc.h ****  */
 493:Drivers/CMSIS/Include/cmsis_gcc.h **** __STATIC_FORCEINLINE uint32_t __STREXB(uint8_t value, volatile uint8_t *addr)
 494:Drivers/CMSIS/Include/cmsis_gcc.h **** {
 495:Drivers/CMSIS/Include/cmsis_gcc.h ****    uint32_t result;
 496:Drivers/CMSIS/Include/cmsis_gcc.h **** 
 497:Drivers/CMSIS/Include/cmsis_gcc.h ****    __ASM volatile ("strexb %0, %2, %1" : "=&r" (result), "=Q" (*addr) : "r" ((uint32_t)value) );
 498:Drivers/CMSIS/Include/cmsis_gcc.h ****    return(result);
 499:Drivers/CMSIS/Include/cmsis_gcc.h **** }
 500:Drivers/CMSIS/Include/cmsis_gcc.h **** 
 501:Drivers/CMSIS/Include/cmsis_gcc.h **** 
 502:Drivers/CMSIS/Include/cmsis_gcc.h **** /**
 503:Drivers/CMSIS/Include/cmsis_gcc.h ****   \brief   STR Exclusive (16 bit)
 504:Drivers/CMSIS/Include/cmsis_gcc.h ****   \details Executes a exclusive STR instruction for 16 bit values.
 505:Drivers/CMSIS/Include/cmsis_gcc.h ****   \param [in]  value  Value to store
 506:Drivers/CMSIS/Include/cmsis_gcc.h ****   \param [in]    ptr  Pointer to location
 507:Drivers/CMSIS/Include/cmsis_gcc.h ****   \return          0  Function succeeded
 508:Drivers/CMSIS/Include/cmsis_gcc.h ****   \return          1  Function failed
 509:Drivers/CMSIS/Include/cmsis_gcc.h ****  */
 510:Drivers/CMSIS/Include/cmsis_gcc.h **** __STATIC_FORCEINLINE uint32_t __STREXH(uint16_t value, volatile uint16_t *addr)
 511:Drivers/CMSIS/Include/cmsis_gcc.h **** {
 512:Drivers/CMSIS/Include/cmsis_gcc.h ****    uint32_t result;
 513:Drivers/CMSIS/Include/cmsis_gcc.h **** 
 514:Drivers/CMSIS/Include/cmsis_gcc.h ****    __ASM volatile ("strexh %0, %2, %1" : "=&r" (result), "=Q" (*addr) : "r" ((uint32_t)value) );
 515:Drivers/CMSIS/Include/cmsis_gcc.h ****    return(result);
 516:Drivers/CMSIS/Include/cmsis_gcc.h **** }
 517:Drivers/CMSIS/Include/cmsis_gcc.h **** 
 518:Drivers/CMSIS/Include/cmsis_gcc.h **** 
 519:Drivers/CMSIS/Include/cmsis_gcc.h **** /**
 520:Drivers/CMSIS/Include/cmsis_gcc.h ****   \brief   STR Exclusive (32 bit)
 521:Drivers/CMSIS/Include/cmsis_gcc.h ****   \details Executes a exclusive STR instruction for 32 bit values.
 522:Drivers/CMSIS/Include/cmsis_gcc.h ****   \param [in]  value  Value to store
 523:Drivers/CMSIS/Include/cmsis_gcc.h ****   \param [in]    ptr  Pointer to location
 524:Drivers/CMSIS/Include/cmsis_gcc.h ****   \return          0  Function succeeded
 525:Drivers/CMSIS/Include/cmsis_gcc.h ****   \return          1  Function failed
 526:Drivers/CMSIS/Include/cmsis_gcc.h ****  */
 527:Drivers/CMSIS/Include/cmsis_gcc.h **** __STATIC_FORCEINLINE uint32_t __STREXW(uint32_t value, volatile uint32_t *addr)
 528:Drivers/CMSIS/Include/cmsis_gcc.h **** {
 529:Drivers/CMSIS/Include/cmsis_gcc.h ****    uint32_t result;
 530:Drivers/CMSIS/Include/cmsis_gcc.h **** 
 531:Drivers/CMSIS/Include/cmsis_gcc.h ****    __ASM volatile ("strex %0, %2, %1" : "=&r" (result), "=Q" (*addr) : "r" (value) );
 532:Drivers/CMSIS/Include/cmsis_gcc.h ****    return(result);
 533:Drivers/CMSIS/Include/cmsis_gcc.h **** }
 534:Drivers/CMSIS/Include/cmsis_gcc.h **** 
 535:Drivers/CMSIS/Include/cmsis_gcc.h **** 
 536:Drivers/CMSIS/Include/cmsis_gcc.h **** /**
 537:Drivers/CMSIS/Include/cmsis_gcc.h ****   \brief   Remove the exclusive lock
 538:Drivers/CMSIS/Include/cmsis_gcc.h ****   \details Removes the exclusive lock which is created by LDREX.
 539:Drivers/CMSIS/Include/cmsis_gcc.h ****  */
 540:Drivers/CMSIS/Include/cmsis_gcc.h **** __STATIC_FORCEINLINE void __CLREX(void)
 541:Drivers/CMSIS/Include/cmsis_gcc.h **** {
 542:Drivers/CMSIS/Include/cmsis_gcc.h ****   __ASM volatile ("clrex" ::: "memory");
ARM GAS  /tmp/cc8nHYuQ.s 			page 42


 543:Drivers/CMSIS/Include/cmsis_gcc.h **** }
 544:Drivers/CMSIS/Include/cmsis_gcc.h **** 
 545:Drivers/CMSIS/Include/cmsis_gcc.h **** #endif /* ((defined (__ARM_ARCH_7M__      ) && (__ARM_ARCH_7M__      == 1)) || \
 546:Drivers/CMSIS/Include/cmsis_gcc.h ****            (defined (__ARM_ARCH_7EM__     ) && (__ARM_ARCH_7EM__     == 1)) || \
 547:Drivers/CMSIS/Include/cmsis_gcc.h ****            (defined (__ARM_ARCH_8M_MAIN__ ) && (__ARM_ARCH_8M_MAIN__ == 1)) || \
 548:Drivers/CMSIS/Include/cmsis_gcc.h ****            (defined (__ARM_ARCH_8M_BASE__ ) && (__ARM_ARCH_8M_BASE__ == 1))    ) */
 549:Drivers/CMSIS/Include/cmsis_gcc.h **** 
 550:Drivers/CMSIS/Include/cmsis_gcc.h **** 
 551:Drivers/CMSIS/Include/cmsis_gcc.h **** #if ((defined (__ARM_ARCH_7M__      ) && (__ARM_ARCH_7M__      == 1)) || \
 552:Drivers/CMSIS/Include/cmsis_gcc.h ****      (defined (__ARM_ARCH_7EM__     ) && (__ARM_ARCH_7EM__     == 1)) || \
 553:Drivers/CMSIS/Include/cmsis_gcc.h ****      (defined (__ARM_ARCH_8M_MAIN__ ) && (__ARM_ARCH_8M_MAIN__ == 1))    )
 554:Drivers/CMSIS/Include/cmsis_gcc.h **** /**
 555:Drivers/CMSIS/Include/cmsis_gcc.h ****   \brief   Signed Saturate
 556:Drivers/CMSIS/Include/cmsis_gcc.h ****   \details Saturates a signed value.
 557:Drivers/CMSIS/Include/cmsis_gcc.h ****   \param [in]  ARG1  Value to be saturated
 558:Drivers/CMSIS/Include/cmsis_gcc.h ****   \param [in]  ARG2  Bit position to saturate to (1..32)
 559:Drivers/CMSIS/Include/cmsis_gcc.h ****   \return             Saturated value
 560:Drivers/CMSIS/Include/cmsis_gcc.h ****  */
 561:Drivers/CMSIS/Include/cmsis_gcc.h **** #define __SSAT(ARG1, ARG2) \
 562:Drivers/CMSIS/Include/cmsis_gcc.h **** __extension__ \
 563:Drivers/CMSIS/Include/cmsis_gcc.h **** ({                          \
 564:Drivers/CMSIS/Include/cmsis_gcc.h ****   int32_t __RES, __ARG1 = (ARG1); \
 565:Drivers/CMSIS/Include/cmsis_gcc.h ****   __ASM volatile ("ssat %0, %1, %2" : "=r" (__RES) :  "I" (ARG2), "r" (__ARG1) : "cc" ); \
 566:Drivers/CMSIS/Include/cmsis_gcc.h ****   __RES; \
 567:Drivers/CMSIS/Include/cmsis_gcc.h ****  })
 568:Drivers/CMSIS/Include/cmsis_gcc.h **** 
 569:Drivers/CMSIS/Include/cmsis_gcc.h **** 
 570:Drivers/CMSIS/Include/cmsis_gcc.h **** /**
 571:Drivers/CMSIS/Include/cmsis_gcc.h ****   \brief   Unsigned Saturate
 572:Drivers/CMSIS/Include/cmsis_gcc.h ****   \details Saturates an unsigned value.
 573:Drivers/CMSIS/Include/cmsis_gcc.h ****   \param [in]  ARG1  Value to be saturated
 574:Drivers/CMSIS/Include/cmsis_gcc.h ****   \param [in]  ARG2  Bit position to saturate to (0..31)
 575:Drivers/CMSIS/Include/cmsis_gcc.h ****   \return             Saturated value
 576:Drivers/CMSIS/Include/cmsis_gcc.h ****  */
 577:Drivers/CMSIS/Include/cmsis_gcc.h **** #define __USAT(ARG1, ARG2) \
 578:Drivers/CMSIS/Include/cmsis_gcc.h **** __extension__ \
 579:Drivers/CMSIS/Include/cmsis_gcc.h **** ({                          \
 580:Drivers/CMSIS/Include/cmsis_gcc.h ****   uint32_t __RES, __ARG1 = (ARG1); \
 581:Drivers/CMSIS/Include/cmsis_gcc.h ****   __ASM volatile ("usat %0, %1, %2" : "=r" (__RES) :  "I" (ARG2), "r" (__ARG1) : "cc" ); \
 582:Drivers/CMSIS/Include/cmsis_gcc.h ****   __RES; \
 583:Drivers/CMSIS/Include/cmsis_gcc.h ****  })
 584:Drivers/CMSIS/Include/cmsis_gcc.h **** 
 585:Drivers/CMSIS/Include/cmsis_gcc.h **** 
 586:Drivers/CMSIS/Include/cmsis_gcc.h **** /**
 587:Drivers/CMSIS/Include/cmsis_gcc.h ****   \brief   Rotate Right with Extend (32 bit)
 588:Drivers/CMSIS/Include/cmsis_gcc.h ****   \details Moves each bit of a bitstring right by one bit.
 589:Drivers/CMSIS/Include/cmsis_gcc.h ****            The carry input is shifted in at the left end of the bitstring.
 590:Drivers/CMSIS/Include/cmsis_gcc.h ****   \param [in]    value  Value to rotate
 591:Drivers/CMSIS/Include/cmsis_gcc.h ****   \return               Rotated value
 592:Drivers/CMSIS/Include/cmsis_gcc.h ****  */
 593:Drivers/CMSIS/Include/cmsis_gcc.h **** __STATIC_FORCEINLINE uint32_t __RRX(uint32_t value)
 594:Drivers/CMSIS/Include/cmsis_gcc.h **** {
 595:Drivers/CMSIS/Include/cmsis_gcc.h ****   uint32_t result;
 596:Drivers/CMSIS/Include/cmsis_gcc.h **** 
 597:Drivers/CMSIS/Include/cmsis_gcc.h ****   __ASM volatile ("rrx %0, %1" : __CMSIS_GCC_OUT_REG (result) : __CMSIS_GCC_USE_REG (value) );
 598:Drivers/CMSIS/Include/cmsis_gcc.h ****   return(result);
 599:Drivers/CMSIS/Include/cmsis_gcc.h **** }
ARM GAS  /tmp/cc8nHYuQ.s 			page 43


 600:Drivers/CMSIS/Include/cmsis_gcc.h **** 
 601:Drivers/CMSIS/Include/cmsis_gcc.h **** 
 602:Drivers/CMSIS/Include/cmsis_gcc.h **** /**
 603:Drivers/CMSIS/Include/cmsis_gcc.h ****   \brief   LDRT Unprivileged (8 bit)
 604:Drivers/CMSIS/Include/cmsis_gcc.h ****   \details Executes a Unprivileged LDRT instruction for 8 bit value.
 605:Drivers/CMSIS/Include/cmsis_gcc.h ****   \param [in]    ptr  Pointer to data
 606:Drivers/CMSIS/Include/cmsis_gcc.h ****   \return             value of type uint8_t at (*ptr)
 607:Drivers/CMSIS/Include/cmsis_gcc.h ****  */
 608:Drivers/CMSIS/Include/cmsis_gcc.h **** __STATIC_FORCEINLINE uint8_t __LDRBT(volatile uint8_t *ptr)
 609:Drivers/CMSIS/Include/cmsis_gcc.h **** {
 610:Drivers/CMSIS/Include/cmsis_gcc.h ****     uint32_t result;
 611:Drivers/CMSIS/Include/cmsis_gcc.h **** 
 612:Drivers/CMSIS/Include/cmsis_gcc.h **** #if (__GNUC__ > 4) || (__GNUC__ == 4 && __GNUC_MINOR__ >= 8)
 613:Drivers/CMSIS/Include/cmsis_gcc.h ****    __ASM volatile ("ldrbt %0, %1" : "=r" (result) : "Q" (*ptr) );
 614:Drivers/CMSIS/Include/cmsis_gcc.h **** #else
 615:Drivers/CMSIS/Include/cmsis_gcc.h ****     /* Prior to GCC 4.8, "Q" will be expanded to [rx, #0] which is not
 616:Drivers/CMSIS/Include/cmsis_gcc.h ****        accepted by assembler. So has to use following less efficient pattern.
 617:Drivers/CMSIS/Include/cmsis_gcc.h ****     */
 618:Drivers/CMSIS/Include/cmsis_gcc.h ****    __ASM volatile ("ldrbt %0, [%1]" : "=r" (result) : "r" (ptr) : "memory" );
 619:Drivers/CMSIS/Include/cmsis_gcc.h **** #endif
 620:Drivers/CMSIS/Include/cmsis_gcc.h ****    return ((uint8_t) result);    /* Add explicit type cast here */
 621:Drivers/CMSIS/Include/cmsis_gcc.h **** }
 622:Drivers/CMSIS/Include/cmsis_gcc.h **** 
 623:Drivers/CMSIS/Include/cmsis_gcc.h **** 
 624:Drivers/CMSIS/Include/cmsis_gcc.h **** /**
 625:Drivers/CMSIS/Include/cmsis_gcc.h ****   \brief   LDRT Unprivileged (16 bit)
 626:Drivers/CMSIS/Include/cmsis_gcc.h ****   \details Executes a Unprivileged LDRT instruction for 16 bit values.
 627:Drivers/CMSIS/Include/cmsis_gcc.h ****   \param [in]    ptr  Pointer to data
 628:Drivers/CMSIS/Include/cmsis_gcc.h ****   \return        value of type uint16_t at (*ptr)
 629:Drivers/CMSIS/Include/cmsis_gcc.h ****  */
 630:Drivers/CMSIS/Include/cmsis_gcc.h **** __STATIC_FORCEINLINE uint16_t __LDRHT(volatile uint16_t *ptr)
 631:Drivers/CMSIS/Include/cmsis_gcc.h **** {
 632:Drivers/CMSIS/Include/cmsis_gcc.h ****     uint32_t result;
 633:Drivers/CMSIS/Include/cmsis_gcc.h **** 
 634:Drivers/CMSIS/Include/cmsis_gcc.h **** #if (__GNUC__ > 4) || (__GNUC__ == 4 && __GNUC_MINOR__ >= 8)
 635:Drivers/CMSIS/Include/cmsis_gcc.h ****    __ASM volatile ("ldrht %0, %1" : "=r" (result) : "Q" (*ptr) );
 636:Drivers/CMSIS/Include/cmsis_gcc.h **** #else
 637:Drivers/CMSIS/Include/cmsis_gcc.h ****     /* Prior to GCC 4.8, "Q" will be expanded to [rx, #0] which is not
 638:Drivers/CMSIS/Include/cmsis_gcc.h ****        accepted by assembler. So has to use following less efficient pattern.
 639:Drivers/CMSIS/Include/cmsis_gcc.h ****     */
 640:Drivers/CMSIS/Include/cmsis_gcc.h ****    __ASM volatile ("ldrht %0, [%1]" : "=r" (result) : "r" (ptr) : "memory" );
 641:Drivers/CMSIS/Include/cmsis_gcc.h **** #endif
 642:Drivers/CMSIS/Include/cmsis_gcc.h ****    return ((uint16_t) result);    /* Add explicit type cast here */
 643:Drivers/CMSIS/Include/cmsis_gcc.h **** }
 644:Drivers/CMSIS/Include/cmsis_gcc.h **** 
 645:Drivers/CMSIS/Include/cmsis_gcc.h **** 
 646:Drivers/CMSIS/Include/cmsis_gcc.h **** /**
 647:Drivers/CMSIS/Include/cmsis_gcc.h ****   \brief   LDRT Unprivileged (32 bit)
 648:Drivers/CMSIS/Include/cmsis_gcc.h ****   \details Executes a Unprivileged LDRT instruction for 32 bit values.
 649:Drivers/CMSIS/Include/cmsis_gcc.h ****   \param [in]    ptr  Pointer to data
 650:Drivers/CMSIS/Include/cmsis_gcc.h ****   \return        value of type uint32_t at (*ptr)
 651:Drivers/CMSIS/Include/cmsis_gcc.h ****  */
 652:Drivers/CMSIS/Include/cmsis_gcc.h **** __STATIC_FORCEINLINE uint32_t __LDRT(volatile uint32_t *ptr)
 653:Drivers/CMSIS/Include/cmsis_gcc.h **** {
 654:Drivers/CMSIS/Include/cmsis_gcc.h ****     uint32_t result;
 655:Drivers/CMSIS/Include/cmsis_gcc.h **** 
 656:Drivers/CMSIS/Include/cmsis_gcc.h ****    __ASM volatile ("ldrt %0, %1" : "=r" (result) : "Q" (*ptr) );
ARM GAS  /tmp/cc8nHYuQ.s 			page 44


 657:Drivers/CMSIS/Include/cmsis_gcc.h ****    return(result);
 658:Drivers/CMSIS/Include/cmsis_gcc.h **** }
 659:Drivers/CMSIS/Include/cmsis_gcc.h **** 
 660:Drivers/CMSIS/Include/cmsis_gcc.h **** 
 661:Drivers/CMSIS/Include/cmsis_gcc.h **** /**
 662:Drivers/CMSIS/Include/cmsis_gcc.h ****   \brief   STRT Unprivileged (8 bit)
 663:Drivers/CMSIS/Include/cmsis_gcc.h ****   \details Executes a Unprivileged STRT instruction for 8 bit values.
 664:Drivers/CMSIS/Include/cmsis_gcc.h ****   \param [in]  value  Value to store
 665:Drivers/CMSIS/Include/cmsis_gcc.h ****   \param [in]    ptr  Pointer to location
 666:Drivers/CMSIS/Include/cmsis_gcc.h ****  */
 667:Drivers/CMSIS/Include/cmsis_gcc.h **** __STATIC_FORCEINLINE void __STRBT(uint8_t value, volatile uint8_t *ptr)
 668:Drivers/CMSIS/Include/cmsis_gcc.h **** {
 669:Drivers/CMSIS/Include/cmsis_gcc.h ****    __ASM volatile ("strbt %1, %0" : "=Q" (*ptr) : "r" ((uint32_t)value) );
 670:Drivers/CMSIS/Include/cmsis_gcc.h **** }
 671:Drivers/CMSIS/Include/cmsis_gcc.h **** 
 672:Drivers/CMSIS/Include/cmsis_gcc.h **** 
 673:Drivers/CMSIS/Include/cmsis_gcc.h **** /**
 674:Drivers/CMSIS/Include/cmsis_gcc.h ****   \brief   STRT Unprivileged (16 bit)
 675:Drivers/CMSIS/Include/cmsis_gcc.h ****   \details Executes a Unprivileged STRT instruction for 16 bit values.
 676:Drivers/CMSIS/Include/cmsis_gcc.h ****   \param [in]  value  Value to store
 677:Drivers/CMSIS/Include/cmsis_gcc.h ****   \param [in]    ptr  Pointer to location
 678:Drivers/CMSIS/Include/cmsis_gcc.h ****  */
 679:Drivers/CMSIS/Include/cmsis_gcc.h **** __STATIC_FORCEINLINE void __STRHT(uint16_t value, volatile uint16_t *ptr)
 680:Drivers/CMSIS/Include/cmsis_gcc.h **** {
 681:Drivers/CMSIS/Include/cmsis_gcc.h ****    __ASM volatile ("strht %1, %0" : "=Q" (*ptr) : "r" ((uint32_t)value) );
 682:Drivers/CMSIS/Include/cmsis_gcc.h **** }
 683:Drivers/CMSIS/Include/cmsis_gcc.h **** 
 684:Drivers/CMSIS/Include/cmsis_gcc.h **** 
 685:Drivers/CMSIS/Include/cmsis_gcc.h **** /**
 686:Drivers/CMSIS/Include/cmsis_gcc.h ****   \brief   STRT Unprivileged (32 bit)
 687:Drivers/CMSIS/Include/cmsis_gcc.h ****   \details Executes a Unprivileged STRT instruction for 32 bit values.
 688:Drivers/CMSIS/Include/cmsis_gcc.h ****   \param [in]  value  Value to store
 689:Drivers/CMSIS/Include/cmsis_gcc.h ****   \param [in]    ptr  Pointer to location
 690:Drivers/CMSIS/Include/cmsis_gcc.h ****  */
 691:Drivers/CMSIS/Include/cmsis_gcc.h **** __STATIC_FORCEINLINE void __STRT(uint32_t value, volatile uint32_t *ptr)
 692:Drivers/CMSIS/Include/cmsis_gcc.h **** {
 693:Drivers/CMSIS/Include/cmsis_gcc.h ****    __ASM volatile ("strt %1, %0" : "=Q" (*ptr) : "r" (value) );
 694:Drivers/CMSIS/Include/cmsis_gcc.h **** }
 695:Drivers/CMSIS/Include/cmsis_gcc.h **** 
 696:Drivers/CMSIS/Include/cmsis_gcc.h **** #else  /* ((defined (__ARM_ARCH_7M__      ) && (__ARM_ARCH_7M__      == 1)) || \
 697:Drivers/CMSIS/Include/cmsis_gcc.h ****            (defined (__ARM_ARCH_7EM__     ) && (__ARM_ARCH_7EM__     == 1)) || \
 698:Drivers/CMSIS/Include/cmsis_gcc.h ****            (defined (__ARM_ARCH_8M_MAIN__ ) && (__ARM_ARCH_8M_MAIN__ == 1))    ) */
 699:Drivers/CMSIS/Include/cmsis_gcc.h **** 
 700:Drivers/CMSIS/Include/cmsis_gcc.h **** /**
 701:Drivers/CMSIS/Include/cmsis_gcc.h ****   \brief   Signed Saturate
 702:Drivers/CMSIS/Include/cmsis_gcc.h ****   \details Saturates a signed value.
 703:Drivers/CMSIS/Include/cmsis_gcc.h ****   \param [in]  value  Value to be saturated
 704:Drivers/CMSIS/Include/cmsis_gcc.h ****   \param [in]    sat  Bit position to saturate to (1..32)
 705:Drivers/CMSIS/Include/cmsis_gcc.h ****   \return             Saturated value
 706:Drivers/CMSIS/Include/cmsis_gcc.h ****  */
 707:Drivers/CMSIS/Include/cmsis_gcc.h **** __STATIC_FORCEINLINE int32_t __SSAT(int32_t val, uint32_t sat)
 708:Drivers/CMSIS/Include/cmsis_gcc.h **** {
 709:Drivers/CMSIS/Include/cmsis_gcc.h ****   if ((sat >= 1U) && (sat <= 32U))
 710:Drivers/CMSIS/Include/cmsis_gcc.h ****   {
 711:Drivers/CMSIS/Include/cmsis_gcc.h ****     const int32_t max = (int32_t)((1U << (sat - 1U)) - 1U);
 712:Drivers/CMSIS/Include/cmsis_gcc.h ****     const int32_t min = -1 - max ;
 713:Drivers/CMSIS/Include/cmsis_gcc.h ****     if (val > max)
ARM GAS  /tmp/cc8nHYuQ.s 			page 45


 714:Drivers/CMSIS/Include/cmsis_gcc.h ****     {
 715:Drivers/CMSIS/Include/cmsis_gcc.h ****       return max;
 716:Drivers/CMSIS/Include/cmsis_gcc.h ****     }
 717:Drivers/CMSIS/Include/cmsis_gcc.h ****     else if (val < min)
 718:Drivers/CMSIS/Include/cmsis_gcc.h ****     {
 719:Drivers/CMSIS/Include/cmsis_gcc.h ****       return min;
 720:Drivers/CMSIS/Include/cmsis_gcc.h ****     }
 721:Drivers/CMSIS/Include/cmsis_gcc.h ****   }
 722:Drivers/CMSIS/Include/cmsis_gcc.h ****   return val;
 723:Drivers/CMSIS/Include/cmsis_gcc.h **** }
 724:Drivers/CMSIS/Include/cmsis_gcc.h **** 
 725:Drivers/CMSIS/Include/cmsis_gcc.h **** /**
 726:Drivers/CMSIS/Include/cmsis_gcc.h ****   \brief   Unsigned Saturate
 727:Drivers/CMSIS/Include/cmsis_gcc.h ****   \details Saturates an unsigned value.
 728:Drivers/CMSIS/Include/cmsis_gcc.h ****   \param [in]  value  Value to be saturated
 729:Drivers/CMSIS/Include/cmsis_gcc.h ****   \param [in]    sat  Bit position to saturate to (0..31)
 730:Drivers/CMSIS/Include/cmsis_gcc.h ****   \return             Saturated value
 731:Drivers/CMSIS/Include/cmsis_gcc.h ****  */
 732:Drivers/CMSIS/Include/cmsis_gcc.h **** __STATIC_FORCEINLINE uint32_t __USAT(int32_t val, uint32_t sat)
 733:Drivers/CMSIS/Include/cmsis_gcc.h **** {
 734:Drivers/CMSIS/Include/cmsis_gcc.h ****   if (sat <= 31U)
 735:Drivers/CMSIS/Include/cmsis_gcc.h ****   {
 736:Drivers/CMSIS/Include/cmsis_gcc.h ****     const uint32_t max = ((1U << sat) - 1U);
 737:Drivers/CMSIS/Include/cmsis_gcc.h ****     if (val > (int32_t)max)
 738:Drivers/CMSIS/Include/cmsis_gcc.h ****     {
 739:Drivers/CMSIS/Include/cmsis_gcc.h ****       return max;
 740:Drivers/CMSIS/Include/cmsis_gcc.h ****     }
 741:Drivers/CMSIS/Include/cmsis_gcc.h ****     else if (val < 0)
 742:Drivers/CMSIS/Include/cmsis_gcc.h ****     {
 743:Drivers/CMSIS/Include/cmsis_gcc.h ****       return 0U;
 744:Drivers/CMSIS/Include/cmsis_gcc.h ****     }
 745:Drivers/CMSIS/Include/cmsis_gcc.h ****   }
 746:Drivers/CMSIS/Include/cmsis_gcc.h ****   return (uint32_t)val;
 747:Drivers/CMSIS/Include/cmsis_gcc.h **** }
 748:Drivers/CMSIS/Include/cmsis_gcc.h **** 
 749:Drivers/CMSIS/Include/cmsis_gcc.h **** #endif /* ((defined (__ARM_ARCH_7M__      ) && (__ARM_ARCH_7M__      == 1)) || \
 750:Drivers/CMSIS/Include/cmsis_gcc.h ****            (defined (__ARM_ARCH_7EM__     ) && (__ARM_ARCH_7EM__     == 1)) || \
 751:Drivers/CMSIS/Include/cmsis_gcc.h ****            (defined (__ARM_ARCH_8M_MAIN__ ) && (__ARM_ARCH_8M_MAIN__ == 1))    ) */
 752:Drivers/CMSIS/Include/cmsis_gcc.h **** 
 753:Drivers/CMSIS/Include/cmsis_gcc.h **** 
 754:Drivers/CMSIS/Include/cmsis_gcc.h **** #if ((defined (__ARM_ARCH_8M_MAIN__ ) && (__ARM_ARCH_8M_MAIN__ == 1)) || \
 755:Drivers/CMSIS/Include/cmsis_gcc.h ****      (defined (__ARM_ARCH_8M_BASE__ ) && (__ARM_ARCH_8M_BASE__ == 1))    )
 756:Drivers/CMSIS/Include/cmsis_gcc.h **** /**
 757:Drivers/CMSIS/Include/cmsis_gcc.h ****   \brief   Load-Acquire (8 bit)
 758:Drivers/CMSIS/Include/cmsis_gcc.h ****   \details Executes a LDAB instruction for 8 bit value.
 759:Drivers/CMSIS/Include/cmsis_gcc.h ****   \param [in]    ptr  Pointer to data
 760:Drivers/CMSIS/Include/cmsis_gcc.h ****   \return             value of type uint8_t at (*ptr)
 761:Drivers/CMSIS/Include/cmsis_gcc.h ****  */
 762:Drivers/CMSIS/Include/cmsis_gcc.h **** __STATIC_FORCEINLINE uint8_t __LDAB(volatile uint8_t *ptr)
 763:Drivers/CMSIS/Include/cmsis_gcc.h **** {
 764:Drivers/CMSIS/Include/cmsis_gcc.h ****     uint32_t result;
 765:Drivers/CMSIS/Include/cmsis_gcc.h **** 
 766:Drivers/CMSIS/Include/cmsis_gcc.h ****    __ASM volatile ("ldab %0, %1" : "=r" (result) : "Q" (*ptr) : "memory" );
 767:Drivers/CMSIS/Include/cmsis_gcc.h ****    return ((uint8_t) result);
 768:Drivers/CMSIS/Include/cmsis_gcc.h **** }
 769:Drivers/CMSIS/Include/cmsis_gcc.h **** 
 770:Drivers/CMSIS/Include/cmsis_gcc.h **** 
ARM GAS  /tmp/cc8nHYuQ.s 			page 46


 771:Drivers/CMSIS/Include/cmsis_gcc.h **** /**
 772:Drivers/CMSIS/Include/cmsis_gcc.h ****   \brief   Load-Acquire (16 bit)
 773:Drivers/CMSIS/Include/cmsis_gcc.h ****   \details Executes a LDAH instruction for 16 bit values.
 774:Drivers/CMSIS/Include/cmsis_gcc.h ****   \param [in]    ptr  Pointer to data
 775:Drivers/CMSIS/Include/cmsis_gcc.h ****   \return        value of type uint16_t at (*ptr)
 776:Drivers/CMSIS/Include/cmsis_gcc.h ****  */
 777:Drivers/CMSIS/Include/cmsis_gcc.h **** __STATIC_FORCEINLINE uint16_t __LDAH(volatile uint16_t *ptr)
 778:Drivers/CMSIS/Include/cmsis_gcc.h **** {
 779:Drivers/CMSIS/Include/cmsis_gcc.h ****     uint32_t result;
 780:Drivers/CMSIS/Include/cmsis_gcc.h **** 
 781:Drivers/CMSIS/Include/cmsis_gcc.h ****    __ASM volatile ("ldah %0, %1" : "=r" (result) : "Q" (*ptr) : "memory" );
 782:Drivers/CMSIS/Include/cmsis_gcc.h ****    return ((uint16_t) result);
 783:Drivers/CMSIS/Include/cmsis_gcc.h **** }
 784:Drivers/CMSIS/Include/cmsis_gcc.h **** 
 785:Drivers/CMSIS/Include/cmsis_gcc.h **** 
 786:Drivers/CMSIS/Include/cmsis_gcc.h **** /**
 787:Drivers/CMSIS/Include/cmsis_gcc.h ****   \brief   Load-Acquire (32 bit)
 788:Drivers/CMSIS/Include/cmsis_gcc.h ****   \details Executes a LDA instruction for 32 bit values.
 789:Drivers/CMSIS/Include/cmsis_gcc.h ****   \param [in]    ptr  Pointer to data
 790:Drivers/CMSIS/Include/cmsis_gcc.h ****   \return        value of type uint32_t at (*ptr)
 791:Drivers/CMSIS/Include/cmsis_gcc.h ****  */
 792:Drivers/CMSIS/Include/cmsis_gcc.h **** __STATIC_FORCEINLINE uint32_t __LDA(volatile uint32_t *ptr)
 793:Drivers/CMSIS/Include/cmsis_gcc.h **** {
 794:Drivers/CMSIS/Include/cmsis_gcc.h ****     uint32_t result;
 795:Drivers/CMSIS/Include/cmsis_gcc.h **** 
 796:Drivers/CMSIS/Include/cmsis_gcc.h ****    __ASM volatile ("lda %0, %1" : "=r" (result) : "Q" (*ptr) : "memory" );
 797:Drivers/CMSIS/Include/cmsis_gcc.h ****    return(result);
 798:Drivers/CMSIS/Include/cmsis_gcc.h **** }
 799:Drivers/CMSIS/Include/cmsis_gcc.h **** 
 800:Drivers/CMSIS/Include/cmsis_gcc.h **** 
 801:Drivers/CMSIS/Include/cmsis_gcc.h **** /**
 802:Drivers/CMSIS/Include/cmsis_gcc.h ****   \brief   Store-Release (8 bit)
 803:Drivers/CMSIS/Include/cmsis_gcc.h ****   \details Executes a STLB instruction for 8 bit values.
 804:Drivers/CMSIS/Include/cmsis_gcc.h ****   \param [in]  value  Value to store
 805:Drivers/CMSIS/Include/cmsis_gcc.h ****   \param [in]    ptr  Pointer to location
 806:Drivers/CMSIS/Include/cmsis_gcc.h ****  */
 807:Drivers/CMSIS/Include/cmsis_gcc.h **** __STATIC_FORCEINLINE void __STLB(uint8_t value, volatile uint8_t *ptr)
 808:Drivers/CMSIS/Include/cmsis_gcc.h **** {
 809:Drivers/CMSIS/Include/cmsis_gcc.h ****    __ASM volatile ("stlb %1, %0" : "=Q" (*ptr) : "r" ((uint32_t)value) : "memory" );
 810:Drivers/CMSIS/Include/cmsis_gcc.h **** }
 811:Drivers/CMSIS/Include/cmsis_gcc.h **** 
 812:Drivers/CMSIS/Include/cmsis_gcc.h **** 
 813:Drivers/CMSIS/Include/cmsis_gcc.h **** /**
 814:Drivers/CMSIS/Include/cmsis_gcc.h ****   \brief   Store-Release (16 bit)
 815:Drivers/CMSIS/Include/cmsis_gcc.h ****   \details Executes a STLH instruction for 16 bit values.
 816:Drivers/CMSIS/Include/cmsis_gcc.h ****   \param [in]  value  Value to store
 817:Drivers/CMSIS/Include/cmsis_gcc.h ****   \param [in]    ptr  Pointer to location
 818:Drivers/CMSIS/Include/cmsis_gcc.h ****  */
 819:Drivers/CMSIS/Include/cmsis_gcc.h **** __STATIC_FORCEINLINE void __STLH(uint16_t value, volatile uint16_t *ptr)
 820:Drivers/CMSIS/Include/cmsis_gcc.h **** {
 821:Drivers/CMSIS/Include/cmsis_gcc.h ****    __ASM volatile ("stlh %1, %0" : "=Q" (*ptr) : "r" ((uint32_t)value) : "memory" );
 822:Drivers/CMSIS/Include/cmsis_gcc.h **** }
 823:Drivers/CMSIS/Include/cmsis_gcc.h **** 
 824:Drivers/CMSIS/Include/cmsis_gcc.h **** 
 825:Drivers/CMSIS/Include/cmsis_gcc.h **** /**
 826:Drivers/CMSIS/Include/cmsis_gcc.h ****   \brief   Store-Release (32 bit)
 827:Drivers/CMSIS/Include/cmsis_gcc.h ****   \details Executes a STL instruction for 32 bit values.
ARM GAS  /tmp/cc8nHYuQ.s 			page 47


 828:Drivers/CMSIS/Include/cmsis_gcc.h ****   \param [in]  value  Value to store
 829:Drivers/CMSIS/Include/cmsis_gcc.h ****   \param [in]    ptr  Pointer to location
 830:Drivers/CMSIS/Include/cmsis_gcc.h ****  */
 831:Drivers/CMSIS/Include/cmsis_gcc.h **** __STATIC_FORCEINLINE void __STL(uint32_t value, volatile uint32_t *ptr)
 832:Drivers/CMSIS/Include/cmsis_gcc.h **** {
 833:Drivers/CMSIS/Include/cmsis_gcc.h ****    __ASM volatile ("stl %1, %0" : "=Q" (*ptr) : "r" ((uint32_t)value) : "memory" );
 834:Drivers/CMSIS/Include/cmsis_gcc.h **** }
 835:Drivers/CMSIS/Include/cmsis_gcc.h **** 
 836:Drivers/CMSIS/Include/cmsis_gcc.h **** 
 837:Drivers/CMSIS/Include/cmsis_gcc.h **** /**
 838:Drivers/CMSIS/Include/cmsis_gcc.h ****   \brief   Load-Acquire Exclusive (8 bit)
 839:Drivers/CMSIS/Include/cmsis_gcc.h ****   \details Executes a LDAB exclusive instruction for 8 bit value.
 840:Drivers/CMSIS/Include/cmsis_gcc.h ****   \param [in]    ptr  Pointer to data
 841:Drivers/CMSIS/Include/cmsis_gcc.h ****   \return             value of type uint8_t at (*ptr)
 842:Drivers/CMSIS/Include/cmsis_gcc.h ****  */
 843:Drivers/CMSIS/Include/cmsis_gcc.h **** __STATIC_FORCEINLINE uint8_t __LDAEXB(volatile uint8_t *ptr)
 844:Drivers/CMSIS/Include/cmsis_gcc.h **** {
 845:Drivers/CMSIS/Include/cmsis_gcc.h ****     uint32_t result;
 846:Drivers/CMSIS/Include/cmsis_gcc.h **** 
 847:Drivers/CMSIS/Include/cmsis_gcc.h ****    __ASM volatile ("ldaexb %0, %1" : "=r" (result) : "Q" (*ptr) : "memory" );
 848:Drivers/CMSIS/Include/cmsis_gcc.h ****    return ((uint8_t) result);
 849:Drivers/CMSIS/Include/cmsis_gcc.h **** }
 850:Drivers/CMSIS/Include/cmsis_gcc.h **** 
 851:Drivers/CMSIS/Include/cmsis_gcc.h **** 
 852:Drivers/CMSIS/Include/cmsis_gcc.h **** /**
 853:Drivers/CMSIS/Include/cmsis_gcc.h ****   \brief   Load-Acquire Exclusive (16 bit)
 854:Drivers/CMSIS/Include/cmsis_gcc.h ****   \details Executes a LDAH exclusive instruction for 16 bit values.
 855:Drivers/CMSIS/Include/cmsis_gcc.h ****   \param [in]    ptr  Pointer to data
 856:Drivers/CMSIS/Include/cmsis_gcc.h ****   \return        value of type uint16_t at (*ptr)
 857:Drivers/CMSIS/Include/cmsis_gcc.h ****  */
 858:Drivers/CMSIS/Include/cmsis_gcc.h **** __STATIC_FORCEINLINE uint16_t __LDAEXH(volatile uint16_t *ptr)
 859:Drivers/CMSIS/Include/cmsis_gcc.h **** {
 860:Drivers/CMSIS/Include/cmsis_gcc.h ****     uint32_t result;
 861:Drivers/CMSIS/Include/cmsis_gcc.h **** 
 862:Drivers/CMSIS/Include/cmsis_gcc.h ****    __ASM volatile ("ldaexh %0, %1" : "=r" (result) : "Q" (*ptr) : "memory" );
 863:Drivers/CMSIS/Include/cmsis_gcc.h ****    return ((uint16_t) result);
 864:Drivers/CMSIS/Include/cmsis_gcc.h **** }
 865:Drivers/CMSIS/Include/cmsis_gcc.h **** 
 866:Drivers/CMSIS/Include/cmsis_gcc.h **** 
 867:Drivers/CMSIS/Include/cmsis_gcc.h **** /**
 868:Drivers/CMSIS/Include/cmsis_gcc.h ****   \brief   Load-Acquire Exclusive (32 bit)
 869:Drivers/CMSIS/Include/cmsis_gcc.h ****   \details Executes a LDA exclusive instruction for 32 bit values.
 870:Drivers/CMSIS/Include/cmsis_gcc.h ****   \param [in]    ptr  Pointer to data
 871:Drivers/CMSIS/Include/cmsis_gcc.h ****   \return        value of type uint32_t at (*ptr)
 872:Drivers/CMSIS/Include/cmsis_gcc.h ****  */
 873:Drivers/CMSIS/Include/cmsis_gcc.h **** __STATIC_FORCEINLINE uint32_t __LDAEX(volatile uint32_t *ptr)
 874:Drivers/CMSIS/Include/cmsis_gcc.h **** {
 875:Drivers/CMSIS/Include/cmsis_gcc.h ****     uint32_t result;
 876:Drivers/CMSIS/Include/cmsis_gcc.h **** 
 877:Drivers/CMSIS/Include/cmsis_gcc.h ****    __ASM volatile ("ldaex %0, %1" : "=r" (result) : "Q" (*ptr) : "memory" );
 878:Drivers/CMSIS/Include/cmsis_gcc.h ****    return(result);
 879:Drivers/CMSIS/Include/cmsis_gcc.h **** }
 880:Drivers/CMSIS/Include/cmsis_gcc.h **** 
 881:Drivers/CMSIS/Include/cmsis_gcc.h **** 
 882:Drivers/CMSIS/Include/cmsis_gcc.h **** /**
 883:Drivers/CMSIS/Include/cmsis_gcc.h ****   \brief   Store-Release Exclusive (8 bit)
 884:Drivers/CMSIS/Include/cmsis_gcc.h ****   \details Executes a STLB exclusive instruction for 8 bit values.
ARM GAS  /tmp/cc8nHYuQ.s 			page 48


 885:Drivers/CMSIS/Include/cmsis_gcc.h ****   \param [in]  value  Value to store
 886:Drivers/CMSIS/Include/cmsis_gcc.h ****   \param [in]    ptr  Pointer to location
 887:Drivers/CMSIS/Include/cmsis_gcc.h ****   \return          0  Function succeeded
 888:Drivers/CMSIS/Include/cmsis_gcc.h ****   \return          1  Function failed
 889:Drivers/CMSIS/Include/cmsis_gcc.h ****  */
 890:Drivers/CMSIS/Include/cmsis_gcc.h **** __STATIC_FORCEINLINE uint32_t __STLEXB(uint8_t value, volatile uint8_t *ptr)
 891:Drivers/CMSIS/Include/cmsis_gcc.h **** {
 892:Drivers/CMSIS/Include/cmsis_gcc.h ****    uint32_t result;
 893:Drivers/CMSIS/Include/cmsis_gcc.h **** 
 894:Drivers/CMSIS/Include/cmsis_gcc.h ****    __ASM volatile ("stlexb %0, %2, %1" : "=&r" (result), "=Q" (*ptr) : "r" ((uint32_t)value) : "mem
 895:Drivers/CMSIS/Include/cmsis_gcc.h ****    return(result);
 896:Drivers/CMSIS/Include/cmsis_gcc.h **** }
 897:Drivers/CMSIS/Include/cmsis_gcc.h **** 
 898:Drivers/CMSIS/Include/cmsis_gcc.h **** 
 899:Drivers/CMSIS/Include/cmsis_gcc.h **** /**
 900:Drivers/CMSIS/Include/cmsis_gcc.h ****   \brief   Store-Release Exclusive (16 bit)
 901:Drivers/CMSIS/Include/cmsis_gcc.h ****   \details Executes a STLH exclusive instruction for 16 bit values.
 902:Drivers/CMSIS/Include/cmsis_gcc.h ****   \param [in]  value  Value to store
 903:Drivers/CMSIS/Include/cmsis_gcc.h ****   \param [in]    ptr  Pointer to location
 904:Drivers/CMSIS/Include/cmsis_gcc.h ****   \return          0  Function succeeded
 905:Drivers/CMSIS/Include/cmsis_gcc.h ****   \return          1  Function failed
 906:Drivers/CMSIS/Include/cmsis_gcc.h ****  */
 907:Drivers/CMSIS/Include/cmsis_gcc.h **** __STATIC_FORCEINLINE uint32_t __STLEXH(uint16_t value, volatile uint16_t *ptr)
 908:Drivers/CMSIS/Include/cmsis_gcc.h **** {
 909:Drivers/CMSIS/Include/cmsis_gcc.h ****    uint32_t result;
 910:Drivers/CMSIS/Include/cmsis_gcc.h **** 
 911:Drivers/CMSIS/Include/cmsis_gcc.h ****    __ASM volatile ("stlexh %0, %2, %1" : "=&r" (result), "=Q" (*ptr) : "r" ((uint32_t)value) : "mem
 912:Drivers/CMSIS/Include/cmsis_gcc.h ****    return(result);
 913:Drivers/CMSIS/Include/cmsis_gcc.h **** }
 914:Drivers/CMSIS/Include/cmsis_gcc.h **** 
 915:Drivers/CMSIS/Include/cmsis_gcc.h **** 
 916:Drivers/CMSIS/Include/cmsis_gcc.h **** /**
 917:Drivers/CMSIS/Include/cmsis_gcc.h ****   \brief   Store-Release Exclusive (32 bit)
 918:Drivers/CMSIS/Include/cmsis_gcc.h ****   \details Executes a STL exclusive instruction for 32 bit values.
 919:Drivers/CMSIS/Include/cmsis_gcc.h ****   \param [in]  value  Value to store
 920:Drivers/CMSIS/Include/cmsis_gcc.h ****   \param [in]    ptr  Pointer to location
 921:Drivers/CMSIS/Include/cmsis_gcc.h ****   \return          0  Function succeeded
 922:Drivers/CMSIS/Include/cmsis_gcc.h ****   \return          1  Function failed
 923:Drivers/CMSIS/Include/cmsis_gcc.h ****  */
 924:Drivers/CMSIS/Include/cmsis_gcc.h **** __STATIC_FORCEINLINE uint32_t __STLEX(uint32_t value, volatile uint32_t *ptr)
 925:Drivers/CMSIS/Include/cmsis_gcc.h **** {
 926:Drivers/CMSIS/Include/cmsis_gcc.h ****    uint32_t result;
 927:Drivers/CMSIS/Include/cmsis_gcc.h **** 
 928:Drivers/CMSIS/Include/cmsis_gcc.h ****    __ASM volatile ("stlex %0, %2, %1" : "=&r" (result), "=Q" (*ptr) : "r" ((uint32_t)value) : "memo
 929:Drivers/CMSIS/Include/cmsis_gcc.h ****    return(result);
 930:Drivers/CMSIS/Include/cmsis_gcc.h **** }
 931:Drivers/CMSIS/Include/cmsis_gcc.h **** 
 932:Drivers/CMSIS/Include/cmsis_gcc.h **** #endif /* ((defined (__ARM_ARCH_8M_MAIN__ ) && (__ARM_ARCH_8M_MAIN__ == 1)) || \
 933:Drivers/CMSIS/Include/cmsis_gcc.h ****            (defined (__ARM_ARCH_8M_BASE__ ) && (__ARM_ARCH_8M_BASE__ == 1))    ) */
 934:Drivers/CMSIS/Include/cmsis_gcc.h **** 
 935:Drivers/CMSIS/Include/cmsis_gcc.h **** /*@}*/ /* end of group CMSIS_Core_InstructionInterface */
 936:Drivers/CMSIS/Include/cmsis_gcc.h **** 
 937:Drivers/CMSIS/Include/cmsis_gcc.h **** 
 938:Drivers/CMSIS/Include/cmsis_gcc.h **** /* ###########################  Core Function Access  ########################### */
 939:Drivers/CMSIS/Include/cmsis_gcc.h **** /** \ingroup  CMSIS_Core_FunctionInterface
 940:Drivers/CMSIS/Include/cmsis_gcc.h ****     \defgroup CMSIS_Core_RegAccFunctions CMSIS Core Register Access Functions
 941:Drivers/CMSIS/Include/cmsis_gcc.h ****   @{
ARM GAS  /tmp/cc8nHYuQ.s 			page 49


 942:Drivers/CMSIS/Include/cmsis_gcc.h ****  */
 943:Drivers/CMSIS/Include/cmsis_gcc.h **** 
 944:Drivers/CMSIS/Include/cmsis_gcc.h **** /**
 945:Drivers/CMSIS/Include/cmsis_gcc.h ****   \brief   Enable IRQ Interrupts
 946:Drivers/CMSIS/Include/cmsis_gcc.h ****   \details Enables IRQ interrupts by clearing special-purpose register PRIMASK.
 947:Drivers/CMSIS/Include/cmsis_gcc.h ****            Can only be executed in Privileged modes.
 948:Drivers/CMSIS/Include/cmsis_gcc.h ****  */
 949:Drivers/CMSIS/Include/cmsis_gcc.h **** __STATIC_FORCEINLINE void __enable_irq(void)
 950:Drivers/CMSIS/Include/cmsis_gcc.h **** {
 951:Drivers/CMSIS/Include/cmsis_gcc.h ****   __ASM volatile ("cpsie i" : : : "memory");
 952:Drivers/CMSIS/Include/cmsis_gcc.h **** }
 953:Drivers/CMSIS/Include/cmsis_gcc.h **** 
 954:Drivers/CMSIS/Include/cmsis_gcc.h **** 
 955:Drivers/CMSIS/Include/cmsis_gcc.h **** /**
 956:Drivers/CMSIS/Include/cmsis_gcc.h ****   \brief   Disable IRQ Interrupts
 957:Drivers/CMSIS/Include/cmsis_gcc.h ****   \details Disables IRQ interrupts by setting special-purpose register PRIMASK.
 958:Drivers/CMSIS/Include/cmsis_gcc.h ****            Can only be executed in Privileged modes.
 959:Drivers/CMSIS/Include/cmsis_gcc.h ****  */
 960:Drivers/CMSIS/Include/cmsis_gcc.h **** __STATIC_FORCEINLINE void __disable_irq(void)
 1129              		.loc 2 960 27 view .LVU242
 1130              	.LBB11:
 961:Drivers/CMSIS/Include/cmsis_gcc.h **** {
 962:Drivers/CMSIS/Include/cmsis_gcc.h ****   __ASM volatile ("cpsid i" : : : "memory");
 1131              		.loc 2 962 3 view .LVU243
 1132              		.syntax unified
 1133              	@ 962 "Drivers/CMSIS/Include/cmsis_gcc.h" 1
 1134 0000 72B6     		cpsid i
 1135              	@ 0 "" 2
 1136              		.thumb
 1137              		.syntax unified
 1138              	.L78:
 1139              	.LBE11:
 1140              	.LBE10:
 507:Core/Src/main.c ****   while (1)
 1141              		.loc 1 507 3 discriminator 1 view .LVU244
 508:Core/Src/main.c ****   {
 509:Core/Src/main.c ****   }
 1142              		.loc 1 509 3 discriminator 1 view .LVU245
 507:Core/Src/main.c ****   while (1)
 1143              		.loc 1 507 9 discriminator 1 view .LVU246
 1144 0002 FEE7     		b	.L78
 1145              		.cfi_endproc
 1146              	.LFE156:
 1148              		.section	.text.MX_USART2_UART_Init,"ax",%progbits
 1149              		.align	1
 1150              		.syntax unified
 1151              		.thumb
 1152              		.thumb_func
 1153              		.fpu fpv4-sp-d16
 1155              	MX_USART2_UART_Init:
 1156              	.LFB154:
 428:Core/Src/main.c **** 
 1157              		.loc 1 428 1 view -0
 1158              		.cfi_startproc
 1159              		@ args = 0, pretend = 0, frame = 0
 1160              		@ frame_needed = 0, uses_anonymous_args = 0
 1161 0000 08B5     		push	{r3, lr}
ARM GAS  /tmp/cc8nHYuQ.s 			page 50


 1162              	.LCFI21:
 1163              		.cfi_def_cfa_offset 8
 1164              		.cfi_offset 3, -8
 1165              		.cfi_offset 14, -4
 437:Core/Src/main.c ****   huart2.Init.BaudRate = 115200;
 1166              		.loc 1 437 3 view .LVU248
 437:Core/Src/main.c ****   huart2.Init.BaudRate = 115200;
 1167              		.loc 1 437 19 is_stmt 0 view .LVU249
 1168 0002 0A48     		ldr	r0, .L83
 1169 0004 0A4B     		ldr	r3, .L83+4
 1170 0006 0360     		str	r3, [r0]
 438:Core/Src/main.c ****   huart2.Init.WordLength = UART_WORDLENGTH_8B;
 1171              		.loc 1 438 3 is_stmt 1 view .LVU250
 438:Core/Src/main.c ****   huart2.Init.WordLength = UART_WORDLENGTH_8B;
 1172              		.loc 1 438 24 is_stmt 0 view .LVU251
 1173 0008 4FF4E133 		mov	r3, #115200
 1174 000c 4360     		str	r3, [r0, #4]
 439:Core/Src/main.c ****   huart2.Init.StopBits = UART_STOPBITS_1;
 1175              		.loc 1 439 3 is_stmt 1 view .LVU252
 439:Core/Src/main.c ****   huart2.Init.StopBits = UART_STOPBITS_1;
 1176              		.loc 1 439 26 is_stmt 0 view .LVU253
 1177 000e 0023     		movs	r3, #0
 1178 0010 8360     		str	r3, [r0, #8]
 440:Core/Src/main.c ****   huart2.Init.Parity = UART_PARITY_NONE;
 1179              		.loc 1 440 3 is_stmt 1 view .LVU254
 440:Core/Src/main.c ****   huart2.Init.Parity = UART_PARITY_NONE;
 1180              		.loc 1 440 24 is_stmt 0 view .LVU255
 1181 0012 C360     		str	r3, [r0, #12]
 441:Core/Src/main.c ****   huart2.Init.Mode = UART_MODE_TX_RX;
 1182              		.loc 1 441 3 is_stmt 1 view .LVU256
 441:Core/Src/main.c ****   huart2.Init.Mode = UART_MODE_TX_RX;
 1183              		.loc 1 441 22 is_stmt 0 view .LVU257
 1184 0014 0361     		str	r3, [r0, #16]
 442:Core/Src/main.c ****   huart2.Init.HwFlowCtl = UART_HWCONTROL_NONE;
 1185              		.loc 1 442 3 is_stmt 1 view .LVU258
 442:Core/Src/main.c ****   huart2.Init.HwFlowCtl = UART_HWCONTROL_NONE;
 1186              		.loc 1 442 20 is_stmt 0 view .LVU259
 1187 0016 0C22     		movs	r2, #12
 1188 0018 4261     		str	r2, [r0, #20]
 443:Core/Src/main.c ****   huart2.Init.OverSampling = UART_OVERSAMPLING_16;
 1189              		.loc 1 443 3 is_stmt 1 view .LVU260
 443:Core/Src/main.c ****   huart2.Init.OverSampling = UART_OVERSAMPLING_16;
 1190              		.loc 1 443 25 is_stmt 0 view .LVU261
 1191 001a 8361     		str	r3, [r0, #24]
 444:Core/Src/main.c ****   if (HAL_UART_Init(&huart2) != HAL_OK)
 1192              		.loc 1 444 3 is_stmt 1 view .LVU262
 444:Core/Src/main.c ****   if (HAL_UART_Init(&huart2) != HAL_OK)
 1193              		.loc 1 444 28 is_stmt 0 view .LVU263
 1194 001c C361     		str	r3, [r0, #28]
 445:Core/Src/main.c ****   {
 1195              		.loc 1 445 3 is_stmt 1 view .LVU264
 445:Core/Src/main.c ****   {
 1196              		.loc 1 445 7 is_stmt 0 view .LVU265
 1197 001e FFF7FEFF 		bl	HAL_UART_Init
 1198              	.LVL91:
 445:Core/Src/main.c ****   {
 1199              		.loc 1 445 6 view .LVU266
ARM GAS  /tmp/cc8nHYuQ.s 			page 51


 1200 0022 00B9     		cbnz	r0, .L82
 453:Core/Src/main.c **** 
 1201              		.loc 1 453 1 view .LVU267
 1202 0024 08BD     		pop	{r3, pc}
 1203              	.L82:
 447:Core/Src/main.c ****   }
 1204              		.loc 1 447 5 is_stmt 1 view .LVU268
 1205 0026 FFF7FEFF 		bl	Error_Handler
 1206              	.LVL92:
 1207              	.L84:
 1208 002a 00BF     		.align	2
 1209              	.L83:
 1210 002c 00000000 		.word	.LANCHOR5
 1211 0030 00440040 		.word	1073759232
 1212              		.cfi_endproc
 1213              	.LFE154:
 1215              		.section	.text.MX_USART1_UART_Init,"ax",%progbits
 1216              		.align	1
 1217              		.syntax unified
 1218              		.thumb
 1219              		.thumb_func
 1220              		.fpu fpv4-sp-d16
 1222              	MX_USART1_UART_Init:
 1223              	.LFB153:
 395:Core/Src/main.c **** 
 1224              		.loc 1 395 1 view -0
 1225              		.cfi_startproc
 1226              		@ args = 0, pretend = 0, frame = 0
 1227              		@ frame_needed = 0, uses_anonymous_args = 0
 1228 0000 08B5     		push	{r3, lr}
 1229              	.LCFI22:
 1230              		.cfi_def_cfa_offset 8
 1231              		.cfi_offset 3, -8
 1232              		.cfi_offset 14, -4
 404:Core/Src/main.c ****   huart1.Init.BaudRate = 115200;
 1233              		.loc 1 404 3 view .LVU270
 404:Core/Src/main.c ****   huart1.Init.BaudRate = 115200;
 1234              		.loc 1 404 19 is_stmt 0 view .LVU271
 1235 0002 0A48     		ldr	r0, .L89
 1236 0004 0A4B     		ldr	r3, .L89+4
 1237 0006 0360     		str	r3, [r0]
 405:Core/Src/main.c ****   huart1.Init.WordLength = UART_WORDLENGTH_8B;
 1238              		.loc 1 405 3 is_stmt 1 view .LVU272
 405:Core/Src/main.c ****   huart1.Init.WordLength = UART_WORDLENGTH_8B;
 1239              		.loc 1 405 24 is_stmt 0 view .LVU273
 1240 0008 4FF4E133 		mov	r3, #115200
 1241 000c 4360     		str	r3, [r0, #4]
 406:Core/Src/main.c ****   huart1.Init.StopBits = UART_STOPBITS_1;
 1242              		.loc 1 406 3 is_stmt 1 view .LVU274
 406:Core/Src/main.c ****   huart1.Init.StopBits = UART_STOPBITS_1;
 1243              		.loc 1 406 26 is_stmt 0 view .LVU275
 1244 000e 0023     		movs	r3, #0
 1245 0010 8360     		str	r3, [r0, #8]
 407:Core/Src/main.c ****   huart1.Init.Parity = UART_PARITY_NONE;
 1246              		.loc 1 407 3 is_stmt 1 view .LVU276
 407:Core/Src/main.c ****   huart1.Init.Parity = UART_PARITY_NONE;
 1247              		.loc 1 407 24 is_stmt 0 view .LVU277
ARM GAS  /tmp/cc8nHYuQ.s 			page 52


 1248 0012 C360     		str	r3, [r0, #12]
 408:Core/Src/main.c ****   huart1.Init.Mode = UART_MODE_TX_RX;
 1249              		.loc 1 408 3 is_stmt 1 view .LVU278
 408:Core/Src/main.c ****   huart1.Init.Mode = UART_MODE_TX_RX;
 1250              		.loc 1 408 22 is_stmt 0 view .LVU279
 1251 0014 0361     		str	r3, [r0, #16]
 409:Core/Src/main.c ****   huart1.Init.HwFlowCtl = UART_HWCONTROL_NONE;
 1252              		.loc 1 409 3 is_stmt 1 view .LVU280
 409:Core/Src/main.c ****   huart1.Init.HwFlowCtl = UART_HWCONTROL_NONE;
 1253              		.loc 1 409 20 is_stmt 0 view .LVU281
 1254 0016 0C22     		movs	r2, #12
 1255 0018 4261     		str	r2, [r0, #20]
 410:Core/Src/main.c ****   huart1.Init.OverSampling = UART_OVERSAMPLING_16;
 1256              		.loc 1 410 3 is_stmt 1 view .LVU282
 410:Core/Src/main.c ****   huart1.Init.OverSampling = UART_OVERSAMPLING_16;
 1257              		.loc 1 410 25 is_stmt 0 view .LVU283
 1258 001a 8361     		str	r3, [r0, #24]
 411:Core/Src/main.c ****   if (HAL_UART_Init(&huart1) != HAL_OK)
 1259              		.loc 1 411 3 is_stmt 1 view .LVU284
 411:Core/Src/main.c ****   if (HAL_UART_Init(&huart1) != HAL_OK)
 1260              		.loc 1 411 28 is_stmt 0 view .LVU285
 1261 001c C361     		str	r3, [r0, #28]
 412:Core/Src/main.c ****   {
 1262              		.loc 1 412 3 is_stmt 1 view .LVU286
 412:Core/Src/main.c ****   {
 1263              		.loc 1 412 7 is_stmt 0 view .LVU287
 1264 001e FFF7FEFF 		bl	HAL_UART_Init
 1265              	.LVL93:
 412:Core/Src/main.c ****   {
 1266              		.loc 1 412 6 view .LVU288
 1267 0022 00B9     		cbnz	r0, .L88
 420:Core/Src/main.c **** 
 1268              		.loc 1 420 1 view .LVU289
 1269 0024 08BD     		pop	{r3, pc}
 1270              	.L88:
 414:Core/Src/main.c ****   }
 1271              		.loc 1 414 5 is_stmt 1 view .LVU290
 1272 0026 FFF7FEFF 		bl	Error_Handler
 1273              	.LVL94:
 1274              	.L90:
 1275 002a 00BF     		.align	2
 1276              	.L89:
 1277 002c 00000000 		.word	.LANCHOR6
 1278 0030 00100140 		.word	1073811456
 1279              		.cfi_endproc
 1280              	.LFE153:
 1282              		.section	.text.uart_init,"ax",%progbits
 1283              		.align	1
 1284              		.global	uart_init
 1285              		.syntax unified
 1286              		.thumb
 1287              		.thumb_func
 1288              		.fpu fpv4-sp-d16
 1290              	uart_init:
 1291              	.LVL95:
 1292              	.LFB145:
 235:Core/Src/main.c ****   switch(uart)
ARM GAS  /tmp/cc8nHYuQ.s 			page 53


 1293              		.loc 1 235 1 view -0
 1294              		.cfi_startproc
 1295              		@ args = 0, pretend = 0, frame = 0
 1296              		@ frame_needed = 0, uses_anonymous_args = 0
 235:Core/Src/main.c ****   switch(uart)
 1297              		.loc 1 235 1 is_stmt 0 view .LVU292
 1298 0000 08B5     		push	{r3, lr}
 1299              	.LCFI23:
 1300              		.cfi_def_cfa_offset 8
 1301              		.cfi_offset 3, -8
 1302              		.cfi_offset 14, -4
 236:Core/Src/main.c ****   {
 1303              		.loc 1 236 3 is_stmt 1 view .LVU293
 1304 0002 10B1     		cbz	r0, .L92
 1305 0004 0128     		cmp	r0, #1
 1306 0006 03D0     		beq	.L93
 1307              	.LVL96:
 1308              	.L91:
 245:Core/Src/main.c **** 
 1309              		.loc 1 245 1 is_stmt 0 view .LVU294
 1310 0008 08BD     		pop	{r3, pc}
 1311              	.LVL97:
 1312              	.L92:
 239:Core/Src/main.c ****     break;
 1313              		.loc 1 239 5 is_stmt 1 view .LVU295
 1314 000a FFF7FEFF 		bl	MX_USART2_UART_Init
 1315              	.LVL98:
 240:Core/Src/main.c ****   case BOARD_UART:
 1316              		.loc 1 240 5 view .LVU296
 1317 000e FBE7     		b	.L91
 1318              	.LVL99:
 1319              	.L93:
 242:Core/Src/main.c ****     break;
 1320              		.loc 1 242 5 view .LVU297
 1321 0010 FFF7FEFF 		bl	MX_USART1_UART_Init
 1322              	.LVL100:
 243:Core/Src/main.c ****   }
 1323              		.loc 1 243 5 view .LVU298
 245:Core/Src/main.c **** 
 1324              		.loc 1 245 1 is_stmt 0 view .LVU299
 1325 0014 F8E7     		b	.L91
 1326              		.cfi_endproc
 1327              	.LFE145:
 1329              		.section	.text.SystemClock_Config,"ax",%progbits
 1330              		.align	1
 1331              		.global	SystemClock_Config
 1332              		.syntax unified
 1333              		.thumb
 1334              		.thumb_func
 1335              		.fpu fpv4-sp-d16
 1337              	SystemClock_Config:
 1338              	.LFB152:
 348:Core/Src/main.c ****   RCC_OscInitTypeDef RCC_OscInitStruct = {0};
 1339              		.loc 1 348 1 is_stmt 1 view -0
 1340              		.cfi_startproc
 1341              		@ args = 0, pretend = 0, frame = 80
 1342              		@ frame_needed = 0, uses_anonymous_args = 0
ARM GAS  /tmp/cc8nHYuQ.s 			page 54


 1343 0000 00B5     		push	{lr}
 1344              	.LCFI24:
 1345              		.cfi_def_cfa_offset 4
 1346              		.cfi_offset 14, -4
 1347 0002 95B0     		sub	sp, sp, #84
 1348              	.LCFI25:
 1349              		.cfi_def_cfa_offset 88
 349:Core/Src/main.c ****   RCC_ClkInitTypeDef RCC_ClkInitStruct = {0};
 1350              		.loc 1 349 3 view .LVU301
 349:Core/Src/main.c ****   RCC_ClkInitTypeDef RCC_ClkInitStruct = {0};
 1351              		.loc 1 349 22 is_stmt 0 view .LVU302
 1352 0004 3022     		movs	r2, #48
 1353 0006 0021     		movs	r1, #0
 1354 0008 08A8     		add	r0, sp, #32
 1355 000a FFF7FEFF 		bl	memset
 1356              	.LVL101:
 350:Core/Src/main.c **** 
 1357              		.loc 1 350 3 is_stmt 1 view .LVU303
 350:Core/Src/main.c **** 
 1358              		.loc 1 350 22 is_stmt 0 view .LVU304
 1359 000e 0023     		movs	r3, #0
 1360 0010 0393     		str	r3, [sp, #12]
 1361 0012 0493     		str	r3, [sp, #16]
 1362 0014 0593     		str	r3, [sp, #20]
 1363 0016 0693     		str	r3, [sp, #24]
 1364 0018 0793     		str	r3, [sp, #28]
 354:Core/Src/main.c ****   __HAL_PWR_VOLTAGESCALING_CONFIG(PWR_REGULATOR_VOLTAGE_SCALE1);
 1365              		.loc 1 354 3 is_stmt 1 view .LVU305
 1366              	.LBB12:
 354:Core/Src/main.c ****   __HAL_PWR_VOLTAGESCALING_CONFIG(PWR_REGULATOR_VOLTAGE_SCALE1);
 1367              		.loc 1 354 3 view .LVU306
 1368 001a 0193     		str	r3, [sp, #4]
 354:Core/Src/main.c ****   __HAL_PWR_VOLTAGESCALING_CONFIG(PWR_REGULATOR_VOLTAGE_SCALE1);
 1369              		.loc 1 354 3 view .LVU307
 1370 001c 1E4A     		ldr	r2, .L102
 1371 001e 116C     		ldr	r1, [r2, #64]
 1372 0020 41F08051 		orr	r1, r1, #268435456
 1373 0024 1164     		str	r1, [r2, #64]
 354:Core/Src/main.c ****   __HAL_PWR_VOLTAGESCALING_CONFIG(PWR_REGULATOR_VOLTAGE_SCALE1);
 1374              		.loc 1 354 3 view .LVU308
 1375 0026 126C     		ldr	r2, [r2, #64]
 1376 0028 02F08052 		and	r2, r2, #268435456
 1377 002c 0192     		str	r2, [sp, #4]
 354:Core/Src/main.c ****   __HAL_PWR_VOLTAGESCALING_CONFIG(PWR_REGULATOR_VOLTAGE_SCALE1);
 1378              		.loc 1 354 3 view .LVU309
 1379 002e 019A     		ldr	r2, [sp, #4]
 1380              	.LBE12:
 354:Core/Src/main.c ****   __HAL_PWR_VOLTAGESCALING_CONFIG(PWR_REGULATOR_VOLTAGE_SCALE1);
 1381              		.loc 1 354 3 view .LVU310
 355:Core/Src/main.c **** 
 1382              		.loc 1 355 3 view .LVU311
 1383              	.LBB13:
 355:Core/Src/main.c **** 
 1384              		.loc 1 355 3 view .LVU312
 1385 0030 0293     		str	r3, [sp, #8]
 355:Core/Src/main.c **** 
 1386              		.loc 1 355 3 view .LVU313
ARM GAS  /tmp/cc8nHYuQ.s 			page 55


 1387 0032 1A4A     		ldr	r2, .L102+4
 1388 0034 1168     		ldr	r1, [r2]
 1389 0036 41F44041 		orr	r1, r1, #49152
 1390 003a 1160     		str	r1, [r2]
 355:Core/Src/main.c **** 
 1391              		.loc 1 355 3 view .LVU314
 1392 003c 1268     		ldr	r2, [r2]
 1393 003e 02F44042 		and	r2, r2, #49152
 1394 0042 0292     		str	r2, [sp, #8]
 355:Core/Src/main.c **** 
 1395              		.loc 1 355 3 view .LVU315
 1396 0044 029A     		ldr	r2, [sp, #8]
 1397              	.LBE13:
 355:Core/Src/main.c **** 
 1398              		.loc 1 355 3 view .LVU316
 360:Core/Src/main.c ****   RCC_OscInitStruct.HSIState = RCC_HSI_ON;
 1399              		.loc 1 360 3 view .LVU317
 360:Core/Src/main.c ****   RCC_OscInitStruct.HSIState = RCC_HSI_ON;
 1400              		.loc 1 360 36 is_stmt 0 view .LVU318
 1401 0046 0221     		movs	r1, #2
 1402 0048 0891     		str	r1, [sp, #32]
 361:Core/Src/main.c ****   RCC_OscInitStruct.HSICalibrationValue = RCC_HSICALIBRATION_DEFAULT;
 1403              		.loc 1 361 3 is_stmt 1 view .LVU319
 361:Core/Src/main.c ****   RCC_OscInitStruct.HSICalibrationValue = RCC_HSICALIBRATION_DEFAULT;
 1404              		.loc 1 361 30 is_stmt 0 view .LVU320
 1405 004a 0122     		movs	r2, #1
 1406 004c 0B92     		str	r2, [sp, #44]
 362:Core/Src/main.c ****   RCC_OscInitStruct.PLL.PLLState = RCC_PLL_ON;
 1407              		.loc 1 362 3 is_stmt 1 view .LVU321
 362:Core/Src/main.c ****   RCC_OscInitStruct.PLL.PLLState = RCC_PLL_ON;
 1408              		.loc 1 362 41 is_stmt 0 view .LVU322
 1409 004e 1022     		movs	r2, #16
 1410 0050 0C92     		str	r2, [sp, #48]
 363:Core/Src/main.c ****   RCC_OscInitStruct.PLL.PLLSource = RCC_PLLSOURCE_HSI;
 1411              		.loc 1 363 3 is_stmt 1 view .LVU323
 363:Core/Src/main.c ****   RCC_OscInitStruct.PLL.PLLSource = RCC_PLLSOURCE_HSI;
 1412              		.loc 1 363 34 is_stmt 0 view .LVU324
 1413 0052 0E91     		str	r1, [sp, #56]
 364:Core/Src/main.c ****   RCC_OscInitStruct.PLL.PLLM = 16;
 1414              		.loc 1 364 3 is_stmt 1 view .LVU325
 364:Core/Src/main.c ****   RCC_OscInitStruct.PLL.PLLM = 16;
 1415              		.loc 1 364 35 is_stmt 0 view .LVU326
 1416 0054 0F93     		str	r3, [sp, #60]
 365:Core/Src/main.c ****   RCC_OscInitStruct.PLL.PLLN = 336;
 1417              		.loc 1 365 3 is_stmt 1 view .LVU327
 365:Core/Src/main.c ****   RCC_OscInitStruct.PLL.PLLN = 336;
 1418              		.loc 1 365 30 is_stmt 0 view .LVU328
 1419 0056 1092     		str	r2, [sp, #64]
 366:Core/Src/main.c ****   RCC_OscInitStruct.PLL.PLLP = RCC_PLLP_DIV4;
 1420              		.loc 1 366 3 is_stmt 1 view .LVU329
 366:Core/Src/main.c ****   RCC_OscInitStruct.PLL.PLLP = RCC_PLLP_DIV4;
 1421              		.loc 1 366 30 is_stmt 0 view .LVU330
 1422 0058 4FF4A873 		mov	r3, #336
 1423 005c 1193     		str	r3, [sp, #68]
 367:Core/Src/main.c ****   RCC_OscInitStruct.PLL.PLLQ = 4;
 1424              		.loc 1 367 3 is_stmt 1 view .LVU331
 367:Core/Src/main.c ****   RCC_OscInitStruct.PLL.PLLQ = 4;
ARM GAS  /tmp/cc8nHYuQ.s 			page 56


 1425              		.loc 1 367 30 is_stmt 0 view .LVU332
 1426 005e 0423     		movs	r3, #4
 1427 0060 1293     		str	r3, [sp, #72]
 368:Core/Src/main.c ****   if (HAL_RCC_OscConfig(&RCC_OscInitStruct) != HAL_OK)
 1428              		.loc 1 368 3 is_stmt 1 view .LVU333
 368:Core/Src/main.c ****   if (HAL_RCC_OscConfig(&RCC_OscInitStruct) != HAL_OK)
 1429              		.loc 1 368 30 is_stmt 0 view .LVU334
 1430 0062 1393     		str	r3, [sp, #76]
 369:Core/Src/main.c ****   {
 1431              		.loc 1 369 3 is_stmt 1 view .LVU335
 369:Core/Src/main.c ****   {
 1432              		.loc 1 369 7 is_stmt 0 view .LVU336
 1433 0064 08A8     		add	r0, sp, #32
 1434 0066 FFF7FEFF 		bl	HAL_RCC_OscConfig
 1435              	.LVL102:
 369:Core/Src/main.c ****   {
 1436              		.loc 1 369 6 view .LVU337
 1437 006a 80B9     		cbnz	r0, .L100
 376:Core/Src/main.c ****                               |RCC_CLOCKTYPE_PCLK1|RCC_CLOCKTYPE_PCLK2;
 1438              		.loc 1 376 3 is_stmt 1 view .LVU338
 376:Core/Src/main.c ****                               |RCC_CLOCKTYPE_PCLK1|RCC_CLOCKTYPE_PCLK2;
 1439              		.loc 1 376 31 is_stmt 0 view .LVU339
 1440 006c 0F23     		movs	r3, #15
 1441 006e 0393     		str	r3, [sp, #12]
 378:Core/Src/main.c ****   RCC_ClkInitStruct.AHBCLKDivider = RCC_SYSCLK_DIV1;
 1442              		.loc 1 378 3 is_stmt 1 view .LVU340
 378:Core/Src/main.c ****   RCC_ClkInitStruct.AHBCLKDivider = RCC_SYSCLK_DIV1;
 1443              		.loc 1 378 34 is_stmt 0 view .LVU341
 1444 0070 0221     		movs	r1, #2
 1445 0072 0491     		str	r1, [sp, #16]
 379:Core/Src/main.c ****   RCC_ClkInitStruct.APB1CLKDivider = RCC_HCLK_DIV2;
 1446              		.loc 1 379 3 is_stmt 1 view .LVU342
 379:Core/Src/main.c ****   RCC_ClkInitStruct.APB1CLKDivider = RCC_HCLK_DIV2;
 1447              		.loc 1 379 35 is_stmt 0 view .LVU343
 1448 0074 0023     		movs	r3, #0
 1449 0076 0593     		str	r3, [sp, #20]
 380:Core/Src/main.c ****   RCC_ClkInitStruct.APB2CLKDivider = RCC_HCLK_DIV1;
 1450              		.loc 1 380 3 is_stmt 1 view .LVU344
 380:Core/Src/main.c ****   RCC_ClkInitStruct.APB2CLKDivider = RCC_HCLK_DIV1;
 1451              		.loc 1 380 36 is_stmt 0 view .LVU345
 1452 0078 4FF48052 		mov	r2, #4096
 1453 007c 0692     		str	r2, [sp, #24]
 381:Core/Src/main.c **** 
 1454              		.loc 1 381 3 is_stmt 1 view .LVU346
 381:Core/Src/main.c **** 
 1455              		.loc 1 381 36 is_stmt 0 view .LVU347
 1456 007e 0793     		str	r3, [sp, #28]
 383:Core/Src/main.c ****   {
 1457              		.loc 1 383 3 is_stmt 1 view .LVU348
 383:Core/Src/main.c ****   {
 1458              		.loc 1 383 7 is_stmt 0 view .LVU349
 1459 0080 03A8     		add	r0, sp, #12
 1460 0082 FFF7FEFF 		bl	HAL_RCC_ClockConfig
 1461              	.LVL103:
 383:Core/Src/main.c ****   {
 1462              		.loc 1 383 6 view .LVU350
 1463 0086 20B9     		cbnz	r0, .L101
ARM GAS  /tmp/cc8nHYuQ.s 			page 57


 387:Core/Src/main.c **** 
 1464              		.loc 1 387 1 view .LVU351
 1465 0088 15B0     		add	sp, sp, #84
 1466              	.LCFI26:
 1467              		.cfi_remember_state
 1468              		.cfi_def_cfa_offset 4
 1469              		@ sp needed
 1470 008a 5DF804FB 		ldr	pc, [sp], #4
 1471              	.L100:
 1472              	.LCFI27:
 1473              		.cfi_restore_state
 371:Core/Src/main.c ****   }
 1474              		.loc 1 371 5 is_stmt 1 view .LVU352
 1475 008e FFF7FEFF 		bl	Error_Handler
 1476              	.LVL104:
 1477              	.L101:
 385:Core/Src/main.c ****   }
 1478              		.loc 1 385 5 view .LVU353
 1479 0092 FFF7FEFF 		bl	Error_Handler
 1480              	.LVL105:
 1481              	.L103:
 1482 0096 00BF     		.align	2
 1483              	.L102:
 1484 0098 00380240 		.word	1073887232
 1485 009c 00700040 		.word	1073770496
 1486              		.cfi_endproc
 1487              	.LFE152:
 1489              		.section	.text.initHardware,"ax",%progbits
 1490              		.align	1
 1491              		.syntax unified
 1492              		.thumb
 1493              		.thumb_func
 1494              		.fpu fpv4-sp-d16
 1496              	initHardware:
 1497              	.LVL106:
 1498              	.LFB137:
 101:Core/Src/main.c ****   /* Reset of all peripherals, Initializes the Flash interface and the Systick. */
 1499              		.loc 1 101 1 view -0
 1500              		.cfi_startproc
 1501              		@ args = 0, pretend = 0, frame = 0
 1502              		@ frame_needed = 0, uses_anonymous_args = 0
 101:Core/Src/main.c ****   /* Reset of all peripherals, Initializes the Flash interface and the Systick. */
 1503              		.loc 1 101 1 is_stmt 0 view .LVU355
 1504 0000 08B5     		push	{r3, lr}
 1505              	.LCFI28:
 1506              		.cfi_def_cfa_offset 8
 1507              		.cfi_offset 3, -8
 1508              		.cfi_offset 14, -4
 103:Core/Src/main.c **** 
 1509              		.loc 1 103 3 is_stmt 1 view .LVU356
 1510 0002 FFF7FEFF 		bl	HAL_Init
 1511              	.LVL107:
 106:Core/Src/main.c **** 
 1512              		.loc 1 106 3 view .LVU357
 1513 0006 FFF7FEFF 		bl	SystemClock_Config
 1514              	.LVL108:
 109:Core/Src/main.c ****   
ARM GAS  /tmp/cc8nHYuQ.s 			page 58


 1515              		.loc 1 109 3 view .LVU358
 1516 000a FFF7FEFF 		bl	MX_GPIO_Init
 1517              	.LVL109:
 112:Core/Src/main.c ****   //uart_init();
 1518              		.loc 1 112 3 view .LVU359
 1519 000e 0120     		movs	r0, #1
 1520 0010 FFF7FEFF 		bl	uart_init
 1521              	.LVL110:
 114:Core/Src/main.c **** 
 1522              		.loc 1 114 3 view .LVU360
 1523 0014 0020     		movs	r0, #0
 1524 0016 FFF7FEFF 		bl	uart_init
 1525              	.LVL111:
 116:Core/Src/main.c **** }
 1526              		.loc 1 116 3 view .LVU361
 1527 001a 0020     		movs	r0, #0
 1528 001c FFF7FEFF 		bl	setLED
 1529              	.LVL112:
 117:Core/Src/main.c **** 
 1530              		.loc 1 117 1 is_stmt 0 view .LVU362
 1531 0020 08BD     		pop	{r3, pc}
 1532              		.cfi_endproc
 1533              	.LFE137:
 1535              		.section	.text.initHardware_car,"ax",%progbits
 1536              		.align	1
 1537              		.global	initHardware_car
 1538              		.syntax unified
 1539              		.thumb
 1540              		.thumb_func
 1541              		.fpu fpv4-sp-d16
 1543              	initHardware_car:
 1544              	.LVL113:
 1545              	.LFB138:
 120:Core/Src/main.c ****   initHardware(argc, argv);
 1546              		.loc 1 120 1 is_stmt 1 view -0
 1547              		.cfi_startproc
 1548              		@ args = 0, pretend = 0, frame = 0
 1549              		@ frame_needed = 0, uses_anonymous_args = 0
 120:Core/Src/main.c ****   initHardware(argc, argv);
 1550              		.loc 1 120 1 is_stmt 0 view .LVU364
 1551 0000 08B5     		push	{r3, lr}
 1552              	.LCFI29:
 1553              		.cfi_def_cfa_offset 8
 1554              		.cfi_offset 3, -8
 1555              		.cfi_offset 14, -4
 121:Core/Src/main.c **** }
 1556              		.loc 1 121 3 is_stmt 1 view .LVU365
 1557 0002 FFF7FEFF 		bl	initHardware
 1558              	.LVL114:
 122:Core/Src/main.c **** 
 1559              		.loc 1 122 1 is_stmt 0 view .LVU366
 1560 0006 08BD     		pop	{r3, pc}
 1561              		.cfi_endproc
 1562              	.LFE138:
 1564              		.section	.text.initHardware_fob,"ax",%progbits
 1565              		.align	1
 1566              		.global	initHardware_fob
ARM GAS  /tmp/cc8nHYuQ.s 			page 59


 1567              		.syntax unified
 1568              		.thumb
 1569              		.thumb_func
 1570              		.fpu fpv4-sp-d16
 1572              	initHardware_fob:
 1573              	.LVL115:
 1574              	.LFB139:
 125:Core/Src/main.c ****   initHardware(argc, argv);
 1575              		.loc 1 125 1 is_stmt 1 view -0
 1576              		.cfi_startproc
 1577              		@ args = 0, pretend = 0, frame = 0
 1578              		@ frame_needed = 0, uses_anonymous_args = 0
 125:Core/Src/main.c ****   initHardware(argc, argv);
 1579              		.loc 1 125 1 is_stmt 0 view .LVU368
 1580 0000 08B5     		push	{r3, lr}
 1581              	.LCFI30:
 1582              		.cfi_def_cfa_offset 8
 1583              		.cfi_offset 3, -8
 1584              		.cfi_offset 14, -4
 126:Core/Src/main.c **** }
 1585              		.loc 1 126 3 is_stmt 1 view .LVU369
 1586 0002 FFF7FEFF 		bl	initHardware
 1587              	.LVL116:
 127:Core/Src/main.c **** 
 1588              		.loc 1 127 1 is_stmt 0 view .LVU370
 1589 0006 08BD     		pop	{r3, pc}
 1590              		.cfi_endproc
 1591              	.LFE139:
 1593              		.global	flash_data
 1594              		.global	feature3_flag
 1595              		.global	feature2_flag
 1596              		.global	feature1_flag
 1597              		.global	unlock_flag
 1598              		.global	huart2
 1599              		.global	huart1
 1600              		.section	.rodata
 1601              		.align	2
 1602              		.set	.LANCHOR0,. + 0
 1603              	.LC1:
 1604 0000 706F7461 		.ascii	"potato\000"
 1604      746F00
 1605 0007 00000000 		.space	57
 1605      00000000 
 1605      00000000 
 1605      00000000 
 1605      00000000 
 1606              	.LC3:
 1607 0040 64656661 		.ascii	"default_feature1\000"
 1607      756C745F 
 1607      66656174 
 1607      75726531 
 1607      00
 1608 0051 00000000 		.space	47
 1608      00000000 
 1608      00000000 
 1608      00000000 
 1608      00000000 
ARM GAS  /tmp/cc8nHYuQ.s 			page 60


 1609              	.LC5:
 1610 0080 64656661 		.ascii	"default_feature2\000"
 1610      756C745F 
 1610      66656174 
 1610      75726532 
 1610      00
 1611 0091 00000000 		.space	47
 1611      00000000 
 1611      00000000 
 1611      00000000 
 1611      00000000 
 1612              	.LC7:
 1613 00c0 64656661 		.ascii	"default_feature3\000"
 1613      756C745F 
 1613      66656174 
 1613      75726533 
 1613      00
 1614 00d1 00000000 		.space	47
 1614      00000000 
 1614      00000000 
 1614      00000000 
 1614      00000000 
 1615              		.section	.bss.history.1,"aw",%nobits
 1616              		.align	2
 1617              		.set	.LANCHOR2,. + 0
 1620              	history.1:
 1621 0000 00000000 		.space	4
 1622              		.section	.bss.huart1,"aw",%nobits
 1623              		.align	2
 1624              		.set	.LANCHOR6,. + 0
 1627              	huart1:
 1628 0000 00000000 		.space	72
 1628      00000000 
 1628      00000000 
 1628      00000000 
 1628      00000000 
 1629              		.section	.bss.huart2,"aw",%nobits
 1630              		.align	2
 1631              		.set	.LANCHOR5,. + 0
 1634              	huart2:
 1635 0000 00000000 		.space	72
 1635      00000000 
 1635      00000000 
 1635      00000000 
 1635      00000000 
 1636              		.section	.bss.latched.0,"aw",%nobits
 1637              		.set	.LANCHOR3,. + 0
 1640              	latched.0:
 1641 0000 00       		.space	1
 1642              		.section	.flash_data,"aw"
 1643              		.align	2
 1644              		.set	.LANCHOR1,. + 0
 1647              	flash_data:
 1648 0000 FF       		.byte	-1
 1649 0001 0000     		.ascii	"\000\000"
 1650 0003 00000000 		.space	6
 1650      0000
ARM GAS  /tmp/cc8nHYuQ.s 			page 61


 1651 0009 00000000 		.space	16
 1651      00000000 
 1651      00000000 
 1651      00000000 
 1652 0019 0000     		.ascii	"\000\000"
 1653 001b 00000000 		.space	6
 1653      0000
 1654 0021 FF       		.byte	-1
 1655 0022 0000     		.ascii	"\000\000"
 1656 0024 00       		.space	1
 1657 0025 000000   		.space	3
 1658              		.section	.rodata.feature1_flag,"a"
 1659              		.align	2
 1662              	feature1_flag:
 1663 0000 64656661 		.ascii	"default_feature1\000"
 1663      756C745F 
 1663      66656174 
 1663      75726531 
 1663      00
 1664 0011 00000000 		.space	47
 1664      00000000 
 1664      00000000 
 1664      00000000 
 1664      00000000 
 1665              		.section	.rodata.feature2_flag,"a"
 1666              		.align	2
 1669              	feature2_flag:
 1670 0000 64656661 		.ascii	"default_feature2\000"
 1670      756C745F 
 1670      66656174 
 1670      75726532 
 1670      00
 1671 0011 00000000 		.space	47
 1671      00000000 
 1671      00000000 
 1671      00000000 
 1671      00000000 
 1672              		.section	.rodata.feature3_flag,"a"
 1673              		.align	2
 1676              	feature3_flag:
 1677 0000 64656661 		.ascii	"default_feature3\000"
 1677      756C745F 
 1677      66656174 
 1677      75726533 
 1677      00
 1678 0011 00000000 		.space	47
 1678      00000000 
 1678      00000000 
 1678      00000000 
 1678      00000000 
 1679              		.section	.rodata.uart_base,"a"
 1680              		.align	2
 1681              		.set	.LANCHOR4,. + 0
 1684              	uart_base:
 1685 0000 00000000 		.word	huart2
 1686 0004 00000000 		.word	huart1
 1687              		.section	.rodata.unlock_flag,"a"
ARM GAS  /tmp/cc8nHYuQ.s 			page 62


 1688              		.align	2
 1691              	unlock_flag:
 1692 0000 706F7461 		.ascii	"potato\000"
 1692      746F00
 1693 0007 00000000 		.space	57
 1693      00000000 
 1693      00000000 
 1693      00000000 
 1693      00000000 
 1694              		.text
 1695              	.Letext0:
 1696              		.file 3 "/usr/lib/gcc/arm-none-eabi/10.3.1/include/stdint.h"
 1697              		.file 4 "Drivers/CMSIS/Device/ST/STM32F4xx/Include/stm32f411xe.h"
 1698              		.file 5 "/usr/lib/gcc/arm-none-eabi/10.3.1/include/stddef.h"
 1699              		.file 6 "Drivers/CMSIS/Device/ST/STM32F4xx/Include/stm32f4xx.h"
 1700              		.file 7 "Drivers/STM32F4xx_HAL_Driver/Inc/stm32f4xx_hal_def.h"
 1701              		.file 8 "Drivers/STM32F4xx_HAL_Driver/Inc/stm32f4xx_hal_rcc_ex.h"
 1702              		.file 9 "Drivers/STM32F4xx_HAL_Driver/Inc/stm32f4xx_hal_rcc.h"
 1703              		.file 10 "Drivers/STM32F4xx_HAL_Driver/Inc/stm32f4xx_hal_gpio.h"
 1704              		.file 11 "Drivers/STM32F4xx_HAL_Driver/Inc/stm32f4xx_hal_dma.h"
 1705              		.file 12 "Drivers/STM32F4xx_HAL_Driver/Inc/stm32f4xx_hal_flash_ex.h"
 1706              		.file 13 "Drivers/STM32F4xx_HAL_Driver/Inc/stm32f4xx_hal_uart.h"
 1707              		.file 14 "../../application/inc/uart.h"
 1708              		.file 15 "../../application/inc/dataFormats.h"
 1709              		.file 16 "../../application/inc/platform.h"
 1710              		.file 17 "Drivers/STM32F4xx_HAL_Driver/Inc/stm32f4xx_hal_flash.h"
 1711              		.file 18 "/usr/include/newlib/string.h"
 1712              		.file 19 "Drivers/STM32F4xx_HAL_Driver/Inc/stm32f4xx_hal.h"
 1713              		.file 20 "<built-in>"
ARM GAS  /tmp/cc8nHYuQ.s 			page 63


DEFINED SYMBOLS
                            *ABS*:0000000000000000 main.c
     /tmp/cc8nHYuQ.s:18     .text.get_flash_sector:0000000000000000 $t
     /tmp/cc8nHYuQ.s:25     .text.get_flash_sector:0000000000000000 get_flash_sector
     /tmp/cc8nHYuQ.s:126    .text.get_flash_sector:0000000000000054 $d
     /tmp/cc8nHYuQ.s:132    .text.MX_GPIO_Init:0000000000000000 $t
     /tmp/cc8nHYuQ.s:138    .text.MX_GPIO_Init:0000000000000000 MX_GPIO_Init
     /tmp/cc8nHYuQ.s:277    .text.MX_GPIO_Init:000000000000009c $d
     /tmp/cc8nHYuQ.s:284    .rodata.readVar.str1.4:0000000000000000 $d
     /tmp/cc8nHYuQ.s:300    .text.readVar:0000000000000000 $t
     /tmp/cc8nHYuQ.s:307    .text.readVar:0000000000000000 readVar
     /tmp/cc8nHYuQ.s:468    .text.readVar:00000000000000d0 $d
     /tmp/cc8nHYuQ.s:482    .text.saveFobState:0000000000000000 $t
     /tmp/cc8nHYuQ.s:489    .text.saveFobState:0000000000000000 saveFobState
     /tmp/cc8nHYuQ.s:653    .text.saveFobState:00000000000000a4 $d
     /tmp/cc8nHYuQ.s:658    .text.setLED:0000000000000000 $t
     /tmp/cc8nHYuQ.s:665    .text.setLED:0000000000000000 setLED
     /tmp/cc8nHYuQ.s:694    .text.setLED:0000000000000014 $d
     /tmp/cc8nHYuQ.s:699    .text.buttonPressed:0000000000000000 $t
     /tmp/cc8nHYuQ.s:706    .text.buttonPressed:0000000000000000 buttonPressed
     /tmp/cc8nHYuQ.s:775    .text.buttonPressed:0000000000000040 $d
     /tmp/cc8nHYuQ.s:782    .text.uart_avail:0000000000000000 $t
     /tmp/cc8nHYuQ.s:789    .text.uart_avail:0000000000000000 uart_avail
     /tmp/cc8nHYuQ.s:810    .text.uart_avail:0000000000000010 $d
     /tmp/cc8nHYuQ.s:815    .text.uart_readb:0000000000000000 $t
     /tmp/cc8nHYuQ.s:822    .text.uart_readb:0000000000000000 uart_readb
     /tmp/cc8nHYuQ.s:860    .text.uart_readb:000000000000001c $d
     /tmp/cc8nHYuQ.s:865    .text.uart_read:0000000000000000 $t
     /tmp/cc8nHYuQ.s:872    .text.uart_read:0000000000000000 uart_read
     /tmp/cc8nHYuQ.s:908    .text.uart_read:0000000000000018 $d
     /tmp/cc8nHYuQ.s:913    .text.uart_readline:0000000000000000 $t
     /tmp/cc8nHYuQ.s:920    .text.uart_readline:0000000000000000 uart_readline
     /tmp/cc8nHYuQ.s:1007   .text.uart_readline:0000000000000048 $d
     /tmp/cc8nHYuQ.s:1012   .text.uart_writeb:0000000000000000 $t
     /tmp/cc8nHYuQ.s:1019   .text.uart_writeb:0000000000000000 uart_writeb
     /tmp/cc8nHYuQ.s:1057   .text.uart_writeb:0000000000000020 $d
     /tmp/cc8nHYuQ.s:1062   .text.uart_write:0000000000000000 $t
     /tmp/cc8nHYuQ.s:1069   .text.uart_write:0000000000000000 uart_write
     /tmp/cc8nHYuQ.s:1105   .text.uart_write:0000000000000018 $d
     /tmp/cc8nHYuQ.s:1110   .text.Error_Handler:0000000000000000 $t
     /tmp/cc8nHYuQ.s:1117   .text.Error_Handler:0000000000000000 Error_Handler
     /tmp/cc8nHYuQ.s:1149   .text.MX_USART2_UART_Init:0000000000000000 $t
     /tmp/cc8nHYuQ.s:1155   .text.MX_USART2_UART_Init:0000000000000000 MX_USART2_UART_Init
     /tmp/cc8nHYuQ.s:1210   .text.MX_USART2_UART_Init:000000000000002c $d
     /tmp/cc8nHYuQ.s:1216   .text.MX_USART1_UART_Init:0000000000000000 $t
     /tmp/cc8nHYuQ.s:1222   .text.MX_USART1_UART_Init:0000000000000000 MX_USART1_UART_Init
     /tmp/cc8nHYuQ.s:1277   .text.MX_USART1_UART_Init:000000000000002c $d
     /tmp/cc8nHYuQ.s:1283   .text.uart_init:0000000000000000 $t
     /tmp/cc8nHYuQ.s:1290   .text.uart_init:0000000000000000 uart_init
     /tmp/cc8nHYuQ.s:1330   .text.SystemClock_Config:0000000000000000 $t
     /tmp/cc8nHYuQ.s:1337   .text.SystemClock_Config:0000000000000000 SystemClock_Config
     /tmp/cc8nHYuQ.s:1484   .text.SystemClock_Config:0000000000000098 $d
     /tmp/cc8nHYuQ.s:1490   .text.initHardware:0000000000000000 $t
     /tmp/cc8nHYuQ.s:1496   .text.initHardware:0000000000000000 initHardware
     /tmp/cc8nHYuQ.s:1536   .text.initHardware_car:0000000000000000 $t
     /tmp/cc8nHYuQ.s:1543   .text.initHardware_car:0000000000000000 initHardware_car
     /tmp/cc8nHYuQ.s:1565   .text.initHardware_fob:0000000000000000 $t
ARM GAS  /tmp/cc8nHYuQ.s 			page 64


     /tmp/cc8nHYuQ.s:1572   .text.initHardware_fob:0000000000000000 initHardware_fob
     /tmp/cc8nHYuQ.s:1647   .flash_data:0000000000000000 flash_data
     /tmp/cc8nHYuQ.s:1676   .rodata.feature3_flag:0000000000000000 feature3_flag
     /tmp/cc8nHYuQ.s:1669   .rodata.feature2_flag:0000000000000000 feature2_flag
     /tmp/cc8nHYuQ.s:1662   .rodata.feature1_flag:0000000000000000 feature1_flag
     /tmp/cc8nHYuQ.s:1691   .rodata.unlock_flag:0000000000000000 unlock_flag
     /tmp/cc8nHYuQ.s:1634   .bss.huart2:0000000000000000 huart2
     /tmp/cc8nHYuQ.s:1627   .bss.huart1:0000000000000000 huart1
     /tmp/cc8nHYuQ.s:1601   .rodata:0000000000000000 $d
     /tmp/cc8nHYuQ.s:1616   .bss.history.1:0000000000000000 $d
     /tmp/cc8nHYuQ.s:1620   .bss.history.1:0000000000000000 history.1
     /tmp/cc8nHYuQ.s:1623   .bss.huart1:0000000000000000 $d
     /tmp/cc8nHYuQ.s:1630   .bss.huart2:0000000000000000 $d
     /tmp/cc8nHYuQ.s:1640   .bss.latched.0:0000000000000000 latched.0
     /tmp/cc8nHYuQ.s:1641   .bss.latched.0:0000000000000000 $d
     /tmp/cc8nHYuQ.s:1643   .flash_data:0000000000000000 $d
     /tmp/cc8nHYuQ.s:1659   .rodata.feature1_flag:0000000000000000 $d
     /tmp/cc8nHYuQ.s:1666   .rodata.feature2_flag:0000000000000000 $d
     /tmp/cc8nHYuQ.s:1673   .rodata.feature3_flag:0000000000000000 $d
     /tmp/cc8nHYuQ.s:1680   .rodata.uart_base:0000000000000000 $d
     /tmp/cc8nHYuQ.s:1684   .rodata.uart_base:0000000000000000 uart_base
     /tmp/cc8nHYuQ.s:1688   .rodata.unlock_flag:0000000000000000 $d

UNDEFINED SYMBOLS
HAL_GPIO_WritePin
HAL_GPIO_Init
strcmp
memset
HAL_FLASH_Unlock
HAL_FLASHEx_Erase
HAL_FLASH_Program
HAL_FLASH_Lock
__flash_data_start__
HAL_GPIO_ReadPin
HAL_UART_Receive
HAL_UART_Transmit
HAL_UART_Init
HAL_RCC_OscConfig
HAL_RCC_ClockConfig
HAL_Init
