ARM GAS  /tmp/ccB3fkfO.s 			page 1


   1              		.cpu cortex-m4
   2              		.eabi_attribute 27, 1
   3              		.eabi_attribute 28, 1
   4              		.eabi_attribute 20, 1
   5              		.eabi_attribute 21, 1
   6              		.eabi_attribute 23, 3
   7              		.eabi_attribute 24, 1
   8              		.eabi_attribute 25, 1
   9              		.eabi_attribute 26, 1
  10              		.eabi_attribute 30, 1
  11              		.eabi_attribute 34, 1
  12              		.eabi_attribute 18, 4
  13              		.file	"main.c"
  14              		.text
  15              	.Ltext0:
  16              		.cfi_sections	.debug_frame
  17              		.section	.text.get_flash_sector,"ax",%progbits
  18              		.align	1
  19              		.arch armv7e-m
  20              		.syntax unified
  21              		.thumb
  22              		.thumb_func
  23              		.fpu fpv4-sp-d16
  25              	get_flash_sector:
  26              	.LVL0:
  27              	.LFB138:
  28              		.file 1 "Core/Src/main.c"
   1:Core/Src/main.c **** /* USER CODE BEGIN Header */
   2:Core/Src/main.c **** /**
   3:Core/Src/main.c ****   ******************************************************************************
   4:Core/Src/main.c ****   * @file           : main.c
   5:Core/Src/main.c ****   * @brief          : Main program body
   6:Core/Src/main.c ****   ******************************************************************************
   7:Core/Src/main.c ****   * @attention
   8:Core/Src/main.c ****   *
   9:Core/Src/main.c ****   * Copyright (c) 2026 STMicroelectronics.
  10:Core/Src/main.c ****   * All rights reserved.
  11:Core/Src/main.c ****   *
  12:Core/Src/main.c ****   * This software is licensed under terms that can be found in the LICENSE file
  13:Core/Src/main.c ****   * in the root directory of this software component.
  14:Core/Src/main.c ****   * If no LICENSE file comes with this software, it is provided AS-IS.
  15:Core/Src/main.c ****   *
  16:Core/Src/main.c ****   ******************************************************************************
  17:Core/Src/main.c ****   */
  18:Core/Src/main.c **** /* USER CODE END Header */
  19:Core/Src/main.c **** /* Includes ------------------------------------------------------------------*/
  20:Core/Src/main.c **** #include "main.h"
  21:Core/Src/main.c **** 
  22:Core/Src/main.c **** /* Private includes ----------------------------------------------------------*/
  23:Core/Src/main.c **** /* USER CODE BEGIN Includes */
  24:Core/Src/main.c **** #include <string.h>
  25:Core/Src/main.c **** #include "messages.h"
  26:Core/Src/main.c **** #include "platform.h"
  27:Core/Src/main.c **** #include "dataFormats.h"
  28:Core/Src/main.c **** #include "uart.h"
  29:Core/Src/main.c **** /* USER CODE END Includes */
  30:Core/Src/main.c **** 
ARM GAS  /tmp/ccB3fkfO.s 			page 2


  31:Core/Src/main.c **** /* Private typedef -----------------------------------------------------------*/
  32:Core/Src/main.c **** /* USER CODE BEGIN PTD */
  33:Core/Src/main.c **** typedef struct
  34:Core/Src/main.c **** {
  35:Core/Src/main.c ****   FLASH_DATA fob_info;
  36:Core/Src/main.c ****   uint8_t feature3[64];
  37:Core/Src/main.c ****   uint8_t feature2[64];
  38:Core/Src/main.c ****   uint8_t feature1[64];
  39:Core/Src/main.c ****   uint8_t unlock[64];
  40:Core/Src/main.c **** } device_config_t;
  41:Core/Src/main.c **** /* USER CODE END PTD */
  42:Core/Src/main.c **** 
  43:Core/Src/main.c **** /* Private define ------------------------------------------------------------*/
  44:Core/Src/main.c **** /* USER CODE BEGIN PD */
  45:Core/Src/main.c **** #ifndef UNLOCK_FLAG
  46:Core/Src/main.c **** #define UNLOCK_FLAG   "default_unlock"
  47:Core/Src/main.c **** #endif
  48:Core/Src/main.c **** #ifndef FEATURE1_FLAG
  49:Core/Src/main.c **** #define FEATURE1_FLAG "default_feature1"
  50:Core/Src/main.c **** #endif
  51:Core/Src/main.c **** #ifndef FEATURE2_FLAG
  52:Core/Src/main.c **** #define FEATURE2_FLAG "default_feature2"
  53:Core/Src/main.c **** #endif
  54:Core/Src/main.c **** #ifndef FEATURE3_FLAG
  55:Core/Src/main.c **** #define FEATURE3_FLAG "default_feature3"
  56:Core/Src/main.c **** #endif
  57:Core/Src/main.c **** 
  58:Core/Src/main.c **** #define FLASH_DATA_BYTES         \
  59:Core/Src/main.c ****   (sizeof(FLASH_DATA) % 4 == 0) \
  60:Core/Src/main.c ****       ? sizeof(FLASH_DATA)      \
  61:Core/Src/main.c ****       : sizeof(FLASH_DATA) + (4 - (sizeof(FLASH_DATA) % 4))
  62:Core/Src/main.c **** #define FLASH_DATA_WORDS (FLASH_DATA_BYTES / 4)
  63:Core/Src/main.c **** /* USER CODE END PD */
  64:Core/Src/main.c **** 
  65:Core/Src/main.c **** /* Private macro -------------------------------------------------------------*/
  66:Core/Src/main.c **** /* USER CODE BEGIN PM */
  67:Core/Src/main.c **** 
  68:Core/Src/main.c **** /* USER CODE END PM */
  69:Core/Src/main.c **** 
  70:Core/Src/main.c **** /* Private variables ---------------------------------------------------------*/
  71:Core/Src/main.c **** UART_HandleTypeDef huart1;
  72:Core/Src/main.c **** UART_HandleTypeDef huart2;
  73:Core/Src/main.c **** 
  74:Core/Src/main.c **** /* USER CODE BEGIN PV */
  75:Core/Src/main.c **** const char unlock_flag[UNLOCK_SIZE]    = UNLOCK_FLAG;
  76:Core/Src/main.c **** const char feature1_flag[FEATURE_SIZE] = FEATURE1_FLAG;
  77:Core/Src/main.c **** const char feature2_flag[FEATURE_SIZE] = FEATURE2_FLAG;
  78:Core/Src/main.c **** const char feature3_flag[FEATURE_SIZE] = FEATURE3_FLAG;
  79:Core/Src/main.c **** 
  80:Core/Src/main.c **** __attribute__((section(".flash_data")))
  81:Core/Src/main.c **** FLASH_DATA flash_data = {0};
  82:Core/Src/main.c **** 
  83:Core/Src/main.c **** extern uint8_t __flash_data_start__;
  84:Core/Src/main.c **** extern uint8_t __flash_data_end__;
  85:Core/Src/main.c **** 
  86:Core/Src/main.c **** static UART_HandleTypeDef* const uart_base[2] = { [HOST_UART] = &huart2, [BOARD_UART] = &huart1 };
  87:Core/Src/main.c **** /* USER CODE END PV */
ARM GAS  /tmp/ccB3fkfO.s 			page 3


  88:Core/Src/main.c **** 
  89:Core/Src/main.c **** /* Private function prototypes -----------------------------------------------*/
  90:Core/Src/main.c **** void SystemClock_Config(void);
  91:Core/Src/main.c **** static void MX_GPIO_Init(void);
  92:Core/Src/main.c **** static void MX_USART1_UART_Init(void);
  93:Core/Src/main.c **** static void MX_USART2_UART_Init(void);
  94:Core/Src/main.c **** /* USER CODE BEGIN PFP */
  95:Core/Src/main.c **** 
  96:Core/Src/main.c **** /* USER CODE END PFP */
  97:Core/Src/main.c **** 
  98:Core/Src/main.c **** /* Private user code ---------------------------------------------------------*/
  99:Core/Src/main.c **** /* USER CODE BEGIN 0 */
 100:Core/Src/main.c **** static void initHardware(int argc, char ** argv)
 101:Core/Src/main.c **** {
 102:Core/Src/main.c ****   /* Reset of all peripherals, Initializes the Flash interface and the Systick. */
 103:Core/Src/main.c ****   HAL_Init();
 104:Core/Src/main.c **** 
 105:Core/Src/main.c ****   /* Configure the system clock */
 106:Core/Src/main.c ****   SystemClock_Config();
 107:Core/Src/main.c **** 
 108:Core/Src/main.c ****   /* Initialize all configured peripherals */
 109:Core/Src/main.c ****   MX_GPIO_Init();
 110:Core/Src/main.c ****   
 111:Core/Src/main.c ****   //setup_board_link();
 112:Core/Src/main.c ****   uart_init(BOARD_UART);
 113:Core/Src/main.c ****   //uart_init();
 114:Core/Src/main.c ****   uart_init(HOST_UART);
 115:Core/Src/main.c **** 
 116:Core/Src/main.c ****   setLED(OFF);
 117:Core/Src/main.c **** }
 118:Core/Src/main.c **** 
 119:Core/Src/main.c **** void initHardware_car(int argc, char ** argv)
 120:Core/Src/main.c **** {
 121:Core/Src/main.c ****   initHardware(argc, argv);
 122:Core/Src/main.c **** }
 123:Core/Src/main.c **** 
 124:Core/Src/main.c **** void initHardware_fob(int argc, char ** argv)
 125:Core/Src/main.c **** {
 126:Core/Src/main.c ****   initHardware(argc, argv);
 127:Core/Src/main.c **** }
 128:Core/Src/main.c **** 
 129:Core/Src/main.c **** void readVar(uint8_t* dest, char * var)
 130:Core/Src/main.c **** {
 131:Core/Src/main.c ****   if(!strcmp(var, "unlock")) memcpy(dest, unlock_flag, UNLOCK_SIZE);
 132:Core/Src/main.c ****   else if(!strcmp(var, "feature1")) memcpy(dest, feature1_flag, FEATURE_SIZE);
 133:Core/Src/main.c ****   else if(!strcmp(var, "feature2")) memcpy(dest, feature2_flag, FEATURE_SIZE);
 134:Core/Src/main.c ****   else if(!strcmp(var, "feature3")) memcpy(dest, feature3_flag, FEATURE_SIZE);
 135:Core/Src/main.c ****   else if(!strcmp(var, "fob_state")) memcpy(dest, &flash_data, sizeof(FLASH_DATA));
 136:Core/Src/main.c **** }
 137:Core/Src/main.c **** 
 138:Core/Src/main.c **** /* -----------------------------------------------------------
 139:Core/Src/main.c ****    Flash Sector Helper (F411 Example)
 140:Core/Src/main.c ****    ----------------------------------------------------------- */
 141:Core/Src/main.c **** static uint32_t get_flash_sector(uint32_t addr)
 142:Core/Src/main.c **** {
  29              		.loc 1 142 1 view -0
  30              		.cfi_startproc
ARM GAS  /tmp/ccB3fkfO.s 			page 4


  31              		@ args = 0, pretend = 0, frame = 0
  32              		@ frame_needed = 0, uses_anonymous_args = 0
  33              		@ link register save eliminated.
 143:Core/Src/main.c ****   if (addr < 0x08004000) return FLASH_SECTOR_0;
  34              		.loc 1 143 3 view .LVU1
  35              		.loc 1 143 6 is_stmt 0 view .LVU2
  36 0000 144B     		ldr	r3, .L10
  37 0002 9842     		cmp	r0, r3
  38 0004 18D3     		bcc	.L3
 144:Core/Src/main.c ****   if (addr < 0x08008000) return FLASH_SECTOR_1;
  39              		.loc 1 144 3 is_stmt 1 view .LVU3
  40              		.loc 1 144 6 is_stmt 0 view .LVU4
  41 0006 03F58043 		add	r3, r3, #16384
  42 000a 9842     		cmp	r0, r3
  43 000c 16D3     		bcc	.L4
 145:Core/Src/main.c ****   if (addr < 0x0800C000) return FLASH_SECTOR_2;
  44              		.loc 1 145 3 is_stmt 1 view .LVU5
  45              		.loc 1 145 6 is_stmt 0 view .LVU6
  46 000e 03F58043 		add	r3, r3, #16384
  47 0012 9842     		cmp	r0, r3
  48 0014 14D3     		bcc	.L5
 146:Core/Src/main.c ****   if (addr < 0x08010000) return FLASH_SECTOR_3;
  49              		.loc 1 146 3 is_stmt 1 view .LVU7
  50              		.loc 1 146 6 is_stmt 0 view .LVU8
  51 0016 104B     		ldr	r3, .L10+4
  52 0018 9842     		cmp	r0, r3
  53 001a 13D9     		bls	.L6
 147:Core/Src/main.c ****   if (addr < 0x08020000) return FLASH_SECTOR_4;
  54              		.loc 1 147 3 is_stmt 1 view .LVU9
  55              		.loc 1 147 6 is_stmt 0 view .LVU10
  56 001c 03F58033 		add	r3, r3, #65536
  57 0020 9842     		cmp	r0, r3
  58 0022 11D9     		bls	.L7
 148:Core/Src/main.c ****   if (addr < 0x08040000) return FLASH_SECTOR_5;
  59              		.loc 1 148 3 is_stmt 1 view .LVU11
  60              		.loc 1 148 6 is_stmt 0 view .LVU12
  61 0024 03F50033 		add	r3, r3, #131072
  62 0028 9842     		cmp	r0, r3
  63 002a 0FD9     		bls	.L8
 149:Core/Src/main.c ****   if (addr < 0x08060000) return FLASH_SECTOR_6;
  64              		.loc 1 149 3 is_stmt 1 view .LVU13
  65              		.loc 1 149 6 is_stmt 0 view .LVU14
  66 002c 03F50033 		add	r3, r3, #131072
  67 0030 9842     		cmp	r0, r3
  68 0032 0DD9     		bls	.L9
 150:Core/Src/main.c ****   return FLASH_SECTOR_7;
  69              		.loc 1 150 10 view .LVU15
  70 0034 0720     		movs	r0, #7
  71              	.LVL1:
  72              		.loc 1 150 10 view .LVU16
  73 0036 7047     		bx	lr
  74              	.LVL2:
  75              	.L3:
 143:Core/Src/main.c ****   if (addr < 0x08008000) return FLASH_SECTOR_1;
  76              		.loc 1 143 33 view .LVU17
  77 0038 0020     		movs	r0, #0
  78              	.LVL3:
ARM GAS  /tmp/ccB3fkfO.s 			page 5


 143:Core/Src/main.c ****   if (addr < 0x08008000) return FLASH_SECTOR_1;
  79              		.loc 1 143 33 view .LVU18
  80 003a 7047     		bx	lr
  81              	.LVL4:
  82              	.L4:
 144:Core/Src/main.c ****   if (addr < 0x0800C000) return FLASH_SECTOR_2;
  83              		.loc 1 144 33 view .LVU19
  84 003c 0120     		movs	r0, #1
  85              	.LVL5:
 144:Core/Src/main.c ****   if (addr < 0x0800C000) return FLASH_SECTOR_2;
  86              		.loc 1 144 33 view .LVU20
  87 003e 7047     		bx	lr
  88              	.LVL6:
  89              	.L5:
 145:Core/Src/main.c ****   if (addr < 0x08010000) return FLASH_SECTOR_3;
  90              		.loc 1 145 33 view .LVU21
  91 0040 0220     		movs	r0, #2
  92              	.LVL7:
 145:Core/Src/main.c ****   if (addr < 0x08010000) return FLASH_SECTOR_3;
  93              		.loc 1 145 33 view .LVU22
  94 0042 7047     		bx	lr
  95              	.LVL8:
  96              	.L6:
 146:Core/Src/main.c ****   if (addr < 0x08020000) return FLASH_SECTOR_4;
  97              		.loc 1 146 33 view .LVU23
  98 0044 0320     		movs	r0, #3
  99              	.LVL9:
 146:Core/Src/main.c ****   if (addr < 0x08020000) return FLASH_SECTOR_4;
 100              		.loc 1 146 33 view .LVU24
 101 0046 7047     		bx	lr
 102              	.LVL10:
 103              	.L7:
 147:Core/Src/main.c ****   if (addr < 0x08040000) return FLASH_SECTOR_5;
 104              		.loc 1 147 33 view .LVU25
 105 0048 0420     		movs	r0, #4
 106              	.LVL11:
 147:Core/Src/main.c ****   if (addr < 0x08040000) return FLASH_SECTOR_5;
 107              		.loc 1 147 33 view .LVU26
 108 004a 7047     		bx	lr
 109              	.LVL12:
 110              	.L8:
 148:Core/Src/main.c ****   if (addr < 0x08060000) return FLASH_SECTOR_6;
 111              		.loc 1 148 33 view .LVU27
 112 004c 0520     		movs	r0, #5
 113              	.LVL13:
 148:Core/Src/main.c ****   if (addr < 0x08060000) return FLASH_SECTOR_6;
 114              		.loc 1 148 33 view .LVU28
 115 004e 7047     		bx	lr
 116              	.LVL14:
 117              	.L9:
 149:Core/Src/main.c ****   return FLASH_SECTOR_7;
 118              		.loc 1 149 33 view .LVU29
 119 0050 0620     		movs	r0, #6
 120              	.LVL15:
 151:Core/Src/main.c **** }
 121              		.loc 1 151 1 view .LVU30
 122 0052 7047     		bx	lr
ARM GAS  /tmp/ccB3fkfO.s 			page 6


 123              	.L11:
 124              		.align	2
 125              	.L10:
 126 0054 00400008 		.word	134234112
 127 0058 FFFF0008 		.word	134283263
 128              		.cfi_endproc
 129              	.LFE138:
 131              		.section	.text.MX_GPIO_Init,"ax",%progbits
 132              		.align	1
 133              		.syntax unified
 134              		.thumb
 135              		.thumb_func
 136              		.fpu fpv4-sp-d16
 138              	MX_GPIO_Init:
 139              	.LFB152:
 152:Core/Src/main.c **** 
 153:Core/Src/main.c **** /* -----------------------------------------------------------
 154:Core/Src/main.c ****    Config Flash Write (Overwrite Whole Sector)
 155:Core/Src/main.c ****    ----------------------------------------------------------- */
 156:Core/Src/main.c **** bool saveFobState(const FLASH_DATA *src)
 157:Core/Src/main.c **** {
 158:Core/Src/main.c ****   uint32_t base = (uint32_t)&__flash_data_start__;
 159:Core/Src/main.c ****   uint32_t end  = (uint32_t)&__flash_data_end__;
 160:Core/Src/main.c ****   uint32_t size = end - base;
 161:Core/Src/main.c **** 
 162:Core/Src/main.c ****   // Sanity check: config struct fits in sector
 163:Core/Src/main.c ****   if (sizeof(FLASH_DATA_BYTES) > size)
 164:Core/Src/main.c ****   {
 165:Core/Src/main.c ****       return false;
 166:Core/Src/main.c ****   }
 167:Core/Src/main.c **** 
 168:Core/Src/main.c ****   // Erase the sector that holds .config_flash
 169:Core/Src/main.c ****   uint32_t sector = get_flash_sector(base);
 170:Core/Src/main.c ****   FLASH_EraseInitTypeDef erase =
 171:Core/Src/main.c ****   {
 172:Core/Src/main.c ****       .TypeErase    = FLASH_TYPEERASE_SECTORS,
 173:Core/Src/main.c ****       .Sector       = sector,
 174:Core/Src/main.c ****       .NbSectors    = 1,
 175:Core/Src/main.c ****       .VoltageRange = FLASH_VOLTAGE_RANGE_3,
 176:Core/Src/main.c ****   };
 177:Core/Src/main.c **** 
 178:Core/Src/main.c ****   uint8_t padded_data[FLASH_DATA_BYTES];
 179:Core/Src/main.c ****   memset(padded_data, 0xFF, sizeof(padded_data));
 180:Core/Src/main.c ****   memcpy((FLASH_DATA*)(&padded_data), src, sizeof(FLASH_DATA));
 181:Core/Src/main.c **** 
 182:Core/Src/main.c ****   uint32_t sector_err = 0;
 183:Core/Src/main.c ****   HAL_FLASH_Unlock();
 184:Core/Src/main.c **** 
 185:Core/Src/main.c ****   if (HAL_FLASHEx_Erase(&erase, &sector_err) != HAL_OK)
 186:Core/Src/main.c ****   {
 187:Core/Src/main.c ****       HAL_FLASH_Lock();
 188:Core/Src/main.c ****       return false;
 189:Core/Src/main.c ****   }
 190:Core/Src/main.c **** 
 191:Core/Src/main.c ****   // Program new config data
 192:Core/Src/main.c ****   const uint32_t *words = (const uint32_t *)src;
 193:Core/Src/main.c ****   uint32_t addr = base;
ARM GAS  /tmp/ccB3fkfO.s 			page 7


 194:Core/Src/main.c **** 
 195:Core/Src/main.c ****   for (size_t i = 0; i < FLASH_DATA_WORDS; i++)
 196:Core/Src/main.c ****   {
 197:Core/Src/main.c ****       if (HAL_FLASH_Program(FLASH_TYPEPROGRAM_WORD, addr, words[i]) != HAL_OK) {
 198:Core/Src/main.c ****           HAL_FLASH_Lock();
 199:Core/Src/main.c ****           return false;
 200:Core/Src/main.c ****       }
 201:Core/Src/main.c ****       addr += 4;
 202:Core/Src/main.c ****   }
 203:Core/Src/main.c **** 
 204:Core/Src/main.c ****   HAL_FLASH_Lock();
 205:Core/Src/main.c ****   return true;
 206:Core/Src/main.c **** }
 207:Core/Src/main.c **** 
 208:Core/Src/main.c **** void setLED(led_color_t color)
 209:Core/Src/main.c **** {
 210:Core/Src/main.c ****   HAL_GPIO_WritePin(LD2_GPIO_Port, LD2_Pin, color == GREEN);
 211:Core/Src/main.c **** }
 212:Core/Src/main.c **** 
 213:Core/Src/main.c **** bool buttonPressed(void)
 214:Core/Src/main.c **** {
 215:Core/Src/main.c ****   static uint32_t history = 0;
 216:Core/Src/main.c ****   static bool latched = false;
 217:Core/Src/main.c **** 
 218:Core/Src/main.c ****   history = (history << 1) |
 219:Core/Src/main.c ****             (HAL_GPIO_ReadPin(B1_GPIO_Port, B1_Pin) == GPIO_PIN_SET);
 220:Core/Src/main.c **** 
 221:Core/Src/main.c ****   if (history == 0xFFFFFFFF && !latched) {
 222:Core/Src/main.c ****       latched = true;
 223:Core/Src/main.c ****       return true;        // button just pressed
 224:Core/Src/main.c ****   }
 225:Core/Src/main.c **** 
 226:Core/Src/main.c ****   if (history == 0x00000000) {
 227:Core/Src/main.c ****       latched = false;    // fully released
 228:Core/Src/main.c ****   }
 229:Core/Src/main.c **** 
 230:Core/Src/main.c ****   return false;
 231:Core/Src/main.c **** }
 232:Core/Src/main.c **** 
 233:Core/Src/main.c **** /**
 234:Core/Src/main.c ****  * @brief Initialize the UART interfaces.
 235:Core/Src/main.c ****  *
 236:Core/Src/main.c ****  * UART 0 is used to communicate with the host computer.
 237:Core/Src/main.c ****  */
 238:Core/Src/main.c **** void uart_init(hw_uart_t uart)
 239:Core/Src/main.c **** {
 240:Core/Src/main.c ****   switch(uart)
 241:Core/Src/main.c ****   {
 242:Core/Src/main.c ****   case HOST_UART:
 243:Core/Src/main.c ****     MX_USART2_UART_Init();
 244:Core/Src/main.c ****     break;
 245:Core/Src/main.c ****   case BOARD_UART:
 246:Core/Src/main.c ****     MX_USART1_UART_Init();
 247:Core/Src/main.c ****     break;
 248:Core/Src/main.c ****   }
 249:Core/Src/main.c **** }
 250:Core/Src/main.c **** 
ARM GAS  /tmp/ccB3fkfO.s 			page 8


 251:Core/Src/main.c **** /**
 252:Core/Src/main.c ****  * @brief Check if there are characters available on a UART interface.
 253:Core/Src/main.c ****  *
 254:Core/Src/main.c ****  * @param uart is the base address of the UART port.
 255:Core/Src/main.c ****  * @return true if there is data available.
 256:Core/Src/main.c ****  * @return false if there is no data available.
 257:Core/Src/main.c ****  */
 258:Core/Src/main.c **** bool uart_avail(hw_uart_t uart) { return (__HAL_UART_GET_FLAG(uart_base[uart], UART_FLAG_RXNE) != R
 259:Core/Src/main.c **** 
 260:Core/Src/main.c **** /**
 261:Core/Src/main.c ****  * @brief Read a byte from a UART interface.
 262:Core/Src/main.c ****  *
 263:Core/Src/main.c ****  * @param uart is the base address of the UART port to read from.
 264:Core/Src/main.c ****  * @return the character read from the interface.
 265:Core/Src/main.c ****  */
 266:Core/Src/main.c **** int32_t uart_readb(hw_uart_t uart)
 267:Core/Src/main.c **** {
 268:Core/Src/main.c ****   int32_t c;
 269:Core/Src/main.c ****   HAL_UART_Receive(uart_base[uart], (uint8_t*)(&c), 1, HAL_MAX_DELAY);
 270:Core/Src/main.c ****   return c;
 271:Core/Src/main.c **** }
 272:Core/Src/main.c **** 
 273:Core/Src/main.c **** /**
 274:Core/Src/main.c ****  * @brief Read a sequence of bytes from a UART interface.
 275:Core/Src/main.c ****  *
 276:Core/Src/main.c ****  * @param uart is the base address of the UART port to read from.
 277:Core/Src/main.c ****  * @param buf is a pointer to the destination for the received data.
 278:Core/Src/main.c ****  * @param n is the number of bytes to read.
 279:Core/Src/main.c ****  * @return the number of bytes read from the UART interface.
 280:Core/Src/main.c ****  */
 281:Core/Src/main.c **** uint32_t uart_read(hw_uart_t uart, uint8_t *buf, uint32_t n)
 282:Core/Src/main.c **** {
 283:Core/Src/main.c ****   HAL_UART_Receive(uart_base[uart], buf, n, HAL_MAX_DELAY);
 284:Core/Src/main.c ****   return n;
 285:Core/Src/main.c **** }
 286:Core/Src/main.c **** 
 287:Core/Src/main.c **** /**
 288:Core/Src/main.c ****  * @brief Read a line (terminated with '\n') from a UART interface.
 289:Core/Src/main.c ****  *
 290:Core/Src/main.c ****  * @param uart is the base address of the UART port to read from.
 291:Core/Src/main.c ****  * @param buf is a pointer to the destination for the received data.
 292:Core/Src/main.c ****  * @return the number of bytes read from the UART interface.
 293:Core/Src/main.c ****  */
 294:Core/Src/main.c **** uint32_t uart_readline(hw_uart_t uart, uint8_t *buf) {
 295:Core/Src/main.c ****   uint32_t read = 0;
 296:Core/Src/main.c ****   uint8_t c;
 297:Core/Src/main.c ****   UART_HandleTypeDef* base = uart_base[uart];
 298:Core/Src/main.c **** 
 299:Core/Src/main.c ****   do
 300:Core/Src/main.c ****   {
 301:Core/Src/main.c ****     HAL_UART_Receive(base, &c, 1, HAL_MAX_DELAY);
 302:Core/Src/main.c **** 
 303:Core/Src/main.c ****     if ((c != '\r') && (c != '\n') && (c != 0xD))
 304:Core/Src/main.c ****     {
 305:Core/Src/main.c ****       buf[read] = c;
 306:Core/Src/main.c ****       read++;
 307:Core/Src/main.c ****     }
ARM GAS  /tmp/ccB3fkfO.s 			page 9


 308:Core/Src/main.c **** 
 309:Core/Src/main.c ****   } while ((c != '\n') && (c != 0xD));
 310:Core/Src/main.c **** 
 311:Core/Src/main.c ****   buf[read] = '\0';
 312:Core/Src/main.c **** 
 313:Core/Src/main.c ****   return read;
 314:Core/Src/main.c **** }
 315:Core/Src/main.c **** 
 316:Core/Src/main.c **** /**
 317:Core/Src/main.c ****  * @brief Write a byte to a UART interface.
 318:Core/Src/main.c ****  *
 319:Core/Src/main.c ****  * @param uart is the base address of the UART port to write to.
 320:Core/Src/main.c ****  * @param data is the byte value to write.
 321:Core/Src/main.c ****  */
 322:Core/Src/main.c **** void uart_writeb(hw_uart_t uart, uint8_t data) { HAL_UART_Transmit(uart_base[uart], &data, 1, HAL_M
 323:Core/Src/main.c **** 
 324:Core/Src/main.c **** /**
 325:Core/Src/main.c ****  * @brief Write a sequence of bytes to a UART interface.
 326:Core/Src/main.c ****  *
 327:Core/Src/main.c ****  * @param uart is the base address of the UART port to write to.
 328:Core/Src/main.c ****  * @param buf is a pointer to the data to send.
 329:Core/Src/main.c ****  * @param len is the number of bytes to send.
 330:Core/Src/main.c ****  * @return the number of bytes written.
 331:Core/Src/main.c ****  */
 332:Core/Src/main.c **** uint32_t uart_write(hw_uart_t uart, uint8_t *buf, uint32_t len)
 333:Core/Src/main.c **** {
 334:Core/Src/main.c ****   HAL_UART_Transmit(uart_base[uart], buf, len, HAL_MAX_DELAY);
 335:Core/Src/main.c ****   return len;
 336:Core/Src/main.c **** }
 337:Core/Src/main.c **** /* USER CODE END 0 */
 338:Core/Src/main.c **** 
 339:Core/Src/main.c **** /**
 340:Core/Src/main.c ****   * @brief  The application entry point.
 341:Core/Src/main.c ****   * @retval int
 342:Core/Src/main.c ****   */
 343:Core/Src/main.c **** 
 344:Core/Src/main.c **** /**
 345:Core/Src/main.c ****   * @brief System Clock Configuration
 346:Core/Src/main.c ****   * @retval None
 347:Core/Src/main.c ****   */
 348:Core/Src/main.c **** void SystemClock_Config(void)
 349:Core/Src/main.c **** {
 350:Core/Src/main.c ****   RCC_OscInitTypeDef RCC_OscInitStruct = {0};
 351:Core/Src/main.c ****   RCC_ClkInitTypeDef RCC_ClkInitStruct = {0};
 352:Core/Src/main.c **** 
 353:Core/Src/main.c ****   /** Configure the main internal regulator output voltage
 354:Core/Src/main.c ****   */
 355:Core/Src/main.c ****   __HAL_RCC_PWR_CLK_ENABLE();
 356:Core/Src/main.c ****   __HAL_PWR_VOLTAGESCALING_CONFIG(PWR_REGULATOR_VOLTAGE_SCALE1);
 357:Core/Src/main.c **** 
 358:Core/Src/main.c ****   /** Initializes the RCC Oscillators according to the specified parameters
 359:Core/Src/main.c ****   * in the RCC_OscInitTypeDef structure.
 360:Core/Src/main.c ****   */
 361:Core/Src/main.c ****   RCC_OscInitStruct.OscillatorType = RCC_OSCILLATORTYPE_HSI;
 362:Core/Src/main.c ****   RCC_OscInitStruct.HSIState = RCC_HSI_ON;
 363:Core/Src/main.c ****   RCC_OscInitStruct.HSICalibrationValue = RCC_HSICALIBRATION_DEFAULT;
 364:Core/Src/main.c ****   RCC_OscInitStruct.PLL.PLLState = RCC_PLL_ON;
ARM GAS  /tmp/ccB3fkfO.s 			page 10


 365:Core/Src/main.c ****   RCC_OscInitStruct.PLL.PLLSource = RCC_PLLSOURCE_HSI;
 366:Core/Src/main.c ****   RCC_OscInitStruct.PLL.PLLM = 16;
 367:Core/Src/main.c ****   RCC_OscInitStruct.PLL.PLLN = 336;
 368:Core/Src/main.c ****   RCC_OscInitStruct.PLL.PLLP = RCC_PLLP_DIV4;
 369:Core/Src/main.c ****   RCC_OscInitStruct.PLL.PLLQ = 4;
 370:Core/Src/main.c ****   if (HAL_RCC_OscConfig(&RCC_OscInitStruct) != HAL_OK)
 371:Core/Src/main.c ****   {
 372:Core/Src/main.c ****     Error_Handler();
 373:Core/Src/main.c ****   }
 374:Core/Src/main.c **** 
 375:Core/Src/main.c ****   /** Initializes the CPU, AHB and APB buses clocks
 376:Core/Src/main.c ****   */
 377:Core/Src/main.c ****   RCC_ClkInitStruct.ClockType = RCC_CLOCKTYPE_HCLK|RCC_CLOCKTYPE_SYSCLK
 378:Core/Src/main.c ****                               |RCC_CLOCKTYPE_PCLK1|RCC_CLOCKTYPE_PCLK2;
 379:Core/Src/main.c ****   RCC_ClkInitStruct.SYSCLKSource = RCC_SYSCLKSOURCE_PLLCLK;
 380:Core/Src/main.c ****   RCC_ClkInitStruct.AHBCLKDivider = RCC_SYSCLK_DIV1;
 381:Core/Src/main.c ****   RCC_ClkInitStruct.APB1CLKDivider = RCC_HCLK_DIV2;
 382:Core/Src/main.c ****   RCC_ClkInitStruct.APB2CLKDivider = RCC_HCLK_DIV1;
 383:Core/Src/main.c **** 
 384:Core/Src/main.c ****   if (HAL_RCC_ClockConfig(&RCC_ClkInitStruct, FLASH_LATENCY_2) != HAL_OK)
 385:Core/Src/main.c ****   {
 386:Core/Src/main.c ****     Error_Handler();
 387:Core/Src/main.c ****   }
 388:Core/Src/main.c **** }
 389:Core/Src/main.c **** 
 390:Core/Src/main.c **** /**
 391:Core/Src/main.c ****   * @brief USART1 Initialization Function
 392:Core/Src/main.c ****   * @param None
 393:Core/Src/main.c ****   * @retval None
 394:Core/Src/main.c ****   */
 395:Core/Src/main.c **** static void MX_USART1_UART_Init(void)
 396:Core/Src/main.c **** {
 397:Core/Src/main.c **** 
 398:Core/Src/main.c ****   /* USER CODE BEGIN USART1_Init 0 */
 399:Core/Src/main.c **** 
 400:Core/Src/main.c ****   /* USER CODE END USART1_Init 0 */
 401:Core/Src/main.c **** 
 402:Core/Src/main.c ****   /* USER CODE BEGIN USART1_Init 1 */
 403:Core/Src/main.c **** 
 404:Core/Src/main.c ****   /* USER CODE END USART1_Init 1 */
 405:Core/Src/main.c ****   huart1.Instance = USART1;
 406:Core/Src/main.c ****   huart1.Init.BaudRate = 115200;
 407:Core/Src/main.c ****   huart1.Init.WordLength = UART_WORDLENGTH_8B;
 408:Core/Src/main.c ****   huart1.Init.StopBits = UART_STOPBITS_1;
 409:Core/Src/main.c ****   huart1.Init.Parity = UART_PARITY_NONE;
 410:Core/Src/main.c ****   huart1.Init.Mode = UART_MODE_TX_RX;
 411:Core/Src/main.c ****   huart1.Init.HwFlowCtl = UART_HWCONTROL_NONE;
 412:Core/Src/main.c ****   huart1.Init.OverSampling = UART_OVERSAMPLING_16;
 413:Core/Src/main.c ****   if (HAL_UART_Init(&huart1) != HAL_OK)
 414:Core/Src/main.c ****   {
 415:Core/Src/main.c ****     Error_Handler();
 416:Core/Src/main.c ****   }
 417:Core/Src/main.c ****   /* USER CODE BEGIN USART1_Init 2 */
 418:Core/Src/main.c **** 
 419:Core/Src/main.c ****   /* USER CODE END USART1_Init 2 */
 420:Core/Src/main.c **** 
 421:Core/Src/main.c **** }
ARM GAS  /tmp/ccB3fkfO.s 			page 11


 422:Core/Src/main.c **** 
 423:Core/Src/main.c **** /**
 424:Core/Src/main.c ****   * @brief USART2 Initialization Function
 425:Core/Src/main.c ****   * @param None
 426:Core/Src/main.c ****   * @retval None
 427:Core/Src/main.c ****   */
 428:Core/Src/main.c **** static void MX_USART2_UART_Init(void)
 429:Core/Src/main.c **** {
 430:Core/Src/main.c **** 
 431:Core/Src/main.c ****   /* USER CODE BEGIN USART2_Init 0 */
 432:Core/Src/main.c **** 
 433:Core/Src/main.c ****   /* USER CODE END USART2_Init 0 */
 434:Core/Src/main.c **** 
 435:Core/Src/main.c ****   /* USER CODE BEGIN USART2_Init 1 */
 436:Core/Src/main.c **** 
 437:Core/Src/main.c ****   /* USER CODE END USART2_Init 1 */
 438:Core/Src/main.c ****   huart2.Instance = USART2;
 439:Core/Src/main.c ****   huart2.Init.BaudRate = 115200;
 440:Core/Src/main.c ****   huart2.Init.WordLength = UART_WORDLENGTH_8B;
 441:Core/Src/main.c ****   huart2.Init.StopBits = UART_STOPBITS_1;
 442:Core/Src/main.c ****   huart2.Init.Parity = UART_PARITY_NONE;
 443:Core/Src/main.c ****   huart2.Init.Mode = UART_MODE_TX_RX;
 444:Core/Src/main.c ****   huart2.Init.HwFlowCtl = UART_HWCONTROL_NONE;
 445:Core/Src/main.c ****   huart2.Init.OverSampling = UART_OVERSAMPLING_16;
 446:Core/Src/main.c ****   if (HAL_UART_Init(&huart2) != HAL_OK)
 447:Core/Src/main.c ****   {
 448:Core/Src/main.c ****     Error_Handler();
 449:Core/Src/main.c ****   }
 450:Core/Src/main.c ****   /* USER CODE BEGIN USART2_Init 2 */
 451:Core/Src/main.c **** 
 452:Core/Src/main.c ****   /* USER CODE END USART2_Init 2 */
 453:Core/Src/main.c **** 
 454:Core/Src/main.c **** }
 455:Core/Src/main.c **** 
 456:Core/Src/main.c **** /**
 457:Core/Src/main.c ****   * @brief GPIO Initialization Function
 458:Core/Src/main.c ****   * @param None
 459:Core/Src/main.c ****   * @retval None
 460:Core/Src/main.c ****   */
 461:Core/Src/main.c **** static void MX_GPIO_Init(void)
 462:Core/Src/main.c **** {
 140              		.loc 1 462 1 is_stmt 1 view -0
 141              		.cfi_startproc
 142              		@ args = 0, pretend = 0, frame = 40
 143              		@ frame_needed = 0, uses_anonymous_args = 0
 144 0000 30B5     		push	{r4, r5, lr}
 145              	.LCFI0:
 146              		.cfi_def_cfa_offset 12
 147              		.cfi_offset 4, -12
 148              		.cfi_offset 5, -8
 149              		.cfi_offset 14, -4
 150 0002 8BB0     		sub	sp, sp, #44
 151              	.LCFI1:
 152              		.cfi_def_cfa_offset 56
 463:Core/Src/main.c ****   GPIO_InitTypeDef GPIO_InitStruct = {0};
 153              		.loc 1 463 3 view .LVU32
 154              		.loc 1 463 20 is_stmt 0 view .LVU33
ARM GAS  /tmp/ccB3fkfO.s 			page 12


 155 0004 0024     		movs	r4, #0
 156 0006 0594     		str	r4, [sp, #20]
 157 0008 0694     		str	r4, [sp, #24]
 158 000a 0794     		str	r4, [sp, #28]
 159 000c 0894     		str	r4, [sp, #32]
 160 000e 0994     		str	r4, [sp, #36]
 464:Core/Src/main.c ****   /* USER CODE BEGIN MX_GPIO_Init_1 */
 465:Core/Src/main.c **** 
 466:Core/Src/main.c ****   /* USER CODE END MX_GPIO_Init_1 */
 467:Core/Src/main.c **** 
 468:Core/Src/main.c ****   /* GPIO Ports Clock Enable */
 469:Core/Src/main.c ****   __HAL_RCC_GPIOC_CLK_ENABLE();
 161              		.loc 1 469 3 is_stmt 1 view .LVU34
 162              	.LBB4:
 163              		.loc 1 469 3 view .LVU35
 164 0010 0194     		str	r4, [sp, #4]
 165              		.loc 1 469 3 view .LVU36
 166 0012 224B     		ldr	r3, .L14
 167 0014 1A6B     		ldr	r2, [r3, #48]
 168 0016 42F00402 		orr	r2, r2, #4
 169 001a 1A63     		str	r2, [r3, #48]
 170              		.loc 1 469 3 view .LVU37
 171 001c 1A6B     		ldr	r2, [r3, #48]
 172 001e 02F00402 		and	r2, r2, #4
 173 0022 0192     		str	r2, [sp, #4]
 174              		.loc 1 469 3 view .LVU38
 175 0024 019A     		ldr	r2, [sp, #4]
 176              	.LBE4:
 177              		.loc 1 469 3 view .LVU39
 470:Core/Src/main.c ****   __HAL_RCC_GPIOH_CLK_ENABLE();
 178              		.loc 1 470 3 view .LVU40
 179              	.LBB5:
 180              		.loc 1 470 3 view .LVU41
 181 0026 0294     		str	r4, [sp, #8]
 182              		.loc 1 470 3 view .LVU42
 183 0028 1A6B     		ldr	r2, [r3, #48]
 184 002a 42F08002 		orr	r2, r2, #128
 185 002e 1A63     		str	r2, [r3, #48]
 186              		.loc 1 470 3 view .LVU43
 187 0030 1A6B     		ldr	r2, [r3, #48]
 188 0032 02F08002 		and	r2, r2, #128
 189 0036 0292     		str	r2, [sp, #8]
 190              		.loc 1 470 3 view .LVU44
 191 0038 029A     		ldr	r2, [sp, #8]
 192              	.LBE5:
 193              		.loc 1 470 3 view .LVU45
 471:Core/Src/main.c ****   __HAL_RCC_GPIOA_CLK_ENABLE();
 194              		.loc 1 471 3 view .LVU46
 195              	.LBB6:
 196              		.loc 1 471 3 view .LVU47
 197 003a 0394     		str	r4, [sp, #12]
 198              		.loc 1 471 3 view .LVU48
 199 003c 1A6B     		ldr	r2, [r3, #48]
 200 003e 42F00102 		orr	r2, r2, #1
 201 0042 1A63     		str	r2, [r3, #48]
 202              		.loc 1 471 3 view .LVU49
 203 0044 1A6B     		ldr	r2, [r3, #48]
ARM GAS  /tmp/ccB3fkfO.s 			page 13


 204 0046 02F00102 		and	r2, r2, #1
 205 004a 0392     		str	r2, [sp, #12]
 206              		.loc 1 471 3 view .LVU50
 207 004c 039A     		ldr	r2, [sp, #12]
 208              	.LBE6:
 209              		.loc 1 471 3 view .LVU51
 472:Core/Src/main.c ****   __HAL_RCC_GPIOB_CLK_ENABLE();
 210              		.loc 1 472 3 view .LVU52
 211              	.LBB7:
 212              		.loc 1 472 3 view .LVU53
 213 004e 0494     		str	r4, [sp, #16]
 214              		.loc 1 472 3 view .LVU54
 215 0050 1A6B     		ldr	r2, [r3, #48]
 216 0052 42F00202 		orr	r2, r2, #2
 217 0056 1A63     		str	r2, [r3, #48]
 218              		.loc 1 472 3 view .LVU55
 219 0058 1B6B     		ldr	r3, [r3, #48]
 220 005a 03F00203 		and	r3, r3, #2
 221 005e 0493     		str	r3, [sp, #16]
 222              		.loc 1 472 3 view .LVU56
 223 0060 049B     		ldr	r3, [sp, #16]
 224              	.LBE7:
 225              		.loc 1 472 3 view .LVU57
 473:Core/Src/main.c **** 
 474:Core/Src/main.c ****   /*Configure GPIO pin Output Level */
 475:Core/Src/main.c ****   HAL_GPIO_WritePin(LD2_GPIO_Port, LD2_Pin, GPIO_PIN_RESET);
 226              		.loc 1 475 3 view .LVU58
 227 0062 0F4D     		ldr	r5, .L14+4
 228 0064 2246     		mov	r2, r4
 229 0066 2021     		movs	r1, #32
 230 0068 2846     		mov	r0, r5
 231 006a FFF7FEFF 		bl	HAL_GPIO_WritePin
 232              	.LVL16:
 476:Core/Src/main.c **** 
 477:Core/Src/main.c ****   /*Configure GPIO pin : B1_Pin */
 478:Core/Src/main.c ****   GPIO_InitStruct.Pin = B1_Pin;
 233              		.loc 1 478 3 view .LVU59
 234              		.loc 1 478 23 is_stmt 0 view .LVU60
 235 006e 4FF40053 		mov	r3, #8192
 236 0072 0593     		str	r3, [sp, #20]
 479:Core/Src/main.c ****   GPIO_InitStruct.Mode = GPIO_MODE_IT_FALLING;
 237              		.loc 1 479 3 is_stmt 1 view .LVU61
 238              		.loc 1 479 24 is_stmt 0 view .LVU62
 239 0074 4FF40413 		mov	r3, #2162688
 240 0078 0693     		str	r3, [sp, #24]
 480:Core/Src/main.c ****   GPIO_InitStruct.Pull = GPIO_NOPULL;
 241              		.loc 1 480 3 is_stmt 1 view .LVU63
 242              		.loc 1 480 24 is_stmt 0 view .LVU64
 243 007a 0794     		str	r4, [sp, #28]
 481:Core/Src/main.c ****   HAL_GPIO_Init(B1_GPIO_Port, &GPIO_InitStruct);
 244              		.loc 1 481 3 is_stmt 1 view .LVU65
 245 007c 05A9     		add	r1, sp, #20
 246 007e 0948     		ldr	r0, .L14+8
 247 0080 FFF7FEFF 		bl	HAL_GPIO_Init
 248              	.LVL17:
 482:Core/Src/main.c **** 
 483:Core/Src/main.c ****   /*Configure GPIO pin : LD2_Pin */
ARM GAS  /tmp/ccB3fkfO.s 			page 14


 484:Core/Src/main.c ****   GPIO_InitStruct.Pin = LD2_Pin;
 249              		.loc 1 484 3 view .LVU66
 250              		.loc 1 484 23 is_stmt 0 view .LVU67
 251 0084 2023     		movs	r3, #32
 252 0086 0593     		str	r3, [sp, #20]
 485:Core/Src/main.c ****   GPIO_InitStruct.Mode = GPIO_MODE_OUTPUT_PP;
 253              		.loc 1 485 3 is_stmt 1 view .LVU68
 254              		.loc 1 485 24 is_stmt 0 view .LVU69
 255 0088 0123     		movs	r3, #1
 256 008a 0693     		str	r3, [sp, #24]
 486:Core/Src/main.c ****   GPIO_InitStruct.Pull = GPIO_NOPULL;
 257              		.loc 1 486 3 is_stmt 1 view .LVU70
 258              		.loc 1 486 24 is_stmt 0 view .LVU71
 259 008c 0794     		str	r4, [sp, #28]
 487:Core/Src/main.c ****   GPIO_InitStruct.Speed = GPIO_SPEED_FREQ_LOW;
 260              		.loc 1 487 3 is_stmt 1 view .LVU72
 261              		.loc 1 487 25 is_stmt 0 view .LVU73
 262 008e 0894     		str	r4, [sp, #32]
 488:Core/Src/main.c ****   HAL_GPIO_Init(LD2_GPIO_Port, &GPIO_InitStruct);
 263              		.loc 1 488 3 is_stmt 1 view .LVU74
 264 0090 05A9     		add	r1, sp, #20
 265 0092 2846     		mov	r0, r5
 266 0094 FFF7FEFF 		bl	HAL_GPIO_Init
 267              	.LVL18:
 489:Core/Src/main.c **** 
 490:Core/Src/main.c ****   /* USER CODE BEGIN MX_GPIO_Init_2 */
 491:Core/Src/main.c **** 
 492:Core/Src/main.c ****   /* USER CODE END MX_GPIO_Init_2 */
 493:Core/Src/main.c **** }
 268              		.loc 1 493 1 is_stmt 0 view .LVU75
 269 0098 0BB0     		add	sp, sp, #44
 270              	.LCFI2:
 271              		.cfi_def_cfa_offset 12
 272              		@ sp needed
 273 009a 30BD     		pop	{r4, r5, pc}
 274              	.L15:
 275              		.align	2
 276              	.L14:
 277 009c 00380240 		.word	1073887232
 278 00a0 00000240 		.word	1073872896
 279 00a4 00080240 		.word	1073874944
 280              		.cfi_endproc
 281              	.LFE152:
 283              		.section	.rodata.readVar.str1.4,"aMS",%progbits,1
 284              		.align	2
 285              	.LC0:
 286 0000 756E6C6F 		.ascii	"unlock\000"
 286      636B00
 287 0007 00       		.align	2
 288              	.LC2:
 289 0008 66656174 		.ascii	"feature1\000"
 289      75726531 
 289      00
 290 0011 000000   		.align	2
 291              	.LC4:
 292 0014 66656174 		.ascii	"feature2\000"
 292      75726532 
ARM GAS  /tmp/ccB3fkfO.s 			page 15


 292      00
 293 001d 000000   		.align	2
 294              	.LC6:
 295 0020 66656174 		.ascii	"feature3\000"
 295      75726533 
 295      00
 296 0029 000000   		.align	2
 297              	.LC8:
 298 002c 666F625F 		.ascii	"fob_state\000"
 298      73746174 
 298      6500
 299              		.section	.text.readVar,"ax",%progbits
 300              		.align	1
 301              		.global	readVar
 302              		.syntax unified
 303              		.thumb
 304              		.thumb_func
 305              		.fpu fpv4-sp-d16
 307              	readVar:
 308              	.LVL19:
 309              	.LFB137:
 130:Core/Src/main.c ****   if(!strcmp(var, "unlock")) memcpy(dest, unlock_flag, UNLOCK_SIZE);
 310              		.loc 1 130 1 is_stmt 1 view -0
 311              		.cfi_startproc
 312              		@ args = 0, pretend = 0, frame = 0
 313              		@ frame_needed = 0, uses_anonymous_args = 0
 130:Core/Src/main.c ****   if(!strcmp(var, "unlock")) memcpy(dest, unlock_flag, UNLOCK_SIZE);
 314              		.loc 1 130 1 is_stmt 0 view .LVU77
 315 0000 70B5     		push	{r4, r5, r6, lr}
 316              	.LCFI3:
 317              		.cfi_def_cfa_offset 16
 318              		.cfi_offset 4, -16
 319              		.cfi_offset 5, -12
 320              		.cfi_offset 6, -8
 321              		.cfi_offset 14, -4
 322 0002 0446     		mov	r4, r0
 323 0004 0D46     		mov	r5, r1
 131:Core/Src/main.c ****   else if(!strcmp(var, "feature1")) memcpy(dest, feature1_flag, FEATURE_SIZE);
 324              		.loc 1 131 3 is_stmt 1 view .LVU78
 131:Core/Src/main.c ****   else if(!strcmp(var, "feature1")) memcpy(dest, feature1_flag, FEATURE_SIZE);
 325              		.loc 1 131 7 is_stmt 0 view .LVU79
 326 0006 3449     		ldr	r1, .L24
 327              	.LVL20:
 131:Core/Src/main.c ****   else if(!strcmp(var, "feature1")) memcpy(dest, feature1_flag, FEATURE_SIZE);
 328              		.loc 1 131 7 view .LVU80
 329 0008 2846     		mov	r0, r5
 330              	.LVL21:
 131:Core/Src/main.c ****   else if(!strcmp(var, "feature1")) memcpy(dest, feature1_flag, FEATURE_SIZE);
 331              		.loc 1 131 7 view .LVU81
 332 000a FFF7FEFF 		bl	strcmp
 333              	.LVL22:
 131:Core/Src/main.c ****   else if(!strcmp(var, "feature1")) memcpy(dest, feature1_flag, FEATURE_SIZE);
 334              		.loc 1 131 5 view .LVU82
 335 000e 78B9     		cbnz	r0, .L17
 131:Core/Src/main.c ****   else if(!strcmp(var, "feature1")) memcpy(dest, feature1_flag, FEATURE_SIZE);
 336              		.loc 1 131 30 is_stmt 1 discriminator 1 view .LVU83
 337 0010 324B     		ldr	r3, .L24+4
ARM GAS  /tmp/ccB3fkfO.s 			page 16


 338 0012 07CB     		ldmia	r3!, {r0, r1, r2}
 339 0014 2060     		str	r0, [r4]	@ unaligned
 340 0016 6160     		str	r1, [r4, #4]	@ unaligned
 341 0018 A260     		str	r2, [r4, #8]	@ unaligned
 342 001a 1A88     		ldrh	r2, [r3]	@ unaligned
 343 001c 9B78     		ldrb	r3, [r3, #2]	@ zero_extendqisi2
 344 001e A281     		strh	r2, [r4, #12]	@ unaligned
 345 0020 A373     		strb	r3, [r4, #14]
 346 0022 3122     		movs	r2, #49
 347 0024 0021     		movs	r1, #0
 348 0026 04F10F00 		add	r0, r4, #15
 349 002a FFF7FEFF 		bl	memset
 350              	.LVL23:
 351              	.L16:
 136:Core/Src/main.c **** 
 352              		.loc 1 136 1 is_stmt 0 view .LVU84
 353 002e 70BD     		pop	{r4, r5, r6, pc}
 354              	.LVL24:
 355              	.L17:
 132:Core/Src/main.c ****   else if(!strcmp(var, "feature2")) memcpy(dest, feature2_flag, FEATURE_SIZE);
 356              		.loc 1 132 8 is_stmt 1 view .LVU85
 132:Core/Src/main.c ****   else if(!strcmp(var, "feature2")) memcpy(dest, feature2_flag, FEATURE_SIZE);
 357              		.loc 1 132 12 is_stmt 0 view .LVU86
 358 0030 2B49     		ldr	r1, .L24+8
 359 0032 2846     		mov	r0, r5
 360 0034 FFF7FEFF 		bl	strcmp
 361              	.LVL25:
 132:Core/Src/main.c ****   else if(!strcmp(var, "feature2")) memcpy(dest, feature2_flag, FEATURE_SIZE);
 362              		.loc 1 132 10 view .LVU87
 363 0038 70B9     		cbnz	r0, .L19
 132:Core/Src/main.c ****   else if(!strcmp(var, "feature2")) memcpy(dest, feature2_flag, FEATURE_SIZE);
 364              		.loc 1 132 37 is_stmt 1 discriminator 1 view .LVU88
 365 003a 2A4D     		ldr	r5, .L24+12
 366              	.LVL26:
 132:Core/Src/main.c ****   else if(!strcmp(var, "feature2")) memcpy(dest, feature2_flag, FEATURE_SIZE);
 367              		.loc 1 132 37 is_stmt 0 discriminator 1 view .LVU89
 368 003c 0FCD     		ldmia	r5!, {r0, r1, r2, r3}
 369 003e 2060     		str	r0, [r4]	@ unaligned
 370 0040 6160     		str	r1, [r4, #4]	@ unaligned
 371 0042 A260     		str	r2, [r4, #8]	@ unaligned
 372 0044 E360     		str	r3, [r4, #12]	@ unaligned
 373 0046 2B78     		ldrb	r3, [r5]	@ zero_extendqisi2
 374 0048 2374     		strb	r3, [r4, #16]
 375 004a 2F22     		movs	r2, #47
 376 004c 0021     		movs	r1, #0
 377 004e 04F11100 		add	r0, r4, #17
 378 0052 FFF7FEFF 		bl	memset
 379              	.LVL27:
 380 0056 EAE7     		b	.L16
 381              	.LVL28:
 382              	.L19:
 133:Core/Src/main.c ****   else if(!strcmp(var, "feature3")) memcpy(dest, feature3_flag, FEATURE_SIZE);
 383              		.loc 1 133 8 is_stmt 1 view .LVU90
 133:Core/Src/main.c ****   else if(!strcmp(var, "feature3")) memcpy(dest, feature3_flag, FEATURE_SIZE);
 384              		.loc 1 133 12 is_stmt 0 view .LVU91
 385 0058 2349     		ldr	r1, .L24+16
 386 005a 2846     		mov	r0, r5
ARM GAS  /tmp/ccB3fkfO.s 			page 17


 387 005c FFF7FEFF 		bl	strcmp
 388              	.LVL29:
 133:Core/Src/main.c ****   else if(!strcmp(var, "feature3")) memcpy(dest, feature3_flag, FEATURE_SIZE);
 389              		.loc 1 133 10 view .LVU92
 390 0060 70B9     		cbnz	r0, .L20
 133:Core/Src/main.c ****   else if(!strcmp(var, "feature3")) memcpy(dest, feature3_flag, FEATURE_SIZE);
 391              		.loc 1 133 37 is_stmt 1 discriminator 1 view .LVU93
 392 0062 224D     		ldr	r5, .L24+20
 393              	.LVL30:
 133:Core/Src/main.c ****   else if(!strcmp(var, "feature3")) memcpy(dest, feature3_flag, FEATURE_SIZE);
 394              		.loc 1 133 37 is_stmt 0 discriminator 1 view .LVU94
 395 0064 0FCD     		ldmia	r5!, {r0, r1, r2, r3}
 396 0066 2060     		str	r0, [r4]	@ unaligned
 397 0068 6160     		str	r1, [r4, #4]	@ unaligned
 398 006a A260     		str	r2, [r4, #8]	@ unaligned
 399 006c E360     		str	r3, [r4, #12]	@ unaligned
 400 006e 2B78     		ldrb	r3, [r5]	@ zero_extendqisi2
 401 0070 2374     		strb	r3, [r4, #16]
 402 0072 2F22     		movs	r2, #47
 403 0074 0021     		movs	r1, #0
 404 0076 04F11100 		add	r0, r4, #17
 405 007a FFF7FEFF 		bl	memset
 406              	.LVL31:
 407 007e D6E7     		b	.L16
 408              	.LVL32:
 409              	.L20:
 134:Core/Src/main.c ****   else if(!strcmp(var, "fob_state")) memcpy(dest, &flash_data, sizeof(FLASH_DATA));
 410              		.loc 1 134 8 is_stmt 1 view .LVU95
 134:Core/Src/main.c ****   else if(!strcmp(var, "fob_state")) memcpy(dest, &flash_data, sizeof(FLASH_DATA));
 411              		.loc 1 134 12 is_stmt 0 view .LVU96
 412 0080 1B49     		ldr	r1, .L24+24
 413 0082 2846     		mov	r0, r5
 414 0084 FFF7FEFF 		bl	strcmp
 415              	.LVL33:
 134:Core/Src/main.c ****   else if(!strcmp(var, "fob_state")) memcpy(dest, &flash_data, sizeof(FLASH_DATA));
 416              		.loc 1 134 10 view .LVU97
 417 0088 70B9     		cbnz	r0, .L21
 134:Core/Src/main.c ****   else if(!strcmp(var, "fob_state")) memcpy(dest, &flash_data, sizeof(FLASH_DATA));
 418              		.loc 1 134 37 is_stmt 1 discriminator 1 view .LVU98
 419 008a 1A4D     		ldr	r5, .L24+28
 420              	.LVL34:
 134:Core/Src/main.c ****   else if(!strcmp(var, "fob_state")) memcpy(dest, &flash_data, sizeof(FLASH_DATA));
 421              		.loc 1 134 37 is_stmt 0 discriminator 1 view .LVU99
 422 008c 0FCD     		ldmia	r5!, {r0, r1, r2, r3}
 423 008e 2060     		str	r0, [r4]	@ unaligned
 424 0090 6160     		str	r1, [r4, #4]	@ unaligned
 425 0092 A260     		str	r2, [r4, #8]	@ unaligned
 426 0094 E360     		str	r3, [r4, #12]	@ unaligned
 427 0096 2B78     		ldrb	r3, [r5]	@ zero_extendqisi2
 428 0098 2374     		strb	r3, [r4, #16]
 429 009a 2F22     		movs	r2, #47
 430 009c 0021     		movs	r1, #0
 431 009e 04F11100 		add	r0, r4, #17
 432 00a2 FFF7FEFF 		bl	memset
 433              	.LVL35:
 434 00a6 C2E7     		b	.L16
 435              	.LVL36:
ARM GAS  /tmp/ccB3fkfO.s 			page 18


 436              	.L21:
 135:Core/Src/main.c **** }
 437              		.loc 1 135 8 is_stmt 1 view .LVU100
 135:Core/Src/main.c **** }
 438              		.loc 1 135 12 is_stmt 0 view .LVU101
 439 00a8 1349     		ldr	r1, .L24+32
 440 00aa 2846     		mov	r0, r5
 441 00ac FFF7FEFF 		bl	strcmp
 442              	.LVL37:
 135:Core/Src/main.c **** }
 443              		.loc 1 135 10 view .LVU102
 444 00b0 0028     		cmp	r0, #0
 445 00b2 BCD1     		bne	.L16
 135:Core/Src/main.c **** }
 446              		.loc 1 135 38 is_stmt 1 discriminator 1 view .LVU103
 447 00b4 114E     		ldr	r6, .L24+36
 448 00b6 06F1200C 		add	ip, r6, #32
 449              	.LVL38:
 450              	.L22:
 135:Core/Src/main.c **** }
 451              		.loc 1 135 38 is_stmt 0 discriminator 1 view .LVU104
 452 00ba 3546     		mov	r5, r6
 453 00bc 0FCD     		ldmia	r5!, {r0, r1, r2, r3}
 454 00be 2060     		str	r0, [r4]	@ unaligned
 455 00c0 6160     		str	r1, [r4, #4]	@ unaligned
 456 00c2 A260     		str	r2, [r4, #8]	@ unaligned
 457 00c4 E360     		str	r3, [r4, #12]	@ unaligned
 458 00c6 2E46     		mov	r6, r5
 459 00c8 1034     		adds	r4, r4, #16
 460 00ca 6545     		cmp	r5, ip
 461 00cc F5D1     		bne	.L22
 462 00ce 2868     		ldr	r0, [r5]
 463 00d0 2060     		str	r0, [r4]	@ unaligned
 464 00d2 2B79     		ldrb	r3, [r5, #4]	@ zero_extendqisi2
 465 00d4 2371     		strb	r3, [r4, #4]
 136:Core/Src/main.c **** 
 466              		.loc 1 136 1 discriminator 1 view .LVU105
 467 00d6 AAE7     		b	.L16
 468              	.L25:
 469              		.align	2
 470              	.L24:
 471 00d8 00000000 		.word	.LC0
 472 00dc 00000000 		.word	.LANCHOR0
 473 00e0 08000000 		.word	.LC2
 474 00e4 40000000 		.word	.LANCHOR0+64
 475 00e8 14000000 		.word	.LC4
 476 00ec 80000000 		.word	.LANCHOR0+128
 477 00f0 20000000 		.word	.LC6
 478 00f4 C0000000 		.word	.LANCHOR0+192
 479 00f8 2C000000 		.word	.LC8
 480 00fc 00000000 		.word	.LANCHOR1
 481              		.cfi_endproc
 482              	.LFE137:
 484              		.section	.text.saveFobState,"ax",%progbits
 485              		.align	1
 486              		.global	saveFobState
 487              		.syntax unified
ARM GAS  /tmp/ccB3fkfO.s 			page 19


 488              		.thumb
 489              		.thumb_func
 490              		.fpu fpv4-sp-d16
 492              	saveFobState:
 493              	.LVL39:
 494              	.LFB139:
 157:Core/Src/main.c ****   uint32_t base = (uint32_t)&__flash_data_start__;
 495              		.loc 1 157 1 is_stmt 1 view -0
 496              		.cfi_startproc
 497              		@ args = 0, pretend = 0, frame = 64
 498              		@ frame_needed = 0, uses_anonymous_args = 0
 157:Core/Src/main.c ****   uint32_t base = (uint32_t)&__flash_data_start__;
 499              		.loc 1 157 1 is_stmt 0 view .LVU107
 500 0000 F0B5     		push	{r4, r5, r6, r7, lr}
 501              	.LCFI4:
 502              		.cfi_def_cfa_offset 20
 503              		.cfi_offset 4, -20
 504              		.cfi_offset 5, -16
 505              		.cfi_offset 6, -12
 506              		.cfi_offset 7, -8
 507              		.cfi_offset 14, -4
 508 0002 91B0     		sub	sp, sp, #68
 509              	.LCFI5:
 510              		.cfi_def_cfa_offset 88
 158:Core/Src/main.c ****   uint32_t end  = (uint32_t)&__flash_data_end__;
 511              		.loc 1 158 3 is_stmt 1 view .LVU108
 158:Core/Src/main.c ****   uint32_t end  = (uint32_t)&__flash_data_end__;
 512              		.loc 1 158 12 is_stmt 0 view .LVU109
 513 0004 2A4D     		ldr	r5, .L38
 514              	.LVL40:
 159:Core/Src/main.c ****   uint32_t size = end - base;
 515              		.loc 1 159 3 is_stmt 1 view .LVU110
 159:Core/Src/main.c ****   uint32_t size = end - base;
 516              		.loc 1 159 12 is_stmt 0 view .LVU111
 517 0006 2B4B     		ldr	r3, .L38+4
 518              	.LVL41:
 160:Core/Src/main.c **** 
 519              		.loc 1 160 3 is_stmt 1 view .LVU112
 160:Core/Src/main.c **** 
 520              		.loc 1 160 12 is_stmt 0 view .LVU113
 521 0008 5B1B     		subs	r3, r3, r5
 522              	.LVL42:
 163:Core/Src/main.c ****   {
 523              		.loc 1 163 3 is_stmt 1 view .LVU114
 163:Core/Src/main.c ****   {
 524              		.loc 1 163 6 is_stmt 0 view .LVU115
 525 000a 032B     		cmp	r3, #3
 526 000c 02D8     		bhi	.L35
 165:Core/Src/main.c ****   }
 527              		.loc 1 165 14 view .LVU116
 528 000e 0020     		movs	r0, #0
 529              	.LVL43:
 530              	.L27:
 206:Core/Src/main.c **** 
 531              		.loc 1 206 1 view .LVU117
 532 0010 11B0     		add	sp, sp, #68
 533              	.LCFI6:
ARM GAS  /tmp/ccB3fkfO.s 			page 20


 534              		.cfi_remember_state
 535              		.cfi_def_cfa_offset 20
 536              		@ sp needed
 537 0012 F0BD     		pop	{r4, r5, r6, r7, pc}
 538              	.LVL44:
 539              	.L35:
 540              	.LCFI7:
 541              		.cfi_restore_state
 206:Core/Src/main.c **** 
 542              		.loc 1 206 1 view .LVU118
 543 0014 0646     		mov	r6, r0
 169:Core/Src/main.c ****   FLASH_EraseInitTypeDef erase =
 544              		.loc 1 169 3 is_stmt 1 view .LVU119
 169:Core/Src/main.c ****   FLASH_EraseInitTypeDef erase =
 545              		.loc 1 169 21 is_stmt 0 view .LVU120
 546 0016 2846     		mov	r0, r5
 547              	.LVL45:
 169:Core/Src/main.c ****   FLASH_EraseInitTypeDef erase =
 548              		.loc 1 169 21 view .LVU121
 549 0018 FFF7FEFF 		bl	get_flash_sector
 550              	.LVL46:
 170:Core/Src/main.c ****   {
 551              		.loc 1 170 3 is_stmt 1 view .LVU122
 170:Core/Src/main.c ****   {
 552              		.loc 1 170 26 is_stmt 0 view .LVU123
 553 001c 0023     		movs	r3, #0
 554 001e 0B93     		str	r3, [sp, #44]
 555 0020 0C93     		str	r3, [sp, #48]
 556 0022 0D93     		str	r3, [sp, #52]
 557 0024 0E93     		str	r3, [sp, #56]
 558 0026 0F93     		str	r3, [sp, #60]
 559 0028 0D90     		str	r0, [sp, #52]
 560 002a 0123     		movs	r3, #1
 561 002c 0E93     		str	r3, [sp, #56]
 562 002e 0223     		movs	r3, #2
 563 0030 0F93     		str	r3, [sp, #60]
 178:Core/Src/main.c ****   memset(padded_data, 0xFF, sizeof(padded_data));
 564              		.loc 1 178 3 is_stmt 1 view .LVU124
 179:Core/Src/main.c ****   memcpy((FLASH_DATA*)(&padded_data), src, sizeof(FLASH_DATA));
 565              		.loc 1 179 3 view .LVU125
 566 0032 2822     		movs	r2, #40
 567 0034 FF21     		movs	r1, #255
 568 0036 01A8     		add	r0, sp, #4
 569              	.LVL47:
 179:Core/Src/main.c ****   memcpy((FLASH_DATA*)(&padded_data), src, sizeof(FLASH_DATA));
 570              		.loc 1 179 3 is_stmt 0 view .LVU126
 571 0038 FFF7FEFF 		bl	memset
 572              	.LVL48:
 180:Core/Src/main.c **** 
 573              		.loc 1 180 3 is_stmt 1 view .LVU127
 574 003c 3446     		mov	r4, r6
 575 003e 0DF1040E 		add	lr, sp, #4
 576 0042 06F12007 		add	r7, r6, #32
 577              	.L28:
 180:Core/Src/main.c **** 
 578              		.loc 1 180 3 is_stmt 0 view .LVU128
 579 0046 F446     		mov	ip, lr
ARM GAS  /tmp/ccB3fkfO.s 			page 21


 580 0048 2068     		ldr	r0, [r4]	@ unaligned
 581 004a 6168     		ldr	r1, [r4, #4]	@ unaligned
 582 004c A268     		ldr	r2, [r4, #8]	@ unaligned
 583 004e E368     		ldr	r3, [r4, #12]	@ unaligned
 584 0050 ACE80F00 		stmia	ip!, {r0, r1, r2, r3}
 585 0054 1034     		adds	r4, r4, #16
 586 0056 E646     		mov	lr, ip
 587 0058 BC42     		cmp	r4, r7
 588 005a F4D1     		bne	.L28
 589 005c 2068     		ldr	r0, [r4]	@ unaligned
 590 005e CCF80000 		str	r0, [ip]
 591 0062 2379     		ldrb	r3, [r4, #4]	@ zero_extendqisi2
 592 0064 8CF80430 		strb	r3, [ip, #4]
 182:Core/Src/main.c ****   HAL_FLASH_Unlock();
 593              		.loc 1 182 3 is_stmt 1 view .LVU129
 182:Core/Src/main.c ****   HAL_FLASH_Unlock();
 594              		.loc 1 182 12 is_stmt 0 view .LVU130
 595 0068 0023     		movs	r3, #0
 596 006a 0093     		str	r3, [sp]
 183:Core/Src/main.c **** 
 597              		.loc 1 183 3 is_stmt 1 view .LVU131
 598 006c FFF7FEFF 		bl	HAL_FLASH_Unlock
 599              	.LVL49:
 185:Core/Src/main.c ****   {
 600              		.loc 1 185 3 view .LVU132
 185:Core/Src/main.c ****   {
 601              		.loc 1 185 7 is_stmt 0 view .LVU133
 602 0070 6946     		mov	r1, sp
 603 0072 0BA8     		add	r0, sp, #44
 604 0074 FFF7FEFF 		bl	HAL_FLASHEx_Erase
 605              	.LVL50:
 185:Core/Src/main.c ****   {
 606              		.loc 1 185 6 view .LVU134
 607 0078 08B9     		cbnz	r0, .L36
 608              	.LBB8:
 195:Core/Src/main.c ****   {
 609              		.loc 1 195 15 view .LVU135
 610 007a 0024     		movs	r4, #0
 611 007c 05E0     		b	.L29
 612              	.L36:
 613              	.LBE8:
 187:Core/Src/main.c ****       return false;
 614              		.loc 1 187 7 is_stmt 1 view .LVU136
 615 007e FFF7FEFF 		bl	HAL_FLASH_Lock
 616              	.LVL51:
 188:Core/Src/main.c ****   }
 617              		.loc 1 188 7 view .LVU137
 188:Core/Src/main.c ****   }
 618              		.loc 1 188 14 is_stmt 0 view .LVU138
 619 0082 0020     		movs	r0, #0
 620 0084 C4E7     		b	.L27
 621              	.LVL52:
 622              	.L30:
 623              	.LBB9:
 201:Core/Src/main.c ****   }
 624              		.loc 1 201 7 is_stmt 1 discriminator 2 view .LVU139
 201:Core/Src/main.c ****   }
ARM GAS  /tmp/ccB3fkfO.s 			page 22


 625              		.loc 1 201 12 is_stmt 0 discriminator 2 view .LVU140
 626 0086 0435     		adds	r5, r5, #4
 627              	.LVL53:
 195:Core/Src/main.c ****   {
 628              		.loc 1 195 44 is_stmt 1 discriminator 2 view .LVU141
 195:Core/Src/main.c ****   {
 629              		.loc 1 195 45 is_stmt 0 discriminator 2 view .LVU142
 630 0088 0134     		adds	r4, r4, #1
 631              	.LVL54:
 632              	.L29:
 195:Core/Src/main.c ****   {
 633              		.loc 1 195 22 is_stmt 1 discriminator 1 view .LVU143
 195:Core/Src/main.c ****   {
 634              		.loc 1 195 3 is_stmt 0 discriminator 1 view .LVU144
 635 008a 242C     		cmp	r4, #36
 636 008c 0CD8     		bhi	.L37
 197:Core/Src/main.c ****           HAL_FLASH_Lock();
 637              		.loc 1 197 7 is_stmt 1 view .LVU145
 197:Core/Src/main.c ****           HAL_FLASH_Lock();
 638              		.loc 1 197 11 is_stmt 0 view .LVU146
 639 008e 56F82420 		ldr	r2, [r6, r4, lsl #2]
 640 0092 0023     		movs	r3, #0
 641 0094 2946     		mov	r1, r5
 642 0096 0220     		movs	r0, #2
 643 0098 FFF7FEFF 		bl	HAL_FLASH_Program
 644              	.LVL55:
 197:Core/Src/main.c ****           HAL_FLASH_Lock();
 645              		.loc 1 197 10 view .LVU147
 646 009c 0028     		cmp	r0, #0
 647 009e F2D0     		beq	.L30
 198:Core/Src/main.c ****           return false;
 648              		.loc 1 198 11 is_stmt 1 view .LVU148
 649 00a0 FFF7FEFF 		bl	HAL_FLASH_Lock
 650              	.LVL56:
 199:Core/Src/main.c ****       }
 651              		.loc 1 199 11 view .LVU149
 199:Core/Src/main.c ****       }
 652              		.loc 1 199 18 is_stmt 0 view .LVU150
 653 00a4 0020     		movs	r0, #0
 654 00a6 B3E7     		b	.L27
 655              	.L37:
 199:Core/Src/main.c ****       }
 656              		.loc 1 199 18 view .LVU151
 657              	.LBE9:
 204:Core/Src/main.c ****   return true;
 658              		.loc 1 204 3 is_stmt 1 view .LVU152
 659 00a8 FFF7FEFF 		bl	HAL_FLASH_Lock
 660              	.LVL57:
 205:Core/Src/main.c **** }
 661              		.loc 1 205 3 view .LVU153
 205:Core/Src/main.c **** }
 662              		.loc 1 205 10 is_stmt 0 view .LVU154
 663 00ac 0120     		movs	r0, #1
 664 00ae AFE7     		b	.L27
 665              	.L39:
 666              		.align	2
 667              	.L38:
ARM GAS  /tmp/ccB3fkfO.s 			page 23


 668 00b0 00000000 		.word	__flash_data_start__
 669 00b4 00000000 		.word	__flash_data_end__
 670              		.cfi_endproc
 671              	.LFE139:
 673              		.section	.text.setLED,"ax",%progbits
 674              		.align	1
 675              		.global	setLED
 676              		.syntax unified
 677              		.thumb
 678              		.thumb_func
 679              		.fpu fpv4-sp-d16
 681              	setLED:
 682              	.LVL58:
 683              	.LFB140:
 209:Core/Src/main.c ****   HAL_GPIO_WritePin(LD2_GPIO_Port, LD2_Pin, color == GREEN);
 684              		.loc 1 209 1 is_stmt 1 view -0
 685              		.cfi_startproc
 686              		@ args = 0, pretend = 0, frame = 0
 687              		@ frame_needed = 0, uses_anonymous_args = 0
 209:Core/Src/main.c ****   HAL_GPIO_WritePin(LD2_GPIO_Port, LD2_Pin, color == GREEN);
 688              		.loc 1 209 1 is_stmt 0 view .LVU156
 689 0000 08B5     		push	{r3, lr}
 690              	.LCFI8:
 691              		.cfi_def_cfa_offset 8
 692              		.cfi_offset 3, -8
 693              		.cfi_offset 14, -4
 210:Core/Src/main.c **** }
 694              		.loc 1 210 3 is_stmt 1 view .LVU157
 695 0002 0228     		cmp	r0, #2
 696 0004 14BF     		ite	ne
 697 0006 0022     		movne	r2, #0
 698 0008 0122     		moveq	r2, #1
 699 000a 2021     		movs	r1, #32
 700 000c 0148     		ldr	r0, .L42
 701              	.LVL59:
 210:Core/Src/main.c **** }
 702              		.loc 1 210 3 is_stmt 0 view .LVU158
 703 000e FFF7FEFF 		bl	HAL_GPIO_WritePin
 704              	.LVL60:
 211:Core/Src/main.c **** 
 705              		.loc 1 211 1 view .LVU159
 706 0012 08BD     		pop	{r3, pc}
 707              	.L43:
 708              		.align	2
 709              	.L42:
 710 0014 00000240 		.word	1073872896
 711              		.cfi_endproc
 712              	.LFE140:
 714              		.section	.text.buttonPressed,"ax",%progbits
 715              		.align	1
 716              		.global	buttonPressed
 717              		.syntax unified
 718              		.thumb
 719              		.thumb_func
 720              		.fpu fpv4-sp-d16
 722              	buttonPressed:
 723              	.LFB141:
ARM GAS  /tmp/ccB3fkfO.s 			page 24


 214:Core/Src/main.c ****   static uint32_t history = 0;
 724              		.loc 1 214 1 is_stmt 1 view -0
 725              		.cfi_startproc
 726              		@ args = 0, pretend = 0, frame = 0
 727              		@ frame_needed = 0, uses_anonymous_args = 0
 728 0000 38B5     		push	{r3, r4, r5, lr}
 729              	.LCFI9:
 730              		.cfi_def_cfa_offset 16
 731              		.cfi_offset 3, -16
 732              		.cfi_offset 4, -12
 733              		.cfi_offset 5, -8
 734              		.cfi_offset 14, -4
 215:Core/Src/main.c ****   static bool latched = false;
 735              		.loc 1 215 3 view .LVU161
 216:Core/Src/main.c **** 
 736              		.loc 1 216 3 view .LVU162
 218:Core/Src/main.c ****             (HAL_GPIO_ReadPin(B1_GPIO_Port, B1_Pin) == GPIO_PIN_SET);
 737              		.loc 1 218 3 view .LVU163
 218:Core/Src/main.c ****             (HAL_GPIO_ReadPin(B1_GPIO_Port, B1_Pin) == GPIO_PIN_SET);
 738              		.loc 1 218 22 is_stmt 0 view .LVU164
 739 0002 0F4D     		ldr	r5, .L50
 740 0004 2B68     		ldr	r3, [r5]
 741 0006 5C00     		lsls	r4, r3, #1
 219:Core/Src/main.c **** 
 742              		.loc 1 219 14 view .LVU165
 743 0008 4FF40051 		mov	r1, #8192
 744 000c 0D48     		ldr	r0, .L50+4
 745 000e FFF7FEFF 		bl	HAL_GPIO_ReadPin
 746              	.LVL61:
 218:Core/Src/main.c ****             (HAL_GPIO_ReadPin(B1_GPIO_Port, B1_Pin) == GPIO_PIN_SET);
 747              		.loc 1 218 28 view .LVU166
 748 0012 0128     		cmp	r0, #1
 749 0014 08BF     		it	eq
 750 0016 44F00104 		orreq	r4, r4, #1
 218:Core/Src/main.c ****             (HAL_GPIO_ReadPin(B1_GPIO_Port, B1_Pin) == GPIO_PIN_SET);
 751              		.loc 1 218 11 view .LVU167
 752 001a 2C60     		str	r4, [r5]
 221:Core/Src/main.c ****       latched = true;
 753              		.loc 1 221 3 is_stmt 1 view .LVU168
 221:Core/Src/main.c ****       latched = true;
 754              		.loc 1 221 6 is_stmt 0 view .LVU169
 755 001c B4F1FF3F 		cmp	r4, #-1
 756 0020 04D0     		beq	.L49
 757              	.L45:
 226:Core/Src/main.c ****       latched = false;    // fully released
 758              		.loc 1 226 3 is_stmt 1 view .LVU170
 226:Core/Src/main.c ****       latched = false;    // fully released
 759              		.loc 1 226 6 is_stmt 0 view .LVU171
 760 0022 5CB9     		cbnz	r4, .L47
 227:Core/Src/main.c ****   }
 761              		.loc 1 227 7 is_stmt 1 view .LVU172
 227:Core/Src/main.c ****   }
 762              		.loc 1 227 15 is_stmt 0 view .LVU173
 763 0024 0020     		movs	r0, #0
 764 0026 084B     		ldr	r3, .L50+8
 765 0028 1870     		strb	r0, [r3]
 766              	.L46:
ARM GAS  /tmp/ccB3fkfO.s 			page 25


 231:Core/Src/main.c **** 
 767              		.loc 1 231 1 view .LVU174
 768 002a 38BD     		pop	{r3, r4, r5, pc}
 769              	.L49:
 221:Core/Src/main.c ****       latched = true;
 770              		.loc 1 221 32 discriminator 1 view .LVU175
 771 002c 064A     		ldr	r2, .L50+8
 772 002e 1278     		ldrb	r2, [r2]	@ zero_extendqisi2
 221:Core/Src/main.c ****       latched = true;
 773              		.loc 1 221 29 discriminator 1 view .LVU176
 774 0030 002A     		cmp	r2, #0
 775 0032 F6D1     		bne	.L45
 222:Core/Src/main.c ****       return true;        // button just pressed
 776              		.loc 1 222 7 is_stmt 1 view .LVU177
 222:Core/Src/main.c ****       return true;        // button just pressed
 777              		.loc 1 222 15 is_stmt 0 view .LVU178
 778 0034 0120     		movs	r0, #1
 779 0036 044B     		ldr	r3, .L50+8
 780 0038 1870     		strb	r0, [r3]
 223:Core/Src/main.c ****   }
 781              		.loc 1 223 7 is_stmt 1 view .LVU179
 223:Core/Src/main.c ****   }
 782              		.loc 1 223 14 is_stmt 0 view .LVU180
 783 003a F6E7     		b	.L46
 784              	.L47:
 230:Core/Src/main.c **** }
 785              		.loc 1 230 10 view .LVU181
 786 003c 0020     		movs	r0, #0
 787 003e F4E7     		b	.L46
 788              	.L51:
 789              		.align	2
 790              	.L50:
 791 0040 00000000 		.word	.LANCHOR2
 792 0044 00080240 		.word	1073874944
 793 0048 00000000 		.word	.LANCHOR3
 794              		.cfi_endproc
 795              	.LFE141:
 797              		.section	.text.uart_avail,"ax",%progbits
 798              		.align	1
 799              		.global	uart_avail
 800              		.syntax unified
 801              		.thumb
 802              		.thumb_func
 803              		.fpu fpv4-sp-d16
 805              	uart_avail:
 806              	.LVL62:
 807              	.LFB143:
 258:Core/Src/main.c **** 
 808              		.loc 1 258 33 is_stmt 1 view -0
 809              		.cfi_startproc
 810              		@ args = 0, pretend = 0, frame = 0
 811              		@ frame_needed = 0, uses_anonymous_args = 0
 812              		@ link register save eliminated.
 258:Core/Src/main.c **** 
 813              		.loc 1 258 35 view .LVU183
 258:Core/Src/main.c **** 
 814              		.loc 1 258 43 is_stmt 0 view .LVU184
ARM GAS  /tmp/ccB3fkfO.s 			page 26


 815 0000 034B     		ldr	r3, .L53
 816 0002 53F82030 		ldr	r3, [r3, r0, lsl #2]
 817 0006 1B68     		ldr	r3, [r3]
 818 0008 1868     		ldr	r0, [r3]
 819              	.LVL63:
 258:Core/Src/main.c **** 
 820              		.loc 1 258 107 view .LVU185
 821 000a C0F34010 		ubfx	r0, r0, #5, #1
 822 000e 7047     		bx	lr
 823              	.L54:
 824              		.align	2
 825              	.L53:
 826 0010 00000000 		.word	.LANCHOR4
 827              		.cfi_endproc
 828              	.LFE143:
 830              		.section	.text.uart_readb,"ax",%progbits
 831              		.align	1
 832              		.global	uart_readb
 833              		.syntax unified
 834              		.thumb
 835              		.thumb_func
 836              		.fpu fpv4-sp-d16
 838              	uart_readb:
 839              	.LVL64:
 840              	.LFB144:
 267:Core/Src/main.c ****   int32_t c;
 841              		.loc 1 267 1 is_stmt 1 view -0
 842              		.cfi_startproc
 843              		@ args = 0, pretend = 0, frame = 8
 844              		@ frame_needed = 0, uses_anonymous_args = 0
 267:Core/Src/main.c ****   int32_t c;
 845              		.loc 1 267 1 is_stmt 0 view .LVU187
 846 0000 10B5     		push	{r4, lr}
 847              	.LCFI10:
 848              		.cfi_def_cfa_offset 8
 849              		.cfi_offset 4, -8
 850              		.cfi_offset 14, -4
 851 0002 82B0     		sub	sp, sp, #8
 852              	.LCFI11:
 853              		.cfi_def_cfa_offset 16
 268:Core/Src/main.c ****   HAL_UART_Receive(uart_base[uart], (uint8_t*)(&c), 1, HAL_MAX_DELAY);
 854              		.loc 1 268 3 is_stmt 1 view .LVU188
 269:Core/Src/main.c ****   return c;
 855              		.loc 1 269 3 view .LVU189
 856 0004 4FF0FF33 		mov	r3, #-1
 857 0008 0122     		movs	r2, #1
 858 000a 01A9     		add	r1, sp, #4
 859 000c 034C     		ldr	r4, .L57
 860 000e 54F82000 		ldr	r0, [r4, r0, lsl #2]
 861              	.LVL65:
 269:Core/Src/main.c ****   return c;
 862              		.loc 1 269 3 is_stmt 0 view .LVU190
 863 0012 FFF7FEFF 		bl	HAL_UART_Receive
 864              	.LVL66:
 270:Core/Src/main.c **** }
 865              		.loc 1 270 3 is_stmt 1 view .LVU191
 271:Core/Src/main.c **** 
ARM GAS  /tmp/ccB3fkfO.s 			page 27


 866              		.loc 1 271 1 is_stmt 0 view .LVU192
 867 0016 0198     		ldr	r0, [sp, #4]
 868 0018 02B0     		add	sp, sp, #8
 869              	.LCFI12:
 870              		.cfi_def_cfa_offset 8
 871              		@ sp needed
 872 001a 10BD     		pop	{r4, pc}
 873              	.L58:
 874              		.align	2
 875              	.L57:
 876 001c 00000000 		.word	.LANCHOR4
 877              		.cfi_endproc
 878              	.LFE144:
 880              		.section	.text.uart_read,"ax",%progbits
 881              		.align	1
 882              		.global	uart_read
 883              		.syntax unified
 884              		.thumb
 885              		.thumb_func
 886              		.fpu fpv4-sp-d16
 888              	uart_read:
 889              	.LVL67:
 890              	.LFB145:
 282:Core/Src/main.c ****   HAL_UART_Receive(uart_base[uart], buf, n, HAL_MAX_DELAY);
 891              		.loc 1 282 1 is_stmt 1 view -0
 892              		.cfi_startproc
 893              		@ args = 0, pretend = 0, frame = 0
 894              		@ frame_needed = 0, uses_anonymous_args = 0
 282:Core/Src/main.c ****   HAL_UART_Receive(uart_base[uart], buf, n, HAL_MAX_DELAY);
 895              		.loc 1 282 1 is_stmt 0 view .LVU194
 896 0000 38B5     		push	{r3, r4, r5, lr}
 897              	.LCFI13:
 898              		.cfi_def_cfa_offset 16
 899              		.cfi_offset 3, -16
 900              		.cfi_offset 4, -12
 901              		.cfi_offset 5, -8
 902              		.cfi_offset 14, -4
 903 0002 1446     		mov	r4, r2
 283:Core/Src/main.c ****   return n;
 904              		.loc 1 283 3 is_stmt 1 view .LVU195
 905 0004 4FF0FF33 		mov	r3, #-1
 906 0008 92B2     		uxth	r2, r2
 907              	.LVL68:
 283:Core/Src/main.c ****   return n;
 908              		.loc 1 283 3 is_stmt 0 view .LVU196
 909 000a 034D     		ldr	r5, .L61
 910 000c 55F82000 		ldr	r0, [r5, r0, lsl #2]
 911              	.LVL69:
 283:Core/Src/main.c ****   return n;
 912              		.loc 1 283 3 view .LVU197
 913 0010 FFF7FEFF 		bl	HAL_UART_Receive
 914              	.LVL70:
 284:Core/Src/main.c **** }
 915              		.loc 1 284 3 is_stmt 1 view .LVU198
 285:Core/Src/main.c **** 
 916              		.loc 1 285 1 is_stmt 0 view .LVU199
 917 0014 2046     		mov	r0, r4
ARM GAS  /tmp/ccB3fkfO.s 			page 28


 918 0016 38BD     		pop	{r3, r4, r5, pc}
 919              	.LVL71:
 920              	.L62:
 285:Core/Src/main.c **** 
 921              		.loc 1 285 1 view .LVU200
 922              		.align	2
 923              	.L61:
 924 0018 00000000 		.word	.LANCHOR4
 925              		.cfi_endproc
 926              	.LFE145:
 928              		.section	.text.uart_readline,"ax",%progbits
 929              		.align	1
 930              		.global	uart_readline
 931              		.syntax unified
 932              		.thumb
 933              		.thumb_func
 934              		.fpu fpv4-sp-d16
 936              	uart_readline:
 937              	.LVL72:
 938              	.LFB146:
 294:Core/Src/main.c ****   uint32_t read = 0;
 939              		.loc 1 294 54 is_stmt 1 view -0
 940              		.cfi_startproc
 941              		@ args = 0, pretend = 0, frame = 8
 942              		@ frame_needed = 0, uses_anonymous_args = 0
 294:Core/Src/main.c ****   uint32_t read = 0;
 943              		.loc 1 294 54 is_stmt 0 view .LVU202
 944 0000 70B5     		push	{r4, r5, r6, lr}
 945              	.LCFI14:
 946              		.cfi_def_cfa_offset 16
 947              		.cfi_offset 4, -16
 948              		.cfi_offset 5, -12
 949              		.cfi_offset 6, -8
 950              		.cfi_offset 14, -4
 951 0002 82B0     		sub	sp, sp, #8
 952              	.LCFI15:
 953              		.cfi_def_cfa_offset 24
 954 0004 0E46     		mov	r6, r1
 295:Core/Src/main.c ****   uint8_t c;
 955              		.loc 1 295 3 is_stmt 1 view .LVU203
 956              	.LVL73:
 296:Core/Src/main.c ****   UART_HandleTypeDef* base = uart_base[uart];
 957              		.loc 1 296 3 view .LVU204
 297:Core/Src/main.c **** 
 958              		.loc 1 297 3 view .LVU205
 297:Core/Src/main.c **** 
 959              		.loc 1 297 23 is_stmt 0 view .LVU206
 960 0006 104B     		ldr	r3, .L68
 961 0008 53F82050 		ldr	r5, [r3, r0, lsl #2]
 962              	.LVL74:
 295:Core/Src/main.c ****   uint8_t c;
 963              		.loc 1 295 12 view .LVU207
 964 000c 0024     		movs	r4, #0
 965 000e 05E0     		b	.L66
 966              	.LVL75:
 967              	.L64:
 309:Core/Src/main.c **** 
ARM GAS  /tmp/ccB3fkfO.s 			page 29


 968              		.loc 1 309 11 is_stmt 1 view .LVU208
 309:Core/Src/main.c **** 
 969              		.loc 1 309 15 is_stmt 0 view .LVU209
 970 0010 9DF80730 		ldrb	r3, [sp, #7]	@ zero_extendqisi2
 309:Core/Src/main.c **** 
 971              		.loc 1 309 3 view .LVU210
 972 0014 0A2B     		cmp	r3, #10
 973 0016 12D0     		beq	.L65
 309:Core/Src/main.c **** 
 974              		.loc 1 309 24 discriminator 1 view .LVU211
 975 0018 0D2B     		cmp	r3, #13
 976 001a 10D0     		beq	.L65
 977              	.LVL76:
 978              	.L66:
 299:Core/Src/main.c ****   {
 979              		.loc 1 299 3 is_stmt 1 view .LVU212
 301:Core/Src/main.c **** 
 980              		.loc 1 301 5 view .LVU213
 981 001c 4FF0FF33 		mov	r3, #-1
 982 0020 0122     		movs	r2, #1
 983 0022 0DF10701 		add	r1, sp, #7
 984 0026 2846     		mov	r0, r5
 985 0028 FFF7FEFF 		bl	HAL_UART_Receive
 986              	.LVL77:
 303:Core/Src/main.c ****     {
 987              		.loc 1 303 5 view .LVU214
 303:Core/Src/main.c ****     {
 988              		.loc 1 303 12 is_stmt 0 view .LVU215
 989 002c 9DF80730 		ldrb	r3, [sp, #7]	@ zero_extendqisi2
 303:Core/Src/main.c ****     {
 990              		.loc 1 303 8 view .LVU216
 991 0030 0D2B     		cmp	r3, #13
 992 0032 EDD0     		beq	.L64
 303:Core/Src/main.c ****     {
 993              		.loc 1 303 21 discriminator 1 view .LVU217
 994 0034 0A2B     		cmp	r3, #10
 995 0036 EBD0     		beq	.L64
 305:Core/Src/main.c ****       read++;
 996              		.loc 1 305 7 is_stmt 1 view .LVU218
 305:Core/Src/main.c ****       read++;
 997              		.loc 1 305 17 is_stmt 0 view .LVU219
 998 0038 3355     		strb	r3, [r6, r4]
 306:Core/Src/main.c ****     }
 999              		.loc 1 306 7 is_stmt 1 view .LVU220
 306:Core/Src/main.c ****     }
 1000              		.loc 1 306 11 is_stmt 0 view .LVU221
 1001 003a 0134     		adds	r4, r4, #1
 1002              	.LVL78:
 306:Core/Src/main.c ****     }
 1003              		.loc 1 306 11 view .LVU222
 1004 003c E8E7     		b	.L64
 1005              	.L65:
 311:Core/Src/main.c **** 
 1006              		.loc 1 311 3 is_stmt 1 view .LVU223
 311:Core/Src/main.c **** 
 1007              		.loc 1 311 13 is_stmt 0 view .LVU224
 1008 003e 0023     		movs	r3, #0
ARM GAS  /tmp/ccB3fkfO.s 			page 30


 1009 0040 3355     		strb	r3, [r6, r4]
 313:Core/Src/main.c **** }
 1010              		.loc 1 313 3 is_stmt 1 view .LVU225
 314:Core/Src/main.c **** 
 1011              		.loc 1 314 1 is_stmt 0 view .LVU226
 1012 0042 2046     		mov	r0, r4
 1013 0044 02B0     		add	sp, sp, #8
 1014              	.LCFI16:
 1015              		.cfi_def_cfa_offset 16
 1016              		@ sp needed
 1017 0046 70BD     		pop	{r4, r5, r6, pc}
 1018              	.LVL79:
 1019              	.L69:
 314:Core/Src/main.c **** 
 1020              		.loc 1 314 1 view .LVU227
 1021              		.align	2
 1022              	.L68:
 1023 0048 00000000 		.word	.LANCHOR4
 1024              		.cfi_endproc
 1025              	.LFE146:
 1027              		.section	.text.uart_writeb,"ax",%progbits
 1028              		.align	1
 1029              		.global	uart_writeb
 1030              		.syntax unified
 1031              		.thumb
 1032              		.thumb_func
 1033              		.fpu fpv4-sp-d16
 1035              	uart_writeb:
 1036              	.LVL80:
 1037              	.LFB147:
 322:Core/Src/main.c **** 
 1038              		.loc 1 322 48 is_stmt 1 view -0
 1039              		.cfi_startproc
 1040              		@ args = 0, pretend = 0, frame = 8
 1041              		@ frame_needed = 0, uses_anonymous_args = 0
 322:Core/Src/main.c **** 
 1042              		.loc 1 322 48 is_stmt 0 view .LVU229
 1043 0000 10B5     		push	{r4, lr}
 1044              	.LCFI17:
 1045              		.cfi_def_cfa_offset 8
 1046              		.cfi_offset 4, -8
 1047              		.cfi_offset 14, -4
 1048 0002 82B0     		sub	sp, sp, #8
 1049              	.LCFI18:
 1050              		.cfi_def_cfa_offset 16
 1051 0004 8DF80710 		strb	r1, [sp, #7]
 322:Core/Src/main.c **** 
 1052              		.loc 1 322 50 is_stmt 1 view .LVU230
 1053 0008 4FF0FF33 		mov	r3, #-1
 1054 000c 0122     		movs	r2, #1
 1055 000e 0DF10701 		add	r1, sp, #7
 1056              	.LVL81:
 322:Core/Src/main.c **** 
 1057              		.loc 1 322 50 is_stmt 0 view .LVU231
 1058 0012 034C     		ldr	r4, .L72
 1059 0014 54F82000 		ldr	r0, [r4, r0, lsl #2]
 1060              	.LVL82:
ARM GAS  /tmp/ccB3fkfO.s 			page 31


 322:Core/Src/main.c **** 
 1061              		.loc 1 322 50 view .LVU232
 1062 0018 FFF7FEFF 		bl	HAL_UART_Transmit
 1063              	.LVL83:
 322:Core/Src/main.c **** 
 1064              		.loc 1 322 111 view .LVU233
 1065 001c 02B0     		add	sp, sp, #8
 1066              	.LCFI19:
 1067              		.cfi_def_cfa_offset 8
 1068              		@ sp needed
 1069 001e 10BD     		pop	{r4, pc}
 1070              	.L73:
 1071              		.align	2
 1072              	.L72:
 1073 0020 00000000 		.word	.LANCHOR4
 1074              		.cfi_endproc
 1075              	.LFE147:
 1077              		.section	.text.uart_write,"ax",%progbits
 1078              		.align	1
 1079              		.global	uart_write
 1080              		.syntax unified
 1081              		.thumb
 1082              		.thumb_func
 1083              		.fpu fpv4-sp-d16
 1085              	uart_write:
 1086              	.LVL84:
 1087              	.LFB148:
 333:Core/Src/main.c ****   HAL_UART_Transmit(uart_base[uart], buf, len, HAL_MAX_DELAY);
 1088              		.loc 1 333 1 is_stmt 1 view -0
 1089              		.cfi_startproc
 1090              		@ args = 0, pretend = 0, frame = 0
 1091              		@ frame_needed = 0, uses_anonymous_args = 0
 333:Core/Src/main.c ****   HAL_UART_Transmit(uart_base[uart], buf, len, HAL_MAX_DELAY);
 1092              		.loc 1 333 1 is_stmt 0 view .LVU235
 1093 0000 38B5     		push	{r3, r4, r5, lr}
 1094              	.LCFI20:
 1095              		.cfi_def_cfa_offset 16
 1096              		.cfi_offset 3, -16
 1097              		.cfi_offset 4, -12
 1098              		.cfi_offset 5, -8
 1099              		.cfi_offset 14, -4
 1100 0002 1446     		mov	r4, r2
 334:Core/Src/main.c ****   return len;
 1101              		.loc 1 334 3 is_stmt 1 view .LVU236
 1102 0004 4FF0FF33 		mov	r3, #-1
 1103 0008 92B2     		uxth	r2, r2
 1104              	.LVL85:
 334:Core/Src/main.c ****   return len;
 1105              		.loc 1 334 3 is_stmt 0 view .LVU237
 1106 000a 034D     		ldr	r5, .L76
 1107 000c 55F82000 		ldr	r0, [r5, r0, lsl #2]
 1108              	.LVL86:
 334:Core/Src/main.c ****   return len;
 1109              		.loc 1 334 3 view .LVU238
 1110 0010 FFF7FEFF 		bl	HAL_UART_Transmit
 1111              	.LVL87:
 335:Core/Src/main.c **** }
ARM GAS  /tmp/ccB3fkfO.s 			page 32


 1112              		.loc 1 335 3 is_stmt 1 view .LVU239
 336:Core/Src/main.c **** /* USER CODE END 0 */
 1113              		.loc 1 336 1 is_stmt 0 view .LVU240
 1114 0014 2046     		mov	r0, r4
 1115 0016 38BD     		pop	{r3, r4, r5, pc}
 1116              	.LVL88:
 1117              	.L77:
 336:Core/Src/main.c **** /* USER CODE END 0 */
 1118              		.loc 1 336 1 view .LVU241
 1119              		.align	2
 1120              	.L76:
 1121 0018 00000000 		.word	.LANCHOR4
 1122              		.cfi_endproc
 1123              	.LFE148:
 1125              		.section	.text.Error_Handler,"ax",%progbits
 1126              		.align	1
 1127              		.global	Error_Handler
 1128              		.syntax unified
 1129              		.thumb
 1130              		.thumb_func
 1131              		.fpu fpv4-sp-d16
 1133              	Error_Handler:
 1134              	.LFB153:
 494:Core/Src/main.c **** 
 495:Core/Src/main.c **** /* USER CODE BEGIN 4 */
 496:Core/Src/main.c **** 
 497:Core/Src/main.c **** /* USER CODE END 4 */
 498:Core/Src/main.c **** 
 499:Core/Src/main.c **** /**
 500:Core/Src/main.c ****   * @brief  This function is executed in case of error occurrence.
 501:Core/Src/main.c ****   * @retval None
 502:Core/Src/main.c ****   */
 503:Core/Src/main.c **** void Error_Handler(void)
 504:Core/Src/main.c **** {
 1135              		.loc 1 504 1 is_stmt 1 view -0
 1136              		.cfi_startproc
 1137              		@ Volatile: function does not return.
 1138              		@ args = 0, pretend = 0, frame = 0
 1139              		@ frame_needed = 0, uses_anonymous_args = 0
 1140              		@ link register save eliminated.
 505:Core/Src/main.c ****   /* USER CODE BEGIN Error_Handler_Debug */
 506:Core/Src/main.c ****   /* User can add his own implementation to report the HAL error return state */
 507:Core/Src/main.c ****   __disable_irq();
 1141              		.loc 1 507 3 view .LVU243
 1142              	.LBB10:
 1143              	.LBI10:
 1144              		.file 2 "Drivers/CMSIS/Include/cmsis_gcc.h"
   1:Drivers/CMSIS/Include/cmsis_gcc.h **** /**************************************************************************//**
   2:Drivers/CMSIS/Include/cmsis_gcc.h ****  * @file     cmsis_gcc.h
   3:Drivers/CMSIS/Include/cmsis_gcc.h ****  * @brief    CMSIS compiler GCC header file
   4:Drivers/CMSIS/Include/cmsis_gcc.h ****  * @version  V5.4.1
   5:Drivers/CMSIS/Include/cmsis_gcc.h ****  * @date     27. May 2021
   6:Drivers/CMSIS/Include/cmsis_gcc.h ****  ******************************************************************************/
   7:Drivers/CMSIS/Include/cmsis_gcc.h **** /*
   8:Drivers/CMSIS/Include/cmsis_gcc.h ****  * Copyright (c) 2009-2021 Arm Limited. All rights reserved.
   9:Drivers/CMSIS/Include/cmsis_gcc.h ****  *
  10:Drivers/CMSIS/Include/cmsis_gcc.h ****  * SPDX-License-Identifier: Apache-2.0
ARM GAS  /tmp/ccB3fkfO.s 			page 33


  11:Drivers/CMSIS/Include/cmsis_gcc.h ****  *
  12:Drivers/CMSIS/Include/cmsis_gcc.h ****  * Licensed under the Apache License, Version 2.0 (the License); you may
  13:Drivers/CMSIS/Include/cmsis_gcc.h ****  * not use this file except in compliance with the License.
  14:Drivers/CMSIS/Include/cmsis_gcc.h ****  * You may obtain a copy of the License at
  15:Drivers/CMSIS/Include/cmsis_gcc.h ****  *
  16:Drivers/CMSIS/Include/cmsis_gcc.h ****  * www.apache.org/licenses/LICENSE-2.0
  17:Drivers/CMSIS/Include/cmsis_gcc.h ****  *
  18:Drivers/CMSIS/Include/cmsis_gcc.h ****  * Unless required by applicable law or agreed to in writing, software
  19:Drivers/CMSIS/Include/cmsis_gcc.h ****  * distributed under the License is distributed on an AS IS BASIS, WITHOUT
  20:Drivers/CMSIS/Include/cmsis_gcc.h ****  * WARRANTIES OR CONDITIONS OF ANY KIND, either express or implied.
  21:Drivers/CMSIS/Include/cmsis_gcc.h ****  * See the License for the specific language governing permissions and
  22:Drivers/CMSIS/Include/cmsis_gcc.h ****  * limitations under the License.
  23:Drivers/CMSIS/Include/cmsis_gcc.h ****  */
  24:Drivers/CMSIS/Include/cmsis_gcc.h **** 
  25:Drivers/CMSIS/Include/cmsis_gcc.h **** #ifndef __CMSIS_GCC_H
  26:Drivers/CMSIS/Include/cmsis_gcc.h **** #define __CMSIS_GCC_H
  27:Drivers/CMSIS/Include/cmsis_gcc.h **** 
  28:Drivers/CMSIS/Include/cmsis_gcc.h **** /* ignore some GCC warnings */
  29:Drivers/CMSIS/Include/cmsis_gcc.h **** #pragma GCC diagnostic push
  30:Drivers/CMSIS/Include/cmsis_gcc.h **** #pragma GCC diagnostic ignored "-Wsign-conversion"
  31:Drivers/CMSIS/Include/cmsis_gcc.h **** #pragma GCC diagnostic ignored "-Wconversion"
  32:Drivers/CMSIS/Include/cmsis_gcc.h **** #pragma GCC diagnostic ignored "-Wunused-parameter"
  33:Drivers/CMSIS/Include/cmsis_gcc.h **** 
  34:Drivers/CMSIS/Include/cmsis_gcc.h **** /* Fallback for __has_builtin */
  35:Drivers/CMSIS/Include/cmsis_gcc.h **** #ifndef __has_builtin
  36:Drivers/CMSIS/Include/cmsis_gcc.h ****   #define __has_builtin(x) (0)
  37:Drivers/CMSIS/Include/cmsis_gcc.h **** #endif
  38:Drivers/CMSIS/Include/cmsis_gcc.h **** 
  39:Drivers/CMSIS/Include/cmsis_gcc.h **** /* CMSIS compiler specific defines */
  40:Drivers/CMSIS/Include/cmsis_gcc.h **** #ifndef   __ASM
  41:Drivers/CMSIS/Include/cmsis_gcc.h ****   #define __ASM                                  __asm
  42:Drivers/CMSIS/Include/cmsis_gcc.h **** #endif
  43:Drivers/CMSIS/Include/cmsis_gcc.h **** #ifndef   __INLINE
  44:Drivers/CMSIS/Include/cmsis_gcc.h ****   #define __INLINE                               inline
  45:Drivers/CMSIS/Include/cmsis_gcc.h **** #endif
  46:Drivers/CMSIS/Include/cmsis_gcc.h **** #ifndef   __STATIC_INLINE
  47:Drivers/CMSIS/Include/cmsis_gcc.h ****   #define __STATIC_INLINE                        static inline
  48:Drivers/CMSIS/Include/cmsis_gcc.h **** #endif
  49:Drivers/CMSIS/Include/cmsis_gcc.h **** #ifndef   __STATIC_FORCEINLINE
  50:Drivers/CMSIS/Include/cmsis_gcc.h ****   #define __STATIC_FORCEINLINE                   __attribute__((always_inline)) static inline
  51:Drivers/CMSIS/Include/cmsis_gcc.h **** #endif
  52:Drivers/CMSIS/Include/cmsis_gcc.h **** #ifndef   __NO_RETURN
  53:Drivers/CMSIS/Include/cmsis_gcc.h ****   #define __NO_RETURN                            __attribute__((__noreturn__))
  54:Drivers/CMSIS/Include/cmsis_gcc.h **** #endif
  55:Drivers/CMSIS/Include/cmsis_gcc.h **** #ifndef   __USED
  56:Drivers/CMSIS/Include/cmsis_gcc.h ****   #define __USED                                 __attribute__((used))
  57:Drivers/CMSIS/Include/cmsis_gcc.h **** #endif
  58:Drivers/CMSIS/Include/cmsis_gcc.h **** #ifndef   __WEAK
  59:Drivers/CMSIS/Include/cmsis_gcc.h ****   #define __WEAK                                 __attribute__((weak))
  60:Drivers/CMSIS/Include/cmsis_gcc.h **** #endif
  61:Drivers/CMSIS/Include/cmsis_gcc.h **** #ifndef   __PACKED
  62:Drivers/CMSIS/Include/cmsis_gcc.h ****   #define __PACKED                               __attribute__((packed, aligned(1)))
  63:Drivers/CMSIS/Include/cmsis_gcc.h **** #endif
  64:Drivers/CMSIS/Include/cmsis_gcc.h **** #ifndef   __PACKED_STRUCT
  65:Drivers/CMSIS/Include/cmsis_gcc.h ****   #define __PACKED_STRUCT                        struct __attribute__((packed, aligned(1)))
  66:Drivers/CMSIS/Include/cmsis_gcc.h **** #endif
  67:Drivers/CMSIS/Include/cmsis_gcc.h **** #ifndef   __PACKED_UNION
ARM GAS  /tmp/ccB3fkfO.s 			page 34


  68:Drivers/CMSIS/Include/cmsis_gcc.h ****   #define __PACKED_UNION                         union __attribute__((packed, aligned(1)))
  69:Drivers/CMSIS/Include/cmsis_gcc.h **** #endif
  70:Drivers/CMSIS/Include/cmsis_gcc.h **** #ifndef   __UNALIGNED_UINT32        /* deprecated */
  71:Drivers/CMSIS/Include/cmsis_gcc.h ****   #pragma GCC diagnostic push
  72:Drivers/CMSIS/Include/cmsis_gcc.h ****   #pragma GCC diagnostic ignored "-Wpacked"
  73:Drivers/CMSIS/Include/cmsis_gcc.h ****   #pragma GCC diagnostic ignored "-Wattributes"
  74:Drivers/CMSIS/Include/cmsis_gcc.h ****   struct __attribute__((packed)) T_UINT32 { uint32_t v; };
  75:Drivers/CMSIS/Include/cmsis_gcc.h ****   #pragma GCC diagnostic pop
  76:Drivers/CMSIS/Include/cmsis_gcc.h ****   #define __UNALIGNED_UINT32(x)                  (((struct T_UINT32 *)(x))->v)
  77:Drivers/CMSIS/Include/cmsis_gcc.h **** #endif
  78:Drivers/CMSIS/Include/cmsis_gcc.h **** #ifndef   __UNALIGNED_UINT16_WRITE
  79:Drivers/CMSIS/Include/cmsis_gcc.h ****   #pragma GCC diagnostic push
  80:Drivers/CMSIS/Include/cmsis_gcc.h ****   #pragma GCC diagnostic ignored "-Wpacked"
  81:Drivers/CMSIS/Include/cmsis_gcc.h ****   #pragma GCC diagnostic ignored "-Wattributes"
  82:Drivers/CMSIS/Include/cmsis_gcc.h ****   __PACKED_STRUCT T_UINT16_WRITE { uint16_t v; };
  83:Drivers/CMSIS/Include/cmsis_gcc.h ****   #pragma GCC diagnostic pop
  84:Drivers/CMSIS/Include/cmsis_gcc.h ****   #define __UNALIGNED_UINT16_WRITE(addr, val)    (void)((((struct T_UINT16_WRITE *)(void *)(addr))-
  85:Drivers/CMSIS/Include/cmsis_gcc.h **** #endif
  86:Drivers/CMSIS/Include/cmsis_gcc.h **** #ifndef   __UNALIGNED_UINT16_READ
  87:Drivers/CMSIS/Include/cmsis_gcc.h ****   #pragma GCC diagnostic push
  88:Drivers/CMSIS/Include/cmsis_gcc.h ****   #pragma GCC diagnostic ignored "-Wpacked"
  89:Drivers/CMSIS/Include/cmsis_gcc.h ****   #pragma GCC diagnostic ignored "-Wattributes"
  90:Drivers/CMSIS/Include/cmsis_gcc.h ****   __PACKED_STRUCT T_UINT16_READ { uint16_t v; };
  91:Drivers/CMSIS/Include/cmsis_gcc.h ****   #pragma GCC diagnostic pop
  92:Drivers/CMSIS/Include/cmsis_gcc.h ****   #define __UNALIGNED_UINT16_READ(addr)          (((const struct T_UINT16_READ *)(const void *)(add
  93:Drivers/CMSIS/Include/cmsis_gcc.h **** #endif
  94:Drivers/CMSIS/Include/cmsis_gcc.h **** #ifndef   __UNALIGNED_UINT32_WRITE
  95:Drivers/CMSIS/Include/cmsis_gcc.h ****   #pragma GCC diagnostic push
  96:Drivers/CMSIS/Include/cmsis_gcc.h ****   #pragma GCC diagnostic ignored "-Wpacked"
  97:Drivers/CMSIS/Include/cmsis_gcc.h ****   #pragma GCC diagnostic ignored "-Wattributes"
  98:Drivers/CMSIS/Include/cmsis_gcc.h ****   __PACKED_STRUCT T_UINT32_WRITE { uint32_t v; };
  99:Drivers/CMSIS/Include/cmsis_gcc.h ****   #pragma GCC diagnostic pop
 100:Drivers/CMSIS/Include/cmsis_gcc.h ****   #define __UNALIGNED_UINT32_WRITE(addr, val)    (void)((((struct T_UINT32_WRITE *)(void *)(addr))-
 101:Drivers/CMSIS/Include/cmsis_gcc.h **** #endif
 102:Drivers/CMSIS/Include/cmsis_gcc.h **** #ifndef   __UNALIGNED_UINT32_READ
 103:Drivers/CMSIS/Include/cmsis_gcc.h ****   #pragma GCC diagnostic push
 104:Drivers/CMSIS/Include/cmsis_gcc.h ****   #pragma GCC diagnostic ignored "-Wpacked"
 105:Drivers/CMSIS/Include/cmsis_gcc.h ****   #pragma GCC diagnostic ignored "-Wattributes"
 106:Drivers/CMSIS/Include/cmsis_gcc.h ****   __PACKED_STRUCT T_UINT32_READ { uint32_t v; };
 107:Drivers/CMSIS/Include/cmsis_gcc.h ****   #pragma GCC diagnostic pop
 108:Drivers/CMSIS/Include/cmsis_gcc.h ****   #define __UNALIGNED_UINT32_READ(addr)          (((const struct T_UINT32_READ *)(const void *)(add
 109:Drivers/CMSIS/Include/cmsis_gcc.h **** #endif
 110:Drivers/CMSIS/Include/cmsis_gcc.h **** #ifndef   __ALIGNED
 111:Drivers/CMSIS/Include/cmsis_gcc.h ****   #define __ALIGNED(x)                           __attribute__((aligned(x)))
 112:Drivers/CMSIS/Include/cmsis_gcc.h **** #endif
 113:Drivers/CMSIS/Include/cmsis_gcc.h **** #ifndef   __RESTRICT
 114:Drivers/CMSIS/Include/cmsis_gcc.h ****   #define __RESTRICT                             __restrict
 115:Drivers/CMSIS/Include/cmsis_gcc.h **** #endif
 116:Drivers/CMSIS/Include/cmsis_gcc.h **** #ifndef   __COMPILER_BARRIER
 117:Drivers/CMSIS/Include/cmsis_gcc.h ****   #define __COMPILER_BARRIER()                   __ASM volatile("":::"memory")
 118:Drivers/CMSIS/Include/cmsis_gcc.h **** #endif
 119:Drivers/CMSIS/Include/cmsis_gcc.h **** 
 120:Drivers/CMSIS/Include/cmsis_gcc.h **** /* #########################  Startup and Lowlevel Init  ######################## */
 121:Drivers/CMSIS/Include/cmsis_gcc.h **** 
 122:Drivers/CMSIS/Include/cmsis_gcc.h **** #ifndef __PROGRAM_START
 123:Drivers/CMSIS/Include/cmsis_gcc.h **** 
 124:Drivers/CMSIS/Include/cmsis_gcc.h **** /**
ARM GAS  /tmp/ccB3fkfO.s 			page 35


 125:Drivers/CMSIS/Include/cmsis_gcc.h ****   \brief   Initializes data and bss sections
 126:Drivers/CMSIS/Include/cmsis_gcc.h ****   \details This default implementations initialized all data and additional bss
 127:Drivers/CMSIS/Include/cmsis_gcc.h ****            sections relying on .copy.table and .zero.table specified properly
 128:Drivers/CMSIS/Include/cmsis_gcc.h ****            in the used linker script.
 129:Drivers/CMSIS/Include/cmsis_gcc.h **** 
 130:Drivers/CMSIS/Include/cmsis_gcc.h ****  */
 131:Drivers/CMSIS/Include/cmsis_gcc.h **** __STATIC_FORCEINLINE __NO_RETURN void __cmsis_start(void)
 132:Drivers/CMSIS/Include/cmsis_gcc.h **** {
 133:Drivers/CMSIS/Include/cmsis_gcc.h ****   extern void _start(void) __NO_RETURN;
 134:Drivers/CMSIS/Include/cmsis_gcc.h **** 
 135:Drivers/CMSIS/Include/cmsis_gcc.h ****   typedef struct {
 136:Drivers/CMSIS/Include/cmsis_gcc.h ****     uint32_t const* src;
 137:Drivers/CMSIS/Include/cmsis_gcc.h ****     uint32_t* dest;
 138:Drivers/CMSIS/Include/cmsis_gcc.h ****     uint32_t  wlen;
 139:Drivers/CMSIS/Include/cmsis_gcc.h ****   } __copy_table_t;
 140:Drivers/CMSIS/Include/cmsis_gcc.h **** 
 141:Drivers/CMSIS/Include/cmsis_gcc.h ****   typedef struct {
 142:Drivers/CMSIS/Include/cmsis_gcc.h ****     uint32_t* dest;
 143:Drivers/CMSIS/Include/cmsis_gcc.h ****     uint32_t  wlen;
 144:Drivers/CMSIS/Include/cmsis_gcc.h ****   } __zero_table_t;
 145:Drivers/CMSIS/Include/cmsis_gcc.h **** 
 146:Drivers/CMSIS/Include/cmsis_gcc.h ****   extern const __copy_table_t __copy_table_start__;
 147:Drivers/CMSIS/Include/cmsis_gcc.h ****   extern const __copy_table_t __copy_table_end__;
 148:Drivers/CMSIS/Include/cmsis_gcc.h ****   extern const __zero_table_t __zero_table_start__;
 149:Drivers/CMSIS/Include/cmsis_gcc.h ****   extern const __zero_table_t __zero_table_end__;
 150:Drivers/CMSIS/Include/cmsis_gcc.h **** 
 151:Drivers/CMSIS/Include/cmsis_gcc.h ****   for (__copy_table_t const* pTable = &__copy_table_start__; pTable < &__copy_table_end__; ++pTable
 152:Drivers/CMSIS/Include/cmsis_gcc.h ****     for(uint32_t i=0u; i<pTable->wlen; ++i) {
 153:Drivers/CMSIS/Include/cmsis_gcc.h ****       pTable->dest[i] = pTable->src[i];
 154:Drivers/CMSIS/Include/cmsis_gcc.h ****     }
 155:Drivers/CMSIS/Include/cmsis_gcc.h ****   }
 156:Drivers/CMSIS/Include/cmsis_gcc.h **** 
 157:Drivers/CMSIS/Include/cmsis_gcc.h ****   for (__zero_table_t const* pTable = &__zero_table_start__; pTable < &__zero_table_end__; ++pTable
 158:Drivers/CMSIS/Include/cmsis_gcc.h ****     for(uint32_t i=0u; i<pTable->wlen; ++i) {
 159:Drivers/CMSIS/Include/cmsis_gcc.h ****       pTable->dest[i] = 0u;
 160:Drivers/CMSIS/Include/cmsis_gcc.h ****     }
 161:Drivers/CMSIS/Include/cmsis_gcc.h ****   }
 162:Drivers/CMSIS/Include/cmsis_gcc.h **** 
 163:Drivers/CMSIS/Include/cmsis_gcc.h ****   _start();
 164:Drivers/CMSIS/Include/cmsis_gcc.h **** }
 165:Drivers/CMSIS/Include/cmsis_gcc.h **** 
 166:Drivers/CMSIS/Include/cmsis_gcc.h **** #define __PROGRAM_START           __cmsis_start
 167:Drivers/CMSIS/Include/cmsis_gcc.h **** #endif
 168:Drivers/CMSIS/Include/cmsis_gcc.h **** 
 169:Drivers/CMSIS/Include/cmsis_gcc.h **** #ifndef __INITIAL_SP
 170:Drivers/CMSIS/Include/cmsis_gcc.h **** #define __INITIAL_SP              __StackTop
 171:Drivers/CMSIS/Include/cmsis_gcc.h **** #endif
 172:Drivers/CMSIS/Include/cmsis_gcc.h **** 
 173:Drivers/CMSIS/Include/cmsis_gcc.h **** #ifndef __STACK_LIMIT
 174:Drivers/CMSIS/Include/cmsis_gcc.h **** #define __STACK_LIMIT             __StackLimit
 175:Drivers/CMSIS/Include/cmsis_gcc.h **** #endif
 176:Drivers/CMSIS/Include/cmsis_gcc.h **** 
 177:Drivers/CMSIS/Include/cmsis_gcc.h **** #ifndef __VECTOR_TABLE
 178:Drivers/CMSIS/Include/cmsis_gcc.h **** #define __VECTOR_TABLE            __Vectors
 179:Drivers/CMSIS/Include/cmsis_gcc.h **** #endif
 180:Drivers/CMSIS/Include/cmsis_gcc.h **** 
 181:Drivers/CMSIS/Include/cmsis_gcc.h **** #ifndef __VECTOR_TABLE_ATTRIBUTE
ARM GAS  /tmp/ccB3fkfO.s 			page 36


 182:Drivers/CMSIS/Include/cmsis_gcc.h **** #define __VECTOR_TABLE_ATTRIBUTE  __attribute__((used, section(".vectors")))
 183:Drivers/CMSIS/Include/cmsis_gcc.h **** #endif
 184:Drivers/CMSIS/Include/cmsis_gcc.h **** 
 185:Drivers/CMSIS/Include/cmsis_gcc.h **** #if defined (__ARM_FEATURE_CMSE) && (__ARM_FEATURE_CMSE == 3U)
 186:Drivers/CMSIS/Include/cmsis_gcc.h **** #ifndef __STACK_SEAL
 187:Drivers/CMSIS/Include/cmsis_gcc.h **** #define __STACK_SEAL              __StackSeal
 188:Drivers/CMSIS/Include/cmsis_gcc.h **** #endif
 189:Drivers/CMSIS/Include/cmsis_gcc.h **** 
 190:Drivers/CMSIS/Include/cmsis_gcc.h **** #ifndef __TZ_STACK_SEAL_SIZE
 191:Drivers/CMSIS/Include/cmsis_gcc.h **** #define __TZ_STACK_SEAL_SIZE      8U
 192:Drivers/CMSIS/Include/cmsis_gcc.h **** #endif
 193:Drivers/CMSIS/Include/cmsis_gcc.h **** 
 194:Drivers/CMSIS/Include/cmsis_gcc.h **** #ifndef __TZ_STACK_SEAL_VALUE
 195:Drivers/CMSIS/Include/cmsis_gcc.h **** #define __TZ_STACK_SEAL_VALUE     0xFEF5EDA5FEF5EDA5ULL
 196:Drivers/CMSIS/Include/cmsis_gcc.h **** #endif
 197:Drivers/CMSIS/Include/cmsis_gcc.h **** 
 198:Drivers/CMSIS/Include/cmsis_gcc.h **** 
 199:Drivers/CMSIS/Include/cmsis_gcc.h **** __STATIC_FORCEINLINE void __TZ_set_STACKSEAL_S (uint32_t* stackTop) {
 200:Drivers/CMSIS/Include/cmsis_gcc.h ****   *((uint64_t *)stackTop) = __TZ_STACK_SEAL_VALUE;
 201:Drivers/CMSIS/Include/cmsis_gcc.h **** }
 202:Drivers/CMSIS/Include/cmsis_gcc.h **** #endif
 203:Drivers/CMSIS/Include/cmsis_gcc.h **** 
 204:Drivers/CMSIS/Include/cmsis_gcc.h **** 
 205:Drivers/CMSIS/Include/cmsis_gcc.h **** /* ##########################  Core Instruction Access  ######################### */
 206:Drivers/CMSIS/Include/cmsis_gcc.h **** /** \defgroup CMSIS_Core_InstructionInterface CMSIS Core Instruction Interface
 207:Drivers/CMSIS/Include/cmsis_gcc.h ****   Access to dedicated instructions
 208:Drivers/CMSIS/Include/cmsis_gcc.h ****   @{
 209:Drivers/CMSIS/Include/cmsis_gcc.h **** */
 210:Drivers/CMSIS/Include/cmsis_gcc.h **** 
 211:Drivers/CMSIS/Include/cmsis_gcc.h **** /* Define macros for porting to both thumb1 and thumb2.
 212:Drivers/CMSIS/Include/cmsis_gcc.h ****  * For thumb1, use low register (r0-r7), specified by constraint "l"
 213:Drivers/CMSIS/Include/cmsis_gcc.h ****  * Otherwise, use general registers, specified by constraint "r" */
 214:Drivers/CMSIS/Include/cmsis_gcc.h **** #if defined (__thumb__) && !defined (__thumb2__)
 215:Drivers/CMSIS/Include/cmsis_gcc.h **** #define __CMSIS_GCC_OUT_REG(r) "=l" (r)
 216:Drivers/CMSIS/Include/cmsis_gcc.h **** #define __CMSIS_GCC_RW_REG(r) "+l" (r)
 217:Drivers/CMSIS/Include/cmsis_gcc.h **** #define __CMSIS_GCC_USE_REG(r) "l" (r)
 218:Drivers/CMSIS/Include/cmsis_gcc.h **** #else
 219:Drivers/CMSIS/Include/cmsis_gcc.h **** #define __CMSIS_GCC_OUT_REG(r) "=r" (r)
 220:Drivers/CMSIS/Include/cmsis_gcc.h **** #define __CMSIS_GCC_RW_REG(r) "+r" (r)
 221:Drivers/CMSIS/Include/cmsis_gcc.h **** #define __CMSIS_GCC_USE_REG(r) "r" (r)
 222:Drivers/CMSIS/Include/cmsis_gcc.h **** #endif
 223:Drivers/CMSIS/Include/cmsis_gcc.h **** 
 224:Drivers/CMSIS/Include/cmsis_gcc.h **** /**
 225:Drivers/CMSIS/Include/cmsis_gcc.h ****   \brief   No Operation
 226:Drivers/CMSIS/Include/cmsis_gcc.h ****   \details No Operation does nothing. This instruction can be used for code alignment purposes.
 227:Drivers/CMSIS/Include/cmsis_gcc.h ****  */
 228:Drivers/CMSIS/Include/cmsis_gcc.h **** #define __NOP()                             __ASM volatile ("nop")
 229:Drivers/CMSIS/Include/cmsis_gcc.h **** 
 230:Drivers/CMSIS/Include/cmsis_gcc.h **** /**
 231:Drivers/CMSIS/Include/cmsis_gcc.h ****   \brief   Wait For Interrupt
 232:Drivers/CMSIS/Include/cmsis_gcc.h ****   \details Wait For Interrupt is a hint instruction that suspends execution until one of a number o
 233:Drivers/CMSIS/Include/cmsis_gcc.h ****  */
 234:Drivers/CMSIS/Include/cmsis_gcc.h **** #define __WFI()                             __ASM volatile ("wfi":::"memory")
 235:Drivers/CMSIS/Include/cmsis_gcc.h **** 
 236:Drivers/CMSIS/Include/cmsis_gcc.h **** 
 237:Drivers/CMSIS/Include/cmsis_gcc.h **** /**
 238:Drivers/CMSIS/Include/cmsis_gcc.h ****   \brief   Wait For Event
ARM GAS  /tmp/ccB3fkfO.s 			page 37


 239:Drivers/CMSIS/Include/cmsis_gcc.h ****   \details Wait For Event is a hint instruction that permits the processor to enter
 240:Drivers/CMSIS/Include/cmsis_gcc.h ****            a low-power state until one of a number of events occurs.
 241:Drivers/CMSIS/Include/cmsis_gcc.h ****  */
 242:Drivers/CMSIS/Include/cmsis_gcc.h **** #define __WFE()                             __ASM volatile ("wfe":::"memory")
 243:Drivers/CMSIS/Include/cmsis_gcc.h **** 
 244:Drivers/CMSIS/Include/cmsis_gcc.h **** 
 245:Drivers/CMSIS/Include/cmsis_gcc.h **** /**
 246:Drivers/CMSIS/Include/cmsis_gcc.h ****   \brief   Send Event
 247:Drivers/CMSIS/Include/cmsis_gcc.h ****   \details Send Event is a hint instruction. It causes an event to be signaled to the CPU.
 248:Drivers/CMSIS/Include/cmsis_gcc.h ****  */
 249:Drivers/CMSIS/Include/cmsis_gcc.h **** #define __SEV()                             __ASM volatile ("sev")
 250:Drivers/CMSIS/Include/cmsis_gcc.h **** 
 251:Drivers/CMSIS/Include/cmsis_gcc.h **** 
 252:Drivers/CMSIS/Include/cmsis_gcc.h **** /**
 253:Drivers/CMSIS/Include/cmsis_gcc.h ****   \brief   Instruction Synchronization Barrier
 254:Drivers/CMSIS/Include/cmsis_gcc.h ****   \details Instruction Synchronization Barrier flushes the pipeline in the processor,
 255:Drivers/CMSIS/Include/cmsis_gcc.h ****            so that all instructions following the ISB are fetched from cache or memory,
 256:Drivers/CMSIS/Include/cmsis_gcc.h ****            after the instruction has been completed.
 257:Drivers/CMSIS/Include/cmsis_gcc.h ****  */
 258:Drivers/CMSIS/Include/cmsis_gcc.h **** __STATIC_FORCEINLINE void __ISB(void)
 259:Drivers/CMSIS/Include/cmsis_gcc.h **** {
 260:Drivers/CMSIS/Include/cmsis_gcc.h ****   __ASM volatile ("isb 0xF":::"memory");
 261:Drivers/CMSIS/Include/cmsis_gcc.h **** }
 262:Drivers/CMSIS/Include/cmsis_gcc.h **** 
 263:Drivers/CMSIS/Include/cmsis_gcc.h **** 
 264:Drivers/CMSIS/Include/cmsis_gcc.h **** /**
 265:Drivers/CMSIS/Include/cmsis_gcc.h ****   \brief   Data Synchronization Barrier
 266:Drivers/CMSIS/Include/cmsis_gcc.h ****   \details Acts as a special kind of Data Memory Barrier.
 267:Drivers/CMSIS/Include/cmsis_gcc.h ****            It completes when all explicit memory accesses before this instruction complete.
 268:Drivers/CMSIS/Include/cmsis_gcc.h ****  */
 269:Drivers/CMSIS/Include/cmsis_gcc.h **** __STATIC_FORCEINLINE void __DSB(void)
 270:Drivers/CMSIS/Include/cmsis_gcc.h **** {
 271:Drivers/CMSIS/Include/cmsis_gcc.h ****   __ASM volatile ("dsb 0xF":::"memory");
 272:Drivers/CMSIS/Include/cmsis_gcc.h **** }
 273:Drivers/CMSIS/Include/cmsis_gcc.h **** 
 274:Drivers/CMSIS/Include/cmsis_gcc.h **** 
 275:Drivers/CMSIS/Include/cmsis_gcc.h **** /**
 276:Drivers/CMSIS/Include/cmsis_gcc.h ****   \brief   Data Memory Barrier
 277:Drivers/CMSIS/Include/cmsis_gcc.h ****   \details Ensures the apparent order of the explicit memory operations before
 278:Drivers/CMSIS/Include/cmsis_gcc.h ****            and after the instruction, without ensuring their completion.
 279:Drivers/CMSIS/Include/cmsis_gcc.h ****  */
 280:Drivers/CMSIS/Include/cmsis_gcc.h **** __STATIC_FORCEINLINE void __DMB(void)
 281:Drivers/CMSIS/Include/cmsis_gcc.h **** {
 282:Drivers/CMSIS/Include/cmsis_gcc.h ****   __ASM volatile ("dmb 0xF":::"memory");
 283:Drivers/CMSIS/Include/cmsis_gcc.h **** }
 284:Drivers/CMSIS/Include/cmsis_gcc.h **** 
 285:Drivers/CMSIS/Include/cmsis_gcc.h **** 
 286:Drivers/CMSIS/Include/cmsis_gcc.h **** /**
 287:Drivers/CMSIS/Include/cmsis_gcc.h ****   \brief   Reverse byte order (32 bit)
 288:Drivers/CMSIS/Include/cmsis_gcc.h ****   \details Reverses the byte order in unsigned integer value. For example, 0x12345678 becomes 0x785
 289:Drivers/CMSIS/Include/cmsis_gcc.h ****   \param [in]    value  Value to reverse
 290:Drivers/CMSIS/Include/cmsis_gcc.h ****   \return               Reversed value
 291:Drivers/CMSIS/Include/cmsis_gcc.h ****  */
 292:Drivers/CMSIS/Include/cmsis_gcc.h **** __STATIC_FORCEINLINE uint32_t __REV(uint32_t value)
 293:Drivers/CMSIS/Include/cmsis_gcc.h **** {
 294:Drivers/CMSIS/Include/cmsis_gcc.h **** #if (__GNUC__ > 4) || (__GNUC__ == 4 && __GNUC_MINOR__ >= 5)
 295:Drivers/CMSIS/Include/cmsis_gcc.h ****   return __builtin_bswap32(value);
ARM GAS  /tmp/ccB3fkfO.s 			page 38


 296:Drivers/CMSIS/Include/cmsis_gcc.h **** #else
 297:Drivers/CMSIS/Include/cmsis_gcc.h ****   uint32_t result;
 298:Drivers/CMSIS/Include/cmsis_gcc.h **** 
 299:Drivers/CMSIS/Include/cmsis_gcc.h ****   __ASM ("rev %0, %1" : __CMSIS_GCC_OUT_REG (result) : __CMSIS_GCC_USE_REG (value) );
 300:Drivers/CMSIS/Include/cmsis_gcc.h ****   return result;
 301:Drivers/CMSIS/Include/cmsis_gcc.h **** #endif
 302:Drivers/CMSIS/Include/cmsis_gcc.h **** }
 303:Drivers/CMSIS/Include/cmsis_gcc.h **** 
 304:Drivers/CMSIS/Include/cmsis_gcc.h **** 
 305:Drivers/CMSIS/Include/cmsis_gcc.h **** /**
 306:Drivers/CMSIS/Include/cmsis_gcc.h ****   \brief   Reverse byte order (16 bit)
 307:Drivers/CMSIS/Include/cmsis_gcc.h ****   \details Reverses the byte order within each halfword of a word. For example, 0x12345678 becomes 
 308:Drivers/CMSIS/Include/cmsis_gcc.h ****   \param [in]    value  Value to reverse
 309:Drivers/CMSIS/Include/cmsis_gcc.h ****   \return               Reversed value
 310:Drivers/CMSIS/Include/cmsis_gcc.h ****  */
 311:Drivers/CMSIS/Include/cmsis_gcc.h **** __STATIC_FORCEINLINE uint32_t __REV16(uint32_t value)
 312:Drivers/CMSIS/Include/cmsis_gcc.h **** {
 313:Drivers/CMSIS/Include/cmsis_gcc.h ****   uint32_t result;
 314:Drivers/CMSIS/Include/cmsis_gcc.h **** 
 315:Drivers/CMSIS/Include/cmsis_gcc.h ****   __ASM ("rev16 %0, %1" : __CMSIS_GCC_OUT_REG (result) : __CMSIS_GCC_USE_REG (value) );
 316:Drivers/CMSIS/Include/cmsis_gcc.h ****   return result;
 317:Drivers/CMSIS/Include/cmsis_gcc.h **** }
 318:Drivers/CMSIS/Include/cmsis_gcc.h **** 
 319:Drivers/CMSIS/Include/cmsis_gcc.h **** 
 320:Drivers/CMSIS/Include/cmsis_gcc.h **** /**
 321:Drivers/CMSIS/Include/cmsis_gcc.h ****   \brief   Reverse byte order (16 bit)
 322:Drivers/CMSIS/Include/cmsis_gcc.h ****   \details Reverses the byte order in a 16-bit value and returns the signed 16-bit result. For exam
 323:Drivers/CMSIS/Include/cmsis_gcc.h ****   \param [in]    value  Value to reverse
 324:Drivers/CMSIS/Include/cmsis_gcc.h ****   \return               Reversed value
 325:Drivers/CMSIS/Include/cmsis_gcc.h ****  */
 326:Drivers/CMSIS/Include/cmsis_gcc.h **** __STATIC_FORCEINLINE int16_t __REVSH(int16_t value)
 327:Drivers/CMSIS/Include/cmsis_gcc.h **** {
 328:Drivers/CMSIS/Include/cmsis_gcc.h **** #if (__GNUC__ > 4) || (__GNUC__ == 4 && __GNUC_MINOR__ >= 8)
 329:Drivers/CMSIS/Include/cmsis_gcc.h ****   return (int16_t)__builtin_bswap16(value);
 330:Drivers/CMSIS/Include/cmsis_gcc.h **** #else
 331:Drivers/CMSIS/Include/cmsis_gcc.h ****   int16_t result;
 332:Drivers/CMSIS/Include/cmsis_gcc.h **** 
 333:Drivers/CMSIS/Include/cmsis_gcc.h ****   __ASM ("revsh %0, %1" : __CMSIS_GCC_OUT_REG (result) : __CMSIS_GCC_USE_REG (value) );
 334:Drivers/CMSIS/Include/cmsis_gcc.h ****   return result;
 335:Drivers/CMSIS/Include/cmsis_gcc.h **** #endif
 336:Drivers/CMSIS/Include/cmsis_gcc.h **** }
 337:Drivers/CMSIS/Include/cmsis_gcc.h **** 
 338:Drivers/CMSIS/Include/cmsis_gcc.h **** 
 339:Drivers/CMSIS/Include/cmsis_gcc.h **** /**
 340:Drivers/CMSIS/Include/cmsis_gcc.h ****   \brief   Rotate Right in unsigned value (32 bit)
 341:Drivers/CMSIS/Include/cmsis_gcc.h ****   \details Rotate Right (immediate) provides the value of the contents of a register rotated by a v
 342:Drivers/CMSIS/Include/cmsis_gcc.h ****   \param [in]    op1  Value to rotate
 343:Drivers/CMSIS/Include/cmsis_gcc.h ****   \param [in]    op2  Number of Bits to rotate
 344:Drivers/CMSIS/Include/cmsis_gcc.h ****   \return               Rotated value
 345:Drivers/CMSIS/Include/cmsis_gcc.h ****  */
 346:Drivers/CMSIS/Include/cmsis_gcc.h **** __STATIC_FORCEINLINE uint32_t __ROR(uint32_t op1, uint32_t op2)
 347:Drivers/CMSIS/Include/cmsis_gcc.h **** {
 348:Drivers/CMSIS/Include/cmsis_gcc.h ****   op2 %= 32U;
 349:Drivers/CMSIS/Include/cmsis_gcc.h ****   if (op2 == 0U)
 350:Drivers/CMSIS/Include/cmsis_gcc.h ****   {
 351:Drivers/CMSIS/Include/cmsis_gcc.h ****     return op1;
 352:Drivers/CMSIS/Include/cmsis_gcc.h ****   }
ARM GAS  /tmp/ccB3fkfO.s 			page 39


 353:Drivers/CMSIS/Include/cmsis_gcc.h ****   return (op1 >> op2) | (op1 << (32U - op2));
 354:Drivers/CMSIS/Include/cmsis_gcc.h **** }
 355:Drivers/CMSIS/Include/cmsis_gcc.h **** 
 356:Drivers/CMSIS/Include/cmsis_gcc.h **** 
 357:Drivers/CMSIS/Include/cmsis_gcc.h **** /**
 358:Drivers/CMSIS/Include/cmsis_gcc.h ****   \brief   Breakpoint
 359:Drivers/CMSIS/Include/cmsis_gcc.h ****   \details Causes the processor to enter Debug state.
 360:Drivers/CMSIS/Include/cmsis_gcc.h ****            Debug tools can use this to investigate system state when the instruction at a particula
 361:Drivers/CMSIS/Include/cmsis_gcc.h ****   \param [in]    value  is ignored by the processor.
 362:Drivers/CMSIS/Include/cmsis_gcc.h ****                  If required, a debugger can use it to store additional information about the break
 363:Drivers/CMSIS/Include/cmsis_gcc.h ****  */
 364:Drivers/CMSIS/Include/cmsis_gcc.h **** #define __BKPT(value)                       __ASM volatile ("bkpt "#value)
 365:Drivers/CMSIS/Include/cmsis_gcc.h **** 
 366:Drivers/CMSIS/Include/cmsis_gcc.h **** 
 367:Drivers/CMSIS/Include/cmsis_gcc.h **** /**
 368:Drivers/CMSIS/Include/cmsis_gcc.h ****   \brief   Reverse bit order of value
 369:Drivers/CMSIS/Include/cmsis_gcc.h ****   \details Reverses the bit order of the given value.
 370:Drivers/CMSIS/Include/cmsis_gcc.h ****   \param [in]    value  Value to reverse
 371:Drivers/CMSIS/Include/cmsis_gcc.h ****   \return               Reversed value
 372:Drivers/CMSIS/Include/cmsis_gcc.h ****  */
 373:Drivers/CMSIS/Include/cmsis_gcc.h **** __STATIC_FORCEINLINE uint32_t __RBIT(uint32_t value)
 374:Drivers/CMSIS/Include/cmsis_gcc.h **** {
 375:Drivers/CMSIS/Include/cmsis_gcc.h ****   uint32_t result;
 376:Drivers/CMSIS/Include/cmsis_gcc.h **** 
 377:Drivers/CMSIS/Include/cmsis_gcc.h **** #if ((defined (__ARM_ARCH_7M__      ) && (__ARM_ARCH_7M__      == 1)) || \
 378:Drivers/CMSIS/Include/cmsis_gcc.h ****      (defined (__ARM_ARCH_7EM__     ) && (__ARM_ARCH_7EM__     == 1)) || \
 379:Drivers/CMSIS/Include/cmsis_gcc.h ****      (defined (__ARM_ARCH_8M_MAIN__ ) && (__ARM_ARCH_8M_MAIN__ == 1))    )
 380:Drivers/CMSIS/Include/cmsis_gcc.h ****    __ASM ("rbit %0, %1" : "=r" (result) : "r" (value) );
 381:Drivers/CMSIS/Include/cmsis_gcc.h **** #else
 382:Drivers/CMSIS/Include/cmsis_gcc.h ****   uint32_t s = (4U /*sizeof(v)*/ * 8U) - 1U; /* extra shift needed at end */
 383:Drivers/CMSIS/Include/cmsis_gcc.h **** 
 384:Drivers/CMSIS/Include/cmsis_gcc.h ****   result = value;                      /* r will be reversed bits of v; first get LSB of v */
 385:Drivers/CMSIS/Include/cmsis_gcc.h ****   for (value >>= 1U; value != 0U; value >>= 1U)
 386:Drivers/CMSIS/Include/cmsis_gcc.h ****   {
 387:Drivers/CMSIS/Include/cmsis_gcc.h ****     result <<= 1U;
 388:Drivers/CMSIS/Include/cmsis_gcc.h ****     result |= value & 1U;
 389:Drivers/CMSIS/Include/cmsis_gcc.h ****     s--;
 390:Drivers/CMSIS/Include/cmsis_gcc.h ****   }
 391:Drivers/CMSIS/Include/cmsis_gcc.h ****   result <<= s;                        /* shift when v's highest bits are zero */
 392:Drivers/CMSIS/Include/cmsis_gcc.h **** #endif
 393:Drivers/CMSIS/Include/cmsis_gcc.h ****   return result;
 394:Drivers/CMSIS/Include/cmsis_gcc.h **** }
 395:Drivers/CMSIS/Include/cmsis_gcc.h **** 
 396:Drivers/CMSIS/Include/cmsis_gcc.h **** 
 397:Drivers/CMSIS/Include/cmsis_gcc.h **** /**
 398:Drivers/CMSIS/Include/cmsis_gcc.h ****   \brief   Count leading zeros
 399:Drivers/CMSIS/Include/cmsis_gcc.h ****   \details Counts the number of leading zeros of a data value.
 400:Drivers/CMSIS/Include/cmsis_gcc.h ****   \param [in]  value  Value to count the leading zeros
 401:Drivers/CMSIS/Include/cmsis_gcc.h ****   \return             number of leading zeros in value
 402:Drivers/CMSIS/Include/cmsis_gcc.h ****  */
 403:Drivers/CMSIS/Include/cmsis_gcc.h **** __STATIC_FORCEINLINE uint8_t __CLZ(uint32_t value)
 404:Drivers/CMSIS/Include/cmsis_gcc.h **** {
 405:Drivers/CMSIS/Include/cmsis_gcc.h ****   /* Even though __builtin_clz produces a CLZ instruction on ARM, formally
 406:Drivers/CMSIS/Include/cmsis_gcc.h ****      __builtin_clz(0) is undefined behaviour, so handle this case specially.
 407:Drivers/CMSIS/Include/cmsis_gcc.h ****      This guarantees ARM-compatible results if happening to compile on a non-ARM
 408:Drivers/CMSIS/Include/cmsis_gcc.h ****      target, and ensures the compiler doesn't decide to activate any
 409:Drivers/CMSIS/Include/cmsis_gcc.h ****      optimisations using the logic "value was passed to __builtin_clz, so it
ARM GAS  /tmp/ccB3fkfO.s 			page 40


 410:Drivers/CMSIS/Include/cmsis_gcc.h ****      is non-zero".
 411:Drivers/CMSIS/Include/cmsis_gcc.h ****      ARM GCC 7.3 and possibly earlier will optimise this test away, leaving a
 412:Drivers/CMSIS/Include/cmsis_gcc.h ****      single CLZ instruction.
 413:Drivers/CMSIS/Include/cmsis_gcc.h ****    */
 414:Drivers/CMSIS/Include/cmsis_gcc.h ****   if (value == 0U)
 415:Drivers/CMSIS/Include/cmsis_gcc.h ****   {
 416:Drivers/CMSIS/Include/cmsis_gcc.h ****     return 32U;
 417:Drivers/CMSIS/Include/cmsis_gcc.h ****   }
 418:Drivers/CMSIS/Include/cmsis_gcc.h ****   return __builtin_clz(value);
 419:Drivers/CMSIS/Include/cmsis_gcc.h **** }
 420:Drivers/CMSIS/Include/cmsis_gcc.h **** 
 421:Drivers/CMSIS/Include/cmsis_gcc.h **** 
 422:Drivers/CMSIS/Include/cmsis_gcc.h **** #if ((defined (__ARM_ARCH_7M__      ) && (__ARM_ARCH_7M__      == 1)) || \
 423:Drivers/CMSIS/Include/cmsis_gcc.h ****      (defined (__ARM_ARCH_7EM__     ) && (__ARM_ARCH_7EM__     == 1)) || \
 424:Drivers/CMSIS/Include/cmsis_gcc.h ****      (defined (__ARM_ARCH_8M_MAIN__ ) && (__ARM_ARCH_8M_MAIN__ == 1)) || \
 425:Drivers/CMSIS/Include/cmsis_gcc.h ****      (defined (__ARM_ARCH_8M_BASE__ ) && (__ARM_ARCH_8M_BASE__ == 1))    )
 426:Drivers/CMSIS/Include/cmsis_gcc.h **** /**
 427:Drivers/CMSIS/Include/cmsis_gcc.h ****   \brief   LDR Exclusive (8 bit)
 428:Drivers/CMSIS/Include/cmsis_gcc.h ****   \details Executes a exclusive LDR instruction for 8 bit value.
 429:Drivers/CMSIS/Include/cmsis_gcc.h ****   \param [in]    ptr  Pointer to data
 430:Drivers/CMSIS/Include/cmsis_gcc.h ****   \return             value of type uint8_t at (*ptr)
 431:Drivers/CMSIS/Include/cmsis_gcc.h ****  */
 432:Drivers/CMSIS/Include/cmsis_gcc.h **** __STATIC_FORCEINLINE uint8_t __LDREXB(volatile uint8_t *addr)
 433:Drivers/CMSIS/Include/cmsis_gcc.h **** {
 434:Drivers/CMSIS/Include/cmsis_gcc.h ****     uint32_t result;
 435:Drivers/CMSIS/Include/cmsis_gcc.h **** 
 436:Drivers/CMSIS/Include/cmsis_gcc.h **** #if (__GNUC__ > 4) || (__GNUC__ == 4 && __GNUC_MINOR__ >= 8)
 437:Drivers/CMSIS/Include/cmsis_gcc.h ****    __ASM volatile ("ldrexb %0, %1" : "=r" (result) : "Q" (*addr) );
 438:Drivers/CMSIS/Include/cmsis_gcc.h **** #else
 439:Drivers/CMSIS/Include/cmsis_gcc.h ****     /* Prior to GCC 4.8, "Q" will be expanded to [rx, #0] which is not
 440:Drivers/CMSIS/Include/cmsis_gcc.h ****        accepted by assembler. So has to use following less efficient pattern.
 441:Drivers/CMSIS/Include/cmsis_gcc.h ****     */
 442:Drivers/CMSIS/Include/cmsis_gcc.h ****    __ASM volatile ("ldrexb %0, [%1]" : "=r" (result) : "r" (addr) : "memory" );
 443:Drivers/CMSIS/Include/cmsis_gcc.h **** #endif
 444:Drivers/CMSIS/Include/cmsis_gcc.h ****    return ((uint8_t) result);    /* Add explicit type cast here */
 445:Drivers/CMSIS/Include/cmsis_gcc.h **** }
 446:Drivers/CMSIS/Include/cmsis_gcc.h **** 
 447:Drivers/CMSIS/Include/cmsis_gcc.h **** 
 448:Drivers/CMSIS/Include/cmsis_gcc.h **** /**
 449:Drivers/CMSIS/Include/cmsis_gcc.h ****   \brief   LDR Exclusive (16 bit)
 450:Drivers/CMSIS/Include/cmsis_gcc.h ****   \details Executes a exclusive LDR instruction for 16 bit values.
 451:Drivers/CMSIS/Include/cmsis_gcc.h ****   \param [in]    ptr  Pointer to data
 452:Drivers/CMSIS/Include/cmsis_gcc.h ****   \return        value of type uint16_t at (*ptr)
 453:Drivers/CMSIS/Include/cmsis_gcc.h ****  */
 454:Drivers/CMSIS/Include/cmsis_gcc.h **** __STATIC_FORCEINLINE uint16_t __LDREXH(volatile uint16_t *addr)
 455:Drivers/CMSIS/Include/cmsis_gcc.h **** {
 456:Drivers/CMSIS/Include/cmsis_gcc.h ****     uint32_t result;
 457:Drivers/CMSIS/Include/cmsis_gcc.h **** 
 458:Drivers/CMSIS/Include/cmsis_gcc.h **** #if (__GNUC__ > 4) || (__GNUC__ == 4 && __GNUC_MINOR__ >= 8)
 459:Drivers/CMSIS/Include/cmsis_gcc.h ****    __ASM volatile ("ldrexh %0, %1" : "=r" (result) : "Q" (*addr) );
 460:Drivers/CMSIS/Include/cmsis_gcc.h **** #else
 461:Drivers/CMSIS/Include/cmsis_gcc.h ****     /* Prior to GCC 4.8, "Q" will be expanded to [rx, #0] which is not
 462:Drivers/CMSIS/Include/cmsis_gcc.h ****        accepted by assembler. So has to use following less efficient pattern.
 463:Drivers/CMSIS/Include/cmsis_gcc.h ****     */
 464:Drivers/CMSIS/Include/cmsis_gcc.h ****    __ASM volatile ("ldrexh %0, [%1]" : "=r" (result) : "r" (addr) : "memory" );
 465:Drivers/CMSIS/Include/cmsis_gcc.h **** #endif
 466:Drivers/CMSIS/Include/cmsis_gcc.h ****    return ((uint16_t) result);    /* Add explicit type cast here */
ARM GAS  /tmp/ccB3fkfO.s 			page 41


 467:Drivers/CMSIS/Include/cmsis_gcc.h **** }
 468:Drivers/CMSIS/Include/cmsis_gcc.h **** 
 469:Drivers/CMSIS/Include/cmsis_gcc.h **** 
 470:Drivers/CMSIS/Include/cmsis_gcc.h **** /**
 471:Drivers/CMSIS/Include/cmsis_gcc.h ****   \brief   LDR Exclusive (32 bit)
 472:Drivers/CMSIS/Include/cmsis_gcc.h ****   \details Executes a exclusive LDR instruction for 32 bit values.
 473:Drivers/CMSIS/Include/cmsis_gcc.h ****   \param [in]    ptr  Pointer to data
 474:Drivers/CMSIS/Include/cmsis_gcc.h ****   \return        value of type uint32_t at (*ptr)
 475:Drivers/CMSIS/Include/cmsis_gcc.h ****  */
 476:Drivers/CMSIS/Include/cmsis_gcc.h **** __STATIC_FORCEINLINE uint32_t __LDREXW(volatile uint32_t *addr)
 477:Drivers/CMSIS/Include/cmsis_gcc.h **** {
 478:Drivers/CMSIS/Include/cmsis_gcc.h ****     uint32_t result;
 479:Drivers/CMSIS/Include/cmsis_gcc.h **** 
 480:Drivers/CMSIS/Include/cmsis_gcc.h ****    __ASM volatile ("ldrex %0, %1" : "=r" (result) : "Q" (*addr) );
 481:Drivers/CMSIS/Include/cmsis_gcc.h ****    return(result);
 482:Drivers/CMSIS/Include/cmsis_gcc.h **** }
 483:Drivers/CMSIS/Include/cmsis_gcc.h **** 
 484:Drivers/CMSIS/Include/cmsis_gcc.h **** 
 485:Drivers/CMSIS/Include/cmsis_gcc.h **** /**
 486:Drivers/CMSIS/Include/cmsis_gcc.h ****   \brief   STR Exclusive (8 bit)
 487:Drivers/CMSIS/Include/cmsis_gcc.h ****   \details Executes a exclusive STR instruction for 8 bit values.
 488:Drivers/CMSIS/Include/cmsis_gcc.h ****   \param [in]  value  Value to store
 489:Drivers/CMSIS/Include/cmsis_gcc.h ****   \param [in]    ptr  Pointer to location
 490:Drivers/CMSIS/Include/cmsis_gcc.h ****   \return          0  Function succeeded
 491:Drivers/CMSIS/Include/cmsis_gcc.h ****   \return          1  Function failed
 492:Drivers/CMSIS/Include/cmsis_gcc.h ****  */
 493:Drivers/CMSIS/Include/cmsis_gcc.h **** __STATIC_FORCEINLINE uint32_t __STREXB(uint8_t value, volatile uint8_t *addr)
 494:Drivers/CMSIS/Include/cmsis_gcc.h **** {
 495:Drivers/CMSIS/Include/cmsis_gcc.h ****    uint32_t result;
 496:Drivers/CMSIS/Include/cmsis_gcc.h **** 
 497:Drivers/CMSIS/Include/cmsis_gcc.h ****    __ASM volatile ("strexb %0, %2, %1" : "=&r" (result), "=Q" (*addr) : "r" ((uint32_t)value) );
 498:Drivers/CMSIS/Include/cmsis_gcc.h ****    return(result);
 499:Drivers/CMSIS/Include/cmsis_gcc.h **** }
 500:Drivers/CMSIS/Include/cmsis_gcc.h **** 
 501:Drivers/CMSIS/Include/cmsis_gcc.h **** 
 502:Drivers/CMSIS/Include/cmsis_gcc.h **** /**
 503:Drivers/CMSIS/Include/cmsis_gcc.h ****   \brief   STR Exclusive (16 bit)
 504:Drivers/CMSIS/Include/cmsis_gcc.h ****   \details Executes a exclusive STR instruction for 16 bit values.
 505:Drivers/CMSIS/Include/cmsis_gcc.h ****   \param [in]  value  Value to store
 506:Drivers/CMSIS/Include/cmsis_gcc.h ****   \param [in]    ptr  Pointer to location
 507:Drivers/CMSIS/Include/cmsis_gcc.h ****   \return          0  Function succeeded
 508:Drivers/CMSIS/Include/cmsis_gcc.h ****   \return          1  Function failed
 509:Drivers/CMSIS/Include/cmsis_gcc.h ****  */
 510:Drivers/CMSIS/Include/cmsis_gcc.h **** __STATIC_FORCEINLINE uint32_t __STREXH(uint16_t value, volatile uint16_t *addr)
 511:Drivers/CMSIS/Include/cmsis_gcc.h **** {
 512:Drivers/CMSIS/Include/cmsis_gcc.h ****    uint32_t result;
 513:Drivers/CMSIS/Include/cmsis_gcc.h **** 
 514:Drivers/CMSIS/Include/cmsis_gcc.h ****    __ASM volatile ("strexh %0, %2, %1" : "=&r" (result), "=Q" (*addr) : "r" ((uint32_t)value) );
 515:Drivers/CMSIS/Include/cmsis_gcc.h ****    return(result);
 516:Drivers/CMSIS/Include/cmsis_gcc.h **** }
 517:Drivers/CMSIS/Include/cmsis_gcc.h **** 
 518:Drivers/CMSIS/Include/cmsis_gcc.h **** 
 519:Drivers/CMSIS/Include/cmsis_gcc.h **** /**
 520:Drivers/CMSIS/Include/cmsis_gcc.h ****   \brief   STR Exclusive (32 bit)
 521:Drivers/CMSIS/Include/cmsis_gcc.h ****   \details Executes a exclusive STR instruction for 32 bit values.
 522:Drivers/CMSIS/Include/cmsis_gcc.h ****   \param [in]  value  Value to store
 523:Drivers/CMSIS/Include/cmsis_gcc.h ****   \param [in]    ptr  Pointer to location
ARM GAS  /tmp/ccB3fkfO.s 			page 42


 524:Drivers/CMSIS/Include/cmsis_gcc.h ****   \return          0  Function succeeded
 525:Drivers/CMSIS/Include/cmsis_gcc.h ****   \return          1  Function failed
 526:Drivers/CMSIS/Include/cmsis_gcc.h ****  */
 527:Drivers/CMSIS/Include/cmsis_gcc.h **** __STATIC_FORCEINLINE uint32_t __STREXW(uint32_t value, volatile uint32_t *addr)
 528:Drivers/CMSIS/Include/cmsis_gcc.h **** {
 529:Drivers/CMSIS/Include/cmsis_gcc.h ****    uint32_t result;
 530:Drivers/CMSIS/Include/cmsis_gcc.h **** 
 531:Drivers/CMSIS/Include/cmsis_gcc.h ****    __ASM volatile ("strex %0, %2, %1" : "=&r" (result), "=Q" (*addr) : "r" (value) );
 532:Drivers/CMSIS/Include/cmsis_gcc.h ****    return(result);
 533:Drivers/CMSIS/Include/cmsis_gcc.h **** }
 534:Drivers/CMSIS/Include/cmsis_gcc.h **** 
 535:Drivers/CMSIS/Include/cmsis_gcc.h **** 
 536:Drivers/CMSIS/Include/cmsis_gcc.h **** /**
 537:Drivers/CMSIS/Include/cmsis_gcc.h ****   \brief   Remove the exclusive lock
 538:Drivers/CMSIS/Include/cmsis_gcc.h ****   \details Removes the exclusive lock which is created by LDREX.
 539:Drivers/CMSIS/Include/cmsis_gcc.h ****  */
 540:Drivers/CMSIS/Include/cmsis_gcc.h **** __STATIC_FORCEINLINE void __CLREX(void)
 541:Drivers/CMSIS/Include/cmsis_gcc.h **** {
 542:Drivers/CMSIS/Include/cmsis_gcc.h ****   __ASM volatile ("clrex" ::: "memory");
 543:Drivers/CMSIS/Include/cmsis_gcc.h **** }
 544:Drivers/CMSIS/Include/cmsis_gcc.h **** 
 545:Drivers/CMSIS/Include/cmsis_gcc.h **** #endif /* ((defined (__ARM_ARCH_7M__      ) && (__ARM_ARCH_7M__      == 1)) || \
 546:Drivers/CMSIS/Include/cmsis_gcc.h ****            (defined (__ARM_ARCH_7EM__     ) && (__ARM_ARCH_7EM__     == 1)) || \
 547:Drivers/CMSIS/Include/cmsis_gcc.h ****            (defined (__ARM_ARCH_8M_MAIN__ ) && (__ARM_ARCH_8M_MAIN__ == 1)) || \
 548:Drivers/CMSIS/Include/cmsis_gcc.h ****            (defined (__ARM_ARCH_8M_BASE__ ) && (__ARM_ARCH_8M_BASE__ == 1))    ) */
 549:Drivers/CMSIS/Include/cmsis_gcc.h **** 
 550:Drivers/CMSIS/Include/cmsis_gcc.h **** 
 551:Drivers/CMSIS/Include/cmsis_gcc.h **** #if ((defined (__ARM_ARCH_7M__      ) && (__ARM_ARCH_7M__      == 1)) || \
 552:Drivers/CMSIS/Include/cmsis_gcc.h ****      (defined (__ARM_ARCH_7EM__     ) && (__ARM_ARCH_7EM__     == 1)) || \
 553:Drivers/CMSIS/Include/cmsis_gcc.h ****      (defined (__ARM_ARCH_8M_MAIN__ ) && (__ARM_ARCH_8M_MAIN__ == 1))    )
 554:Drivers/CMSIS/Include/cmsis_gcc.h **** /**
 555:Drivers/CMSIS/Include/cmsis_gcc.h ****   \brief   Signed Saturate
 556:Drivers/CMSIS/Include/cmsis_gcc.h ****   \details Saturates a signed value.
 557:Drivers/CMSIS/Include/cmsis_gcc.h ****   \param [in]  ARG1  Value to be saturated
 558:Drivers/CMSIS/Include/cmsis_gcc.h ****   \param [in]  ARG2  Bit position to saturate to (1..32)
 559:Drivers/CMSIS/Include/cmsis_gcc.h ****   \return             Saturated value
 560:Drivers/CMSIS/Include/cmsis_gcc.h ****  */
 561:Drivers/CMSIS/Include/cmsis_gcc.h **** #define __SSAT(ARG1, ARG2) \
 562:Drivers/CMSIS/Include/cmsis_gcc.h **** __extension__ \
 563:Drivers/CMSIS/Include/cmsis_gcc.h **** ({                          \
 564:Drivers/CMSIS/Include/cmsis_gcc.h ****   int32_t __RES, __ARG1 = (ARG1); \
 565:Drivers/CMSIS/Include/cmsis_gcc.h ****   __ASM volatile ("ssat %0, %1, %2" : "=r" (__RES) :  "I" (ARG2), "r" (__ARG1) : "cc" ); \
 566:Drivers/CMSIS/Include/cmsis_gcc.h ****   __RES; \
 567:Drivers/CMSIS/Include/cmsis_gcc.h ****  })
 568:Drivers/CMSIS/Include/cmsis_gcc.h **** 
 569:Drivers/CMSIS/Include/cmsis_gcc.h **** 
 570:Drivers/CMSIS/Include/cmsis_gcc.h **** /**
 571:Drivers/CMSIS/Include/cmsis_gcc.h ****   \brief   Unsigned Saturate
 572:Drivers/CMSIS/Include/cmsis_gcc.h ****   \details Saturates an unsigned value.
 573:Drivers/CMSIS/Include/cmsis_gcc.h ****   \param [in]  ARG1  Value to be saturated
 574:Drivers/CMSIS/Include/cmsis_gcc.h ****   \param [in]  ARG2  Bit position to saturate to (0..31)
 575:Drivers/CMSIS/Include/cmsis_gcc.h ****   \return             Saturated value
 576:Drivers/CMSIS/Include/cmsis_gcc.h ****  */
 577:Drivers/CMSIS/Include/cmsis_gcc.h **** #define __USAT(ARG1, ARG2) \
 578:Drivers/CMSIS/Include/cmsis_gcc.h **** __extension__ \
 579:Drivers/CMSIS/Include/cmsis_gcc.h **** ({                          \
 580:Drivers/CMSIS/Include/cmsis_gcc.h ****   uint32_t __RES, __ARG1 = (ARG1); \
ARM GAS  /tmp/ccB3fkfO.s 			page 43


 581:Drivers/CMSIS/Include/cmsis_gcc.h ****   __ASM volatile ("usat %0, %1, %2" : "=r" (__RES) :  "I" (ARG2), "r" (__ARG1) : "cc" ); \
 582:Drivers/CMSIS/Include/cmsis_gcc.h ****   __RES; \
 583:Drivers/CMSIS/Include/cmsis_gcc.h ****  })
 584:Drivers/CMSIS/Include/cmsis_gcc.h **** 
 585:Drivers/CMSIS/Include/cmsis_gcc.h **** 
 586:Drivers/CMSIS/Include/cmsis_gcc.h **** /**
 587:Drivers/CMSIS/Include/cmsis_gcc.h ****   \brief   Rotate Right with Extend (32 bit)
 588:Drivers/CMSIS/Include/cmsis_gcc.h ****   \details Moves each bit of a bitstring right by one bit.
 589:Drivers/CMSIS/Include/cmsis_gcc.h ****            The carry input is shifted in at the left end of the bitstring.
 590:Drivers/CMSIS/Include/cmsis_gcc.h ****   \param [in]    value  Value to rotate
 591:Drivers/CMSIS/Include/cmsis_gcc.h ****   \return               Rotated value
 592:Drivers/CMSIS/Include/cmsis_gcc.h ****  */
 593:Drivers/CMSIS/Include/cmsis_gcc.h **** __STATIC_FORCEINLINE uint32_t __RRX(uint32_t value)
 594:Drivers/CMSIS/Include/cmsis_gcc.h **** {
 595:Drivers/CMSIS/Include/cmsis_gcc.h ****   uint32_t result;
 596:Drivers/CMSIS/Include/cmsis_gcc.h **** 
 597:Drivers/CMSIS/Include/cmsis_gcc.h ****   __ASM volatile ("rrx %0, %1" : __CMSIS_GCC_OUT_REG (result) : __CMSIS_GCC_USE_REG (value) );
 598:Drivers/CMSIS/Include/cmsis_gcc.h ****   return(result);
 599:Drivers/CMSIS/Include/cmsis_gcc.h **** }
 600:Drivers/CMSIS/Include/cmsis_gcc.h **** 
 601:Drivers/CMSIS/Include/cmsis_gcc.h **** 
 602:Drivers/CMSIS/Include/cmsis_gcc.h **** /**
 603:Drivers/CMSIS/Include/cmsis_gcc.h ****   \brief   LDRT Unprivileged (8 bit)
 604:Drivers/CMSIS/Include/cmsis_gcc.h ****   \details Executes a Unprivileged LDRT instruction for 8 bit value.
 605:Drivers/CMSIS/Include/cmsis_gcc.h ****   \param [in]    ptr  Pointer to data
 606:Drivers/CMSIS/Include/cmsis_gcc.h ****   \return             value of type uint8_t at (*ptr)
 607:Drivers/CMSIS/Include/cmsis_gcc.h ****  */
 608:Drivers/CMSIS/Include/cmsis_gcc.h **** __STATIC_FORCEINLINE uint8_t __LDRBT(volatile uint8_t *ptr)
 609:Drivers/CMSIS/Include/cmsis_gcc.h **** {
 610:Drivers/CMSIS/Include/cmsis_gcc.h ****     uint32_t result;
 611:Drivers/CMSIS/Include/cmsis_gcc.h **** 
 612:Drivers/CMSIS/Include/cmsis_gcc.h **** #if (__GNUC__ > 4) || (__GNUC__ == 4 && __GNUC_MINOR__ >= 8)
 613:Drivers/CMSIS/Include/cmsis_gcc.h ****    __ASM volatile ("ldrbt %0, %1" : "=r" (result) : "Q" (*ptr) );
 614:Drivers/CMSIS/Include/cmsis_gcc.h **** #else
 615:Drivers/CMSIS/Include/cmsis_gcc.h ****     /* Prior to GCC 4.8, "Q" will be expanded to [rx, #0] which is not
 616:Drivers/CMSIS/Include/cmsis_gcc.h ****        accepted by assembler. So has to use following less efficient pattern.
 617:Drivers/CMSIS/Include/cmsis_gcc.h ****     */
 618:Drivers/CMSIS/Include/cmsis_gcc.h ****    __ASM volatile ("ldrbt %0, [%1]" : "=r" (result) : "r" (ptr) : "memory" );
 619:Drivers/CMSIS/Include/cmsis_gcc.h **** #endif
 620:Drivers/CMSIS/Include/cmsis_gcc.h ****    return ((uint8_t) result);    /* Add explicit type cast here */
 621:Drivers/CMSIS/Include/cmsis_gcc.h **** }
 622:Drivers/CMSIS/Include/cmsis_gcc.h **** 
 623:Drivers/CMSIS/Include/cmsis_gcc.h **** 
 624:Drivers/CMSIS/Include/cmsis_gcc.h **** /**
 625:Drivers/CMSIS/Include/cmsis_gcc.h ****   \brief   LDRT Unprivileged (16 bit)
 626:Drivers/CMSIS/Include/cmsis_gcc.h ****   \details Executes a Unprivileged LDRT instruction for 16 bit values.
 627:Drivers/CMSIS/Include/cmsis_gcc.h ****   \param [in]    ptr  Pointer to data
 628:Drivers/CMSIS/Include/cmsis_gcc.h ****   \return        value of type uint16_t at (*ptr)
 629:Drivers/CMSIS/Include/cmsis_gcc.h ****  */
 630:Drivers/CMSIS/Include/cmsis_gcc.h **** __STATIC_FORCEINLINE uint16_t __LDRHT(volatile uint16_t *ptr)
 631:Drivers/CMSIS/Include/cmsis_gcc.h **** {
 632:Drivers/CMSIS/Include/cmsis_gcc.h ****     uint32_t result;
 633:Drivers/CMSIS/Include/cmsis_gcc.h **** 
 634:Drivers/CMSIS/Include/cmsis_gcc.h **** #if (__GNUC__ > 4) || (__GNUC__ == 4 && __GNUC_MINOR__ >= 8)
 635:Drivers/CMSIS/Include/cmsis_gcc.h ****    __ASM volatile ("ldrht %0, %1" : "=r" (result) : "Q" (*ptr) );
 636:Drivers/CMSIS/Include/cmsis_gcc.h **** #else
 637:Drivers/CMSIS/Include/cmsis_gcc.h ****     /* Prior to GCC 4.8, "Q" will be expanded to [rx, #0] which is not
ARM GAS  /tmp/ccB3fkfO.s 			page 44


 638:Drivers/CMSIS/Include/cmsis_gcc.h ****        accepted by assembler. So has to use following less efficient pattern.
 639:Drivers/CMSIS/Include/cmsis_gcc.h ****     */
 640:Drivers/CMSIS/Include/cmsis_gcc.h ****    __ASM volatile ("ldrht %0, [%1]" : "=r" (result) : "r" (ptr) : "memory" );
 641:Drivers/CMSIS/Include/cmsis_gcc.h **** #endif
 642:Drivers/CMSIS/Include/cmsis_gcc.h ****    return ((uint16_t) result);    /* Add explicit type cast here */
 643:Drivers/CMSIS/Include/cmsis_gcc.h **** }
 644:Drivers/CMSIS/Include/cmsis_gcc.h **** 
 645:Drivers/CMSIS/Include/cmsis_gcc.h **** 
 646:Drivers/CMSIS/Include/cmsis_gcc.h **** /**
 647:Drivers/CMSIS/Include/cmsis_gcc.h ****   \brief   LDRT Unprivileged (32 bit)
 648:Drivers/CMSIS/Include/cmsis_gcc.h ****   \details Executes a Unprivileged LDRT instruction for 32 bit values.
 649:Drivers/CMSIS/Include/cmsis_gcc.h ****   \param [in]    ptr  Pointer to data
 650:Drivers/CMSIS/Include/cmsis_gcc.h ****   \return        value of type uint32_t at (*ptr)
 651:Drivers/CMSIS/Include/cmsis_gcc.h ****  */
 652:Drivers/CMSIS/Include/cmsis_gcc.h **** __STATIC_FORCEINLINE uint32_t __LDRT(volatile uint32_t *ptr)
 653:Drivers/CMSIS/Include/cmsis_gcc.h **** {
 654:Drivers/CMSIS/Include/cmsis_gcc.h ****     uint32_t result;
 655:Drivers/CMSIS/Include/cmsis_gcc.h **** 
 656:Drivers/CMSIS/Include/cmsis_gcc.h ****    __ASM volatile ("ldrt %0, %1" : "=r" (result) : "Q" (*ptr) );
 657:Drivers/CMSIS/Include/cmsis_gcc.h ****    return(result);
 658:Drivers/CMSIS/Include/cmsis_gcc.h **** }
 659:Drivers/CMSIS/Include/cmsis_gcc.h **** 
 660:Drivers/CMSIS/Include/cmsis_gcc.h **** 
 661:Drivers/CMSIS/Include/cmsis_gcc.h **** /**
 662:Drivers/CMSIS/Include/cmsis_gcc.h ****   \brief   STRT Unprivileged (8 bit)
 663:Drivers/CMSIS/Include/cmsis_gcc.h ****   \details Executes a Unprivileged STRT instruction for 8 bit values.
 664:Drivers/CMSIS/Include/cmsis_gcc.h ****   \param [in]  value  Value to store
 665:Drivers/CMSIS/Include/cmsis_gcc.h ****   \param [in]    ptr  Pointer to location
 666:Drivers/CMSIS/Include/cmsis_gcc.h ****  */
 667:Drivers/CMSIS/Include/cmsis_gcc.h **** __STATIC_FORCEINLINE void __STRBT(uint8_t value, volatile uint8_t *ptr)
 668:Drivers/CMSIS/Include/cmsis_gcc.h **** {
 669:Drivers/CMSIS/Include/cmsis_gcc.h ****    __ASM volatile ("strbt %1, %0" : "=Q" (*ptr) : "r" ((uint32_t)value) );
 670:Drivers/CMSIS/Include/cmsis_gcc.h **** }
 671:Drivers/CMSIS/Include/cmsis_gcc.h **** 
 672:Drivers/CMSIS/Include/cmsis_gcc.h **** 
 673:Drivers/CMSIS/Include/cmsis_gcc.h **** /**
 674:Drivers/CMSIS/Include/cmsis_gcc.h ****   \brief   STRT Unprivileged (16 bit)
 675:Drivers/CMSIS/Include/cmsis_gcc.h ****   \details Executes a Unprivileged STRT instruction for 16 bit values.
 676:Drivers/CMSIS/Include/cmsis_gcc.h ****   \param [in]  value  Value to store
 677:Drivers/CMSIS/Include/cmsis_gcc.h ****   \param [in]    ptr  Pointer to location
 678:Drivers/CMSIS/Include/cmsis_gcc.h ****  */
 679:Drivers/CMSIS/Include/cmsis_gcc.h **** __STATIC_FORCEINLINE void __STRHT(uint16_t value, volatile uint16_t *ptr)
 680:Drivers/CMSIS/Include/cmsis_gcc.h **** {
 681:Drivers/CMSIS/Include/cmsis_gcc.h ****    __ASM volatile ("strht %1, %0" : "=Q" (*ptr) : "r" ((uint32_t)value) );
 682:Drivers/CMSIS/Include/cmsis_gcc.h **** }
 683:Drivers/CMSIS/Include/cmsis_gcc.h **** 
 684:Drivers/CMSIS/Include/cmsis_gcc.h **** 
 685:Drivers/CMSIS/Include/cmsis_gcc.h **** /**
 686:Drivers/CMSIS/Include/cmsis_gcc.h ****   \brief   STRT Unprivileged (32 bit)
 687:Drivers/CMSIS/Include/cmsis_gcc.h ****   \details Executes a Unprivileged STRT instruction for 32 bit values.
 688:Drivers/CMSIS/Include/cmsis_gcc.h ****   \param [in]  value  Value to store
 689:Drivers/CMSIS/Include/cmsis_gcc.h ****   \param [in]    ptr  Pointer to location
 690:Drivers/CMSIS/Include/cmsis_gcc.h ****  */
 691:Drivers/CMSIS/Include/cmsis_gcc.h **** __STATIC_FORCEINLINE void __STRT(uint32_t value, volatile uint32_t *ptr)
 692:Drivers/CMSIS/Include/cmsis_gcc.h **** {
 693:Drivers/CMSIS/Include/cmsis_gcc.h ****    __ASM volatile ("strt %1, %0" : "=Q" (*ptr) : "r" (value) );
 694:Drivers/CMSIS/Include/cmsis_gcc.h **** }
ARM GAS  /tmp/ccB3fkfO.s 			page 45


 695:Drivers/CMSIS/Include/cmsis_gcc.h **** 
 696:Drivers/CMSIS/Include/cmsis_gcc.h **** #else  /* ((defined (__ARM_ARCH_7M__      ) && (__ARM_ARCH_7M__      == 1)) || \
 697:Drivers/CMSIS/Include/cmsis_gcc.h ****            (defined (__ARM_ARCH_7EM__     ) && (__ARM_ARCH_7EM__     == 1)) || \
 698:Drivers/CMSIS/Include/cmsis_gcc.h ****            (defined (__ARM_ARCH_8M_MAIN__ ) && (__ARM_ARCH_8M_MAIN__ == 1))    ) */
 699:Drivers/CMSIS/Include/cmsis_gcc.h **** 
 700:Drivers/CMSIS/Include/cmsis_gcc.h **** /**
 701:Drivers/CMSIS/Include/cmsis_gcc.h ****   \brief   Signed Saturate
 702:Drivers/CMSIS/Include/cmsis_gcc.h ****   \details Saturates a signed value.
 703:Drivers/CMSIS/Include/cmsis_gcc.h ****   \param [in]  value  Value to be saturated
 704:Drivers/CMSIS/Include/cmsis_gcc.h ****   \param [in]    sat  Bit position to saturate to (1..32)
 705:Drivers/CMSIS/Include/cmsis_gcc.h ****   \return             Saturated value
 706:Drivers/CMSIS/Include/cmsis_gcc.h ****  */
 707:Drivers/CMSIS/Include/cmsis_gcc.h **** __STATIC_FORCEINLINE int32_t __SSAT(int32_t val, uint32_t sat)
 708:Drivers/CMSIS/Include/cmsis_gcc.h **** {
 709:Drivers/CMSIS/Include/cmsis_gcc.h ****   if ((sat >= 1U) && (sat <= 32U))
 710:Drivers/CMSIS/Include/cmsis_gcc.h ****   {
 711:Drivers/CMSIS/Include/cmsis_gcc.h ****     const int32_t max = (int32_t)((1U << (sat - 1U)) - 1U);
 712:Drivers/CMSIS/Include/cmsis_gcc.h ****     const int32_t min = -1 - max ;
 713:Drivers/CMSIS/Include/cmsis_gcc.h ****     if (val > max)
 714:Drivers/CMSIS/Include/cmsis_gcc.h ****     {
 715:Drivers/CMSIS/Include/cmsis_gcc.h ****       return max;
 716:Drivers/CMSIS/Include/cmsis_gcc.h ****     }
 717:Drivers/CMSIS/Include/cmsis_gcc.h ****     else if (val < min)
 718:Drivers/CMSIS/Include/cmsis_gcc.h ****     {
 719:Drivers/CMSIS/Include/cmsis_gcc.h ****       return min;
 720:Drivers/CMSIS/Include/cmsis_gcc.h ****     }
 721:Drivers/CMSIS/Include/cmsis_gcc.h ****   }
 722:Drivers/CMSIS/Include/cmsis_gcc.h ****   return val;
 723:Drivers/CMSIS/Include/cmsis_gcc.h **** }
 724:Drivers/CMSIS/Include/cmsis_gcc.h **** 
 725:Drivers/CMSIS/Include/cmsis_gcc.h **** /**
 726:Drivers/CMSIS/Include/cmsis_gcc.h ****   \brief   Unsigned Saturate
 727:Drivers/CMSIS/Include/cmsis_gcc.h ****   \details Saturates an unsigned value.
 728:Drivers/CMSIS/Include/cmsis_gcc.h ****   \param [in]  value  Value to be saturated
 729:Drivers/CMSIS/Include/cmsis_gcc.h ****   \param [in]    sat  Bit position to saturate to (0..31)
 730:Drivers/CMSIS/Include/cmsis_gcc.h ****   \return             Saturated value
 731:Drivers/CMSIS/Include/cmsis_gcc.h ****  */
 732:Drivers/CMSIS/Include/cmsis_gcc.h **** __STATIC_FORCEINLINE uint32_t __USAT(int32_t val, uint32_t sat)
 733:Drivers/CMSIS/Include/cmsis_gcc.h **** {
 734:Drivers/CMSIS/Include/cmsis_gcc.h ****   if (sat <= 31U)
 735:Drivers/CMSIS/Include/cmsis_gcc.h ****   {
 736:Drivers/CMSIS/Include/cmsis_gcc.h ****     const uint32_t max = ((1U << sat) - 1U);
 737:Drivers/CMSIS/Include/cmsis_gcc.h ****     if (val > (int32_t)max)
 738:Drivers/CMSIS/Include/cmsis_gcc.h ****     {
 739:Drivers/CMSIS/Include/cmsis_gcc.h ****       return max;
 740:Drivers/CMSIS/Include/cmsis_gcc.h ****     }
 741:Drivers/CMSIS/Include/cmsis_gcc.h ****     else if (val < 0)
 742:Drivers/CMSIS/Include/cmsis_gcc.h ****     {
 743:Drivers/CMSIS/Include/cmsis_gcc.h ****       return 0U;
 744:Drivers/CMSIS/Include/cmsis_gcc.h ****     }
 745:Drivers/CMSIS/Include/cmsis_gcc.h ****   }
 746:Drivers/CMSIS/Include/cmsis_gcc.h ****   return (uint32_t)val;
 747:Drivers/CMSIS/Include/cmsis_gcc.h **** }
 748:Drivers/CMSIS/Include/cmsis_gcc.h **** 
 749:Drivers/CMSIS/Include/cmsis_gcc.h **** #endif /* ((defined (__ARM_ARCH_7M__      ) && (__ARM_ARCH_7M__      == 1)) || \
 750:Drivers/CMSIS/Include/cmsis_gcc.h ****            (defined (__ARM_ARCH_7EM__     ) && (__ARM_ARCH_7EM__     == 1)) || \
 751:Drivers/CMSIS/Include/cmsis_gcc.h ****            (defined (__ARM_ARCH_8M_MAIN__ ) && (__ARM_ARCH_8M_MAIN__ == 1))    ) */
ARM GAS  /tmp/ccB3fkfO.s 			page 46


 752:Drivers/CMSIS/Include/cmsis_gcc.h **** 
 753:Drivers/CMSIS/Include/cmsis_gcc.h **** 
 754:Drivers/CMSIS/Include/cmsis_gcc.h **** #if ((defined (__ARM_ARCH_8M_MAIN__ ) && (__ARM_ARCH_8M_MAIN__ == 1)) || \
 755:Drivers/CMSIS/Include/cmsis_gcc.h ****      (defined (__ARM_ARCH_8M_BASE__ ) && (__ARM_ARCH_8M_BASE__ == 1))    )
 756:Drivers/CMSIS/Include/cmsis_gcc.h **** /**
 757:Drivers/CMSIS/Include/cmsis_gcc.h ****   \brief   Load-Acquire (8 bit)
 758:Drivers/CMSIS/Include/cmsis_gcc.h ****   \details Executes a LDAB instruction for 8 bit value.
 759:Drivers/CMSIS/Include/cmsis_gcc.h ****   \param [in]    ptr  Pointer to data
 760:Drivers/CMSIS/Include/cmsis_gcc.h ****   \return             value of type uint8_t at (*ptr)
 761:Drivers/CMSIS/Include/cmsis_gcc.h ****  */
 762:Drivers/CMSIS/Include/cmsis_gcc.h **** __STATIC_FORCEINLINE uint8_t __LDAB(volatile uint8_t *ptr)
 763:Drivers/CMSIS/Include/cmsis_gcc.h **** {
 764:Drivers/CMSIS/Include/cmsis_gcc.h ****     uint32_t result;
 765:Drivers/CMSIS/Include/cmsis_gcc.h **** 
 766:Drivers/CMSIS/Include/cmsis_gcc.h ****    __ASM volatile ("ldab %0, %1" : "=r" (result) : "Q" (*ptr) : "memory" );
 767:Drivers/CMSIS/Include/cmsis_gcc.h ****    return ((uint8_t) result);
 768:Drivers/CMSIS/Include/cmsis_gcc.h **** }
 769:Drivers/CMSIS/Include/cmsis_gcc.h **** 
 770:Drivers/CMSIS/Include/cmsis_gcc.h **** 
 771:Drivers/CMSIS/Include/cmsis_gcc.h **** /**
 772:Drivers/CMSIS/Include/cmsis_gcc.h ****   \brief   Load-Acquire (16 bit)
 773:Drivers/CMSIS/Include/cmsis_gcc.h ****   \details Executes a LDAH instruction for 16 bit values.
 774:Drivers/CMSIS/Include/cmsis_gcc.h ****   \param [in]    ptr  Pointer to data
 775:Drivers/CMSIS/Include/cmsis_gcc.h ****   \return        value of type uint16_t at (*ptr)
 776:Drivers/CMSIS/Include/cmsis_gcc.h ****  */
 777:Drivers/CMSIS/Include/cmsis_gcc.h **** __STATIC_FORCEINLINE uint16_t __LDAH(volatile uint16_t *ptr)
 778:Drivers/CMSIS/Include/cmsis_gcc.h **** {
 779:Drivers/CMSIS/Include/cmsis_gcc.h ****     uint32_t result;
 780:Drivers/CMSIS/Include/cmsis_gcc.h **** 
 781:Drivers/CMSIS/Include/cmsis_gcc.h ****    __ASM volatile ("ldah %0, %1" : "=r" (result) : "Q" (*ptr) : "memory" );
 782:Drivers/CMSIS/Include/cmsis_gcc.h ****    return ((uint16_t) result);
 783:Drivers/CMSIS/Include/cmsis_gcc.h **** }
 784:Drivers/CMSIS/Include/cmsis_gcc.h **** 
 785:Drivers/CMSIS/Include/cmsis_gcc.h **** 
 786:Drivers/CMSIS/Include/cmsis_gcc.h **** /**
 787:Drivers/CMSIS/Include/cmsis_gcc.h ****   \brief   Load-Acquire (32 bit)
 788:Drivers/CMSIS/Include/cmsis_gcc.h ****   \details Executes a LDA instruction for 32 bit values.
 789:Drivers/CMSIS/Include/cmsis_gcc.h ****   \param [in]    ptr  Pointer to data
 790:Drivers/CMSIS/Include/cmsis_gcc.h ****   \return        value of type uint32_t at (*ptr)
 791:Drivers/CMSIS/Include/cmsis_gcc.h ****  */
 792:Drivers/CMSIS/Include/cmsis_gcc.h **** __STATIC_FORCEINLINE uint32_t __LDA(volatile uint32_t *ptr)
 793:Drivers/CMSIS/Include/cmsis_gcc.h **** {
 794:Drivers/CMSIS/Include/cmsis_gcc.h ****     uint32_t result;
 795:Drivers/CMSIS/Include/cmsis_gcc.h **** 
 796:Drivers/CMSIS/Include/cmsis_gcc.h ****    __ASM volatile ("lda %0, %1" : "=r" (result) : "Q" (*ptr) : "memory" );
 797:Drivers/CMSIS/Include/cmsis_gcc.h ****    return(result);
 798:Drivers/CMSIS/Include/cmsis_gcc.h **** }
 799:Drivers/CMSIS/Include/cmsis_gcc.h **** 
 800:Drivers/CMSIS/Include/cmsis_gcc.h **** 
 801:Drivers/CMSIS/Include/cmsis_gcc.h **** /**
 802:Drivers/CMSIS/Include/cmsis_gcc.h ****   \brief   Store-Release (8 bit)
 803:Drivers/CMSIS/Include/cmsis_gcc.h ****   \details Executes a STLB instruction for 8 bit values.
 804:Drivers/CMSIS/Include/cmsis_gcc.h ****   \param [in]  value  Value to store
 805:Drivers/CMSIS/Include/cmsis_gcc.h ****   \param [in]    ptr  Pointer to location
 806:Drivers/CMSIS/Include/cmsis_gcc.h ****  */
 807:Drivers/CMSIS/Include/cmsis_gcc.h **** __STATIC_FORCEINLINE void __STLB(uint8_t value, volatile uint8_t *ptr)
 808:Drivers/CMSIS/Include/cmsis_gcc.h **** {
ARM GAS  /tmp/ccB3fkfO.s 			page 47


 809:Drivers/CMSIS/Include/cmsis_gcc.h ****    __ASM volatile ("stlb %1, %0" : "=Q" (*ptr) : "r" ((uint32_t)value) : "memory" );
 810:Drivers/CMSIS/Include/cmsis_gcc.h **** }
 811:Drivers/CMSIS/Include/cmsis_gcc.h **** 
 812:Drivers/CMSIS/Include/cmsis_gcc.h **** 
 813:Drivers/CMSIS/Include/cmsis_gcc.h **** /**
 814:Drivers/CMSIS/Include/cmsis_gcc.h ****   \brief   Store-Release (16 bit)
 815:Drivers/CMSIS/Include/cmsis_gcc.h ****   \details Executes a STLH instruction for 16 bit values.
 816:Drivers/CMSIS/Include/cmsis_gcc.h ****   \param [in]  value  Value to store
 817:Drivers/CMSIS/Include/cmsis_gcc.h ****   \param [in]    ptr  Pointer to location
 818:Drivers/CMSIS/Include/cmsis_gcc.h ****  */
 819:Drivers/CMSIS/Include/cmsis_gcc.h **** __STATIC_FORCEINLINE void __STLH(uint16_t value, volatile uint16_t *ptr)
 820:Drivers/CMSIS/Include/cmsis_gcc.h **** {
 821:Drivers/CMSIS/Include/cmsis_gcc.h ****    __ASM volatile ("stlh %1, %0" : "=Q" (*ptr) : "r" ((uint32_t)value) : "memory" );
 822:Drivers/CMSIS/Include/cmsis_gcc.h **** }
 823:Drivers/CMSIS/Include/cmsis_gcc.h **** 
 824:Drivers/CMSIS/Include/cmsis_gcc.h **** 
 825:Drivers/CMSIS/Include/cmsis_gcc.h **** /**
 826:Drivers/CMSIS/Include/cmsis_gcc.h ****   \brief   Store-Release (32 bit)
 827:Drivers/CMSIS/Include/cmsis_gcc.h ****   \details Executes a STL instruction for 32 bit values.
 828:Drivers/CMSIS/Include/cmsis_gcc.h ****   \param [in]  value  Value to store
 829:Drivers/CMSIS/Include/cmsis_gcc.h ****   \param [in]    ptr  Pointer to location
 830:Drivers/CMSIS/Include/cmsis_gcc.h ****  */
 831:Drivers/CMSIS/Include/cmsis_gcc.h **** __STATIC_FORCEINLINE void __STL(uint32_t value, volatile uint32_t *ptr)
 832:Drivers/CMSIS/Include/cmsis_gcc.h **** {
 833:Drivers/CMSIS/Include/cmsis_gcc.h ****    __ASM volatile ("stl %1, %0" : "=Q" (*ptr) : "r" ((uint32_t)value) : "memory" );
 834:Drivers/CMSIS/Include/cmsis_gcc.h **** }
 835:Drivers/CMSIS/Include/cmsis_gcc.h **** 
 836:Drivers/CMSIS/Include/cmsis_gcc.h **** 
 837:Drivers/CMSIS/Include/cmsis_gcc.h **** /**
 838:Drivers/CMSIS/Include/cmsis_gcc.h ****   \brief   Load-Acquire Exclusive (8 bit)
 839:Drivers/CMSIS/Include/cmsis_gcc.h ****   \details Executes a LDAB exclusive instruction for 8 bit value.
 840:Drivers/CMSIS/Include/cmsis_gcc.h ****   \param [in]    ptr  Pointer to data
 841:Drivers/CMSIS/Include/cmsis_gcc.h ****   \return             value of type uint8_t at (*ptr)
 842:Drivers/CMSIS/Include/cmsis_gcc.h ****  */
 843:Drivers/CMSIS/Include/cmsis_gcc.h **** __STATIC_FORCEINLINE uint8_t __LDAEXB(volatile uint8_t *ptr)
 844:Drivers/CMSIS/Include/cmsis_gcc.h **** {
 845:Drivers/CMSIS/Include/cmsis_gcc.h ****     uint32_t result;
 846:Drivers/CMSIS/Include/cmsis_gcc.h **** 
 847:Drivers/CMSIS/Include/cmsis_gcc.h ****    __ASM volatile ("ldaexb %0, %1" : "=r" (result) : "Q" (*ptr) : "memory" );
 848:Drivers/CMSIS/Include/cmsis_gcc.h ****    return ((uint8_t) result);
 849:Drivers/CMSIS/Include/cmsis_gcc.h **** }
 850:Drivers/CMSIS/Include/cmsis_gcc.h **** 
 851:Drivers/CMSIS/Include/cmsis_gcc.h **** 
 852:Drivers/CMSIS/Include/cmsis_gcc.h **** /**
 853:Drivers/CMSIS/Include/cmsis_gcc.h ****   \brief   Load-Acquire Exclusive (16 bit)
 854:Drivers/CMSIS/Include/cmsis_gcc.h ****   \details Executes a LDAH exclusive instruction for 16 bit values.
 855:Drivers/CMSIS/Include/cmsis_gcc.h ****   \param [in]    ptr  Pointer to data
 856:Drivers/CMSIS/Include/cmsis_gcc.h ****   \return        value of type uint16_t at (*ptr)
 857:Drivers/CMSIS/Include/cmsis_gcc.h ****  */
 858:Drivers/CMSIS/Include/cmsis_gcc.h **** __STATIC_FORCEINLINE uint16_t __LDAEXH(volatile uint16_t *ptr)
 859:Drivers/CMSIS/Include/cmsis_gcc.h **** {
 860:Drivers/CMSIS/Include/cmsis_gcc.h ****     uint32_t result;
 861:Drivers/CMSIS/Include/cmsis_gcc.h **** 
 862:Drivers/CMSIS/Include/cmsis_gcc.h ****    __ASM volatile ("ldaexh %0, %1" : "=r" (result) : "Q" (*ptr) : "memory" );
 863:Drivers/CMSIS/Include/cmsis_gcc.h ****    return ((uint16_t) result);
 864:Drivers/CMSIS/Include/cmsis_gcc.h **** }
 865:Drivers/CMSIS/Include/cmsis_gcc.h **** 
ARM GAS  /tmp/ccB3fkfO.s 			page 48


 866:Drivers/CMSIS/Include/cmsis_gcc.h **** 
 867:Drivers/CMSIS/Include/cmsis_gcc.h **** /**
 868:Drivers/CMSIS/Include/cmsis_gcc.h ****   \brief   Load-Acquire Exclusive (32 bit)
 869:Drivers/CMSIS/Include/cmsis_gcc.h ****   \details Executes a LDA exclusive instruction for 32 bit values.
 870:Drivers/CMSIS/Include/cmsis_gcc.h ****   \param [in]    ptr  Pointer to data
 871:Drivers/CMSIS/Include/cmsis_gcc.h ****   \return        value of type uint32_t at (*ptr)
 872:Drivers/CMSIS/Include/cmsis_gcc.h ****  */
 873:Drivers/CMSIS/Include/cmsis_gcc.h **** __STATIC_FORCEINLINE uint32_t __LDAEX(volatile uint32_t *ptr)
 874:Drivers/CMSIS/Include/cmsis_gcc.h **** {
 875:Drivers/CMSIS/Include/cmsis_gcc.h ****     uint32_t result;
 876:Drivers/CMSIS/Include/cmsis_gcc.h **** 
 877:Drivers/CMSIS/Include/cmsis_gcc.h ****    __ASM volatile ("ldaex %0, %1" : "=r" (result) : "Q" (*ptr) : "memory" );
 878:Drivers/CMSIS/Include/cmsis_gcc.h ****    return(result);
 879:Drivers/CMSIS/Include/cmsis_gcc.h **** }
 880:Drivers/CMSIS/Include/cmsis_gcc.h **** 
 881:Drivers/CMSIS/Include/cmsis_gcc.h **** 
 882:Drivers/CMSIS/Include/cmsis_gcc.h **** /**
 883:Drivers/CMSIS/Include/cmsis_gcc.h ****   \brief   Store-Release Exclusive (8 bit)
 884:Drivers/CMSIS/Include/cmsis_gcc.h ****   \details Executes a STLB exclusive instruction for 8 bit values.
 885:Drivers/CMSIS/Include/cmsis_gcc.h ****   \param [in]  value  Value to store
 886:Drivers/CMSIS/Include/cmsis_gcc.h ****   \param [in]    ptr  Pointer to location
 887:Drivers/CMSIS/Include/cmsis_gcc.h ****   \return          0  Function succeeded
 888:Drivers/CMSIS/Include/cmsis_gcc.h ****   \return          1  Function failed
 889:Drivers/CMSIS/Include/cmsis_gcc.h ****  */
 890:Drivers/CMSIS/Include/cmsis_gcc.h **** __STATIC_FORCEINLINE uint32_t __STLEXB(uint8_t value, volatile uint8_t *ptr)
 891:Drivers/CMSIS/Include/cmsis_gcc.h **** {
 892:Drivers/CMSIS/Include/cmsis_gcc.h ****    uint32_t result;
 893:Drivers/CMSIS/Include/cmsis_gcc.h **** 
 894:Drivers/CMSIS/Include/cmsis_gcc.h ****    __ASM volatile ("stlexb %0, %2, %1" : "=&r" (result), "=Q" (*ptr) : "r" ((uint32_t)value) : "mem
 895:Drivers/CMSIS/Include/cmsis_gcc.h ****    return(result);
 896:Drivers/CMSIS/Include/cmsis_gcc.h **** }
 897:Drivers/CMSIS/Include/cmsis_gcc.h **** 
 898:Drivers/CMSIS/Include/cmsis_gcc.h **** 
 899:Drivers/CMSIS/Include/cmsis_gcc.h **** /**
 900:Drivers/CMSIS/Include/cmsis_gcc.h ****   \brief   Store-Release Exclusive (16 bit)
 901:Drivers/CMSIS/Include/cmsis_gcc.h ****   \details Executes a STLH exclusive instruction for 16 bit values.
 902:Drivers/CMSIS/Include/cmsis_gcc.h ****   \param [in]  value  Value to store
 903:Drivers/CMSIS/Include/cmsis_gcc.h ****   \param [in]    ptr  Pointer to location
 904:Drivers/CMSIS/Include/cmsis_gcc.h ****   \return          0  Function succeeded
 905:Drivers/CMSIS/Include/cmsis_gcc.h ****   \return          1  Function failed
 906:Drivers/CMSIS/Include/cmsis_gcc.h ****  */
 907:Drivers/CMSIS/Include/cmsis_gcc.h **** __STATIC_FORCEINLINE uint32_t __STLEXH(uint16_t value, volatile uint16_t *ptr)
 908:Drivers/CMSIS/Include/cmsis_gcc.h **** {
 909:Drivers/CMSIS/Include/cmsis_gcc.h ****    uint32_t result;
 910:Drivers/CMSIS/Include/cmsis_gcc.h **** 
 911:Drivers/CMSIS/Include/cmsis_gcc.h ****    __ASM volatile ("stlexh %0, %2, %1" : "=&r" (result), "=Q" (*ptr) : "r" ((uint32_t)value) : "mem
 912:Drivers/CMSIS/Include/cmsis_gcc.h ****    return(result);
 913:Drivers/CMSIS/Include/cmsis_gcc.h **** }
 914:Drivers/CMSIS/Include/cmsis_gcc.h **** 
 915:Drivers/CMSIS/Include/cmsis_gcc.h **** 
 916:Drivers/CMSIS/Include/cmsis_gcc.h **** /**
 917:Drivers/CMSIS/Include/cmsis_gcc.h ****   \brief   Store-Release Exclusive (32 bit)
 918:Drivers/CMSIS/Include/cmsis_gcc.h ****   \details Executes a STL exclusive instruction for 32 bit values.
 919:Drivers/CMSIS/Include/cmsis_gcc.h ****   \param [in]  value  Value to store
 920:Drivers/CMSIS/Include/cmsis_gcc.h ****   \param [in]    ptr  Pointer to location
 921:Drivers/CMSIS/Include/cmsis_gcc.h ****   \return          0  Function succeeded
 922:Drivers/CMSIS/Include/cmsis_gcc.h ****   \return          1  Function failed
ARM GAS  /tmp/ccB3fkfO.s 			page 49


 923:Drivers/CMSIS/Include/cmsis_gcc.h ****  */
 924:Drivers/CMSIS/Include/cmsis_gcc.h **** __STATIC_FORCEINLINE uint32_t __STLEX(uint32_t value, volatile uint32_t *ptr)
 925:Drivers/CMSIS/Include/cmsis_gcc.h **** {
 926:Drivers/CMSIS/Include/cmsis_gcc.h ****    uint32_t result;
 927:Drivers/CMSIS/Include/cmsis_gcc.h **** 
 928:Drivers/CMSIS/Include/cmsis_gcc.h ****    __ASM volatile ("stlex %0, %2, %1" : "=&r" (result), "=Q" (*ptr) : "r" ((uint32_t)value) : "memo
 929:Drivers/CMSIS/Include/cmsis_gcc.h ****    return(result);
 930:Drivers/CMSIS/Include/cmsis_gcc.h **** }
 931:Drivers/CMSIS/Include/cmsis_gcc.h **** 
 932:Drivers/CMSIS/Include/cmsis_gcc.h **** #endif /* ((defined (__ARM_ARCH_8M_MAIN__ ) && (__ARM_ARCH_8M_MAIN__ == 1)) || \
 933:Drivers/CMSIS/Include/cmsis_gcc.h ****            (defined (__ARM_ARCH_8M_BASE__ ) && (__ARM_ARCH_8M_BASE__ == 1))    ) */
 934:Drivers/CMSIS/Include/cmsis_gcc.h **** 
 935:Drivers/CMSIS/Include/cmsis_gcc.h **** /*@}*/ /* end of group CMSIS_Core_InstructionInterface */
 936:Drivers/CMSIS/Include/cmsis_gcc.h **** 
 937:Drivers/CMSIS/Include/cmsis_gcc.h **** 
 938:Drivers/CMSIS/Include/cmsis_gcc.h **** /* ###########################  Core Function Access  ########################### */
 939:Drivers/CMSIS/Include/cmsis_gcc.h **** /** \ingroup  CMSIS_Core_FunctionInterface
 940:Drivers/CMSIS/Include/cmsis_gcc.h ****     \defgroup CMSIS_Core_RegAccFunctions CMSIS Core Register Access Functions
 941:Drivers/CMSIS/Include/cmsis_gcc.h ****   @{
 942:Drivers/CMSIS/Include/cmsis_gcc.h ****  */
 943:Drivers/CMSIS/Include/cmsis_gcc.h **** 
 944:Drivers/CMSIS/Include/cmsis_gcc.h **** /**
 945:Drivers/CMSIS/Include/cmsis_gcc.h ****   \brief   Enable IRQ Interrupts
 946:Drivers/CMSIS/Include/cmsis_gcc.h ****   \details Enables IRQ interrupts by clearing special-purpose register PRIMASK.
 947:Drivers/CMSIS/Include/cmsis_gcc.h ****            Can only be executed in Privileged modes.
 948:Drivers/CMSIS/Include/cmsis_gcc.h ****  */
 949:Drivers/CMSIS/Include/cmsis_gcc.h **** __STATIC_FORCEINLINE void __enable_irq(void)
 950:Drivers/CMSIS/Include/cmsis_gcc.h **** {
 951:Drivers/CMSIS/Include/cmsis_gcc.h ****   __ASM volatile ("cpsie i" : : : "memory");
 952:Drivers/CMSIS/Include/cmsis_gcc.h **** }
 953:Drivers/CMSIS/Include/cmsis_gcc.h **** 
 954:Drivers/CMSIS/Include/cmsis_gcc.h **** 
 955:Drivers/CMSIS/Include/cmsis_gcc.h **** /**
 956:Drivers/CMSIS/Include/cmsis_gcc.h ****   \brief   Disable IRQ Interrupts
 957:Drivers/CMSIS/Include/cmsis_gcc.h ****   \details Disables IRQ interrupts by setting special-purpose register PRIMASK.
 958:Drivers/CMSIS/Include/cmsis_gcc.h ****            Can only be executed in Privileged modes.
 959:Drivers/CMSIS/Include/cmsis_gcc.h ****  */
 960:Drivers/CMSIS/Include/cmsis_gcc.h **** __STATIC_FORCEINLINE void __disable_irq(void)
 1145              		.loc 2 960 27 view .LVU244
 1146              	.LBB11:
 961:Drivers/CMSIS/Include/cmsis_gcc.h **** {
 962:Drivers/CMSIS/Include/cmsis_gcc.h ****   __ASM volatile ("cpsid i" : : : "memory");
 1147              		.loc 2 962 3 view .LVU245
 1148              		.syntax unified
 1149              	@ 962 "Drivers/CMSIS/Include/cmsis_gcc.h" 1
 1150 0000 72B6     		cpsid i
 1151              	@ 0 "" 2
 1152              		.thumb
 1153              		.syntax unified
 1154              	.L79:
 1155              	.LBE11:
 1156              	.LBE10:
 508:Core/Src/main.c ****   while (1)
 1157              		.loc 1 508 3 discriminator 1 view .LVU246
 509:Core/Src/main.c ****   {
 510:Core/Src/main.c ****   }
 1158              		.loc 1 510 3 discriminator 1 view .LVU247
ARM GAS  /tmp/ccB3fkfO.s 			page 50


 508:Core/Src/main.c ****   while (1)
 1159              		.loc 1 508 9 discriminator 1 view .LVU248
 1160 0002 FEE7     		b	.L79
 1161              		.cfi_endproc
 1162              	.LFE153:
 1164              		.section	.text.MX_USART2_UART_Init,"ax",%progbits
 1165              		.align	1
 1166              		.syntax unified
 1167              		.thumb
 1168              		.thumb_func
 1169              		.fpu fpv4-sp-d16
 1171              	MX_USART2_UART_Init:
 1172              	.LFB151:
 429:Core/Src/main.c **** 
 1173              		.loc 1 429 1 view -0
 1174              		.cfi_startproc
 1175              		@ args = 0, pretend = 0, frame = 0
 1176              		@ frame_needed = 0, uses_anonymous_args = 0
 1177 0000 08B5     		push	{r3, lr}
 1178              	.LCFI21:
 1179              		.cfi_def_cfa_offset 8
 1180              		.cfi_offset 3, -8
 1181              		.cfi_offset 14, -4
 438:Core/Src/main.c ****   huart2.Init.BaudRate = 115200;
 1182              		.loc 1 438 3 view .LVU250
 438:Core/Src/main.c ****   huart2.Init.BaudRate = 115200;
 1183              		.loc 1 438 19 is_stmt 0 view .LVU251
 1184 0002 0A48     		ldr	r0, .L84
 1185 0004 0A4B     		ldr	r3, .L84+4
 1186 0006 0360     		str	r3, [r0]
 439:Core/Src/main.c ****   huart2.Init.WordLength = UART_WORDLENGTH_8B;
 1187              		.loc 1 439 3 is_stmt 1 view .LVU252
 439:Core/Src/main.c ****   huart2.Init.WordLength = UART_WORDLENGTH_8B;
 1188              		.loc 1 439 24 is_stmt 0 view .LVU253
 1189 0008 4FF4E133 		mov	r3, #115200
 1190 000c 4360     		str	r3, [r0, #4]
 440:Core/Src/main.c ****   huart2.Init.StopBits = UART_STOPBITS_1;
 1191              		.loc 1 440 3 is_stmt 1 view .LVU254
 440:Core/Src/main.c ****   huart2.Init.StopBits = UART_STOPBITS_1;
 1192              		.loc 1 440 26 is_stmt 0 view .LVU255
 1193 000e 0023     		movs	r3, #0
 1194 0010 8360     		str	r3, [r0, #8]
 441:Core/Src/main.c ****   huart2.Init.Parity = UART_PARITY_NONE;
 1195              		.loc 1 441 3 is_stmt 1 view .LVU256
 441:Core/Src/main.c ****   huart2.Init.Parity = UART_PARITY_NONE;
 1196              		.loc 1 441 24 is_stmt 0 view .LVU257
 1197 0012 C360     		str	r3, [r0, #12]
 442:Core/Src/main.c ****   huart2.Init.Mode = UART_MODE_TX_RX;
 1198              		.loc 1 442 3 is_stmt 1 view .LVU258
 442:Core/Src/main.c ****   huart2.Init.Mode = UART_MODE_TX_RX;
 1199              		.loc 1 442 22 is_stmt 0 view .LVU259
 1200 0014 0361     		str	r3, [r0, #16]
 443:Core/Src/main.c ****   huart2.Init.HwFlowCtl = UART_HWCONTROL_NONE;
 1201              		.loc 1 443 3 is_stmt 1 view .LVU260
 443:Core/Src/main.c ****   huart2.Init.HwFlowCtl = UART_HWCONTROL_NONE;
 1202              		.loc 1 443 20 is_stmt 0 view .LVU261
 1203 0016 0C22     		movs	r2, #12
ARM GAS  /tmp/ccB3fkfO.s 			page 51


 1204 0018 4261     		str	r2, [r0, #20]
 444:Core/Src/main.c ****   huart2.Init.OverSampling = UART_OVERSAMPLING_16;
 1205              		.loc 1 444 3 is_stmt 1 view .LVU262
 444:Core/Src/main.c ****   huart2.Init.OverSampling = UART_OVERSAMPLING_16;
 1206              		.loc 1 444 25 is_stmt 0 view .LVU263
 1207 001a 8361     		str	r3, [r0, #24]
 445:Core/Src/main.c ****   if (HAL_UART_Init(&huart2) != HAL_OK)
 1208              		.loc 1 445 3 is_stmt 1 view .LVU264
 445:Core/Src/main.c ****   if (HAL_UART_Init(&huart2) != HAL_OK)
 1209              		.loc 1 445 28 is_stmt 0 view .LVU265
 1210 001c C361     		str	r3, [r0, #28]
 446:Core/Src/main.c ****   {
 1211              		.loc 1 446 3 is_stmt 1 view .LVU266
 446:Core/Src/main.c ****   {
 1212              		.loc 1 446 7 is_stmt 0 view .LVU267
 1213 001e FFF7FEFF 		bl	HAL_UART_Init
 1214              	.LVL89:
 446:Core/Src/main.c ****   {
 1215              		.loc 1 446 6 view .LVU268
 1216 0022 00B9     		cbnz	r0, .L83
 454:Core/Src/main.c **** 
 1217              		.loc 1 454 1 view .LVU269
 1218 0024 08BD     		pop	{r3, pc}
 1219              	.L83:
 448:Core/Src/main.c ****   }
 1220              		.loc 1 448 5 is_stmt 1 view .LVU270
 1221 0026 FFF7FEFF 		bl	Error_Handler
 1222              	.LVL90:
 1223              	.L85:
 1224 002a 00BF     		.align	2
 1225              	.L84:
 1226 002c 00000000 		.word	.LANCHOR5
 1227 0030 00440040 		.word	1073759232
 1228              		.cfi_endproc
 1229              	.LFE151:
 1231              		.section	.text.MX_USART1_UART_Init,"ax",%progbits
 1232              		.align	1
 1233              		.syntax unified
 1234              		.thumb
 1235              		.thumb_func
 1236              		.fpu fpv4-sp-d16
 1238              	MX_USART1_UART_Init:
 1239              	.LFB150:
 396:Core/Src/main.c **** 
 1240              		.loc 1 396 1 view -0
 1241              		.cfi_startproc
 1242              		@ args = 0, pretend = 0, frame = 0
 1243              		@ frame_needed = 0, uses_anonymous_args = 0
 1244 0000 08B5     		push	{r3, lr}
 1245              	.LCFI22:
 1246              		.cfi_def_cfa_offset 8
 1247              		.cfi_offset 3, -8
 1248              		.cfi_offset 14, -4
 405:Core/Src/main.c ****   huart1.Init.BaudRate = 115200;
 1249              		.loc 1 405 3 view .LVU272
 405:Core/Src/main.c ****   huart1.Init.BaudRate = 115200;
 1250              		.loc 1 405 19 is_stmt 0 view .LVU273
ARM GAS  /tmp/ccB3fkfO.s 			page 52


 1251 0002 0A48     		ldr	r0, .L90
 1252 0004 0A4B     		ldr	r3, .L90+4
 1253 0006 0360     		str	r3, [r0]
 406:Core/Src/main.c ****   huart1.Init.WordLength = UART_WORDLENGTH_8B;
 1254              		.loc 1 406 3 is_stmt 1 view .LVU274
 406:Core/Src/main.c ****   huart1.Init.WordLength = UART_WORDLENGTH_8B;
 1255              		.loc 1 406 24 is_stmt 0 view .LVU275
 1256 0008 4FF4E133 		mov	r3, #115200
 1257 000c 4360     		str	r3, [r0, #4]
 407:Core/Src/main.c ****   huart1.Init.StopBits = UART_STOPBITS_1;
 1258              		.loc 1 407 3 is_stmt 1 view .LVU276
 407:Core/Src/main.c ****   huart1.Init.StopBits = UART_STOPBITS_1;
 1259              		.loc 1 407 26 is_stmt 0 view .LVU277
 1260 000e 0023     		movs	r3, #0
 1261 0010 8360     		str	r3, [r0, #8]
 408:Core/Src/main.c ****   huart1.Init.Parity = UART_PARITY_NONE;
 1262              		.loc 1 408 3 is_stmt 1 view .LVU278
 408:Core/Src/main.c ****   huart1.Init.Parity = UART_PARITY_NONE;
 1263              		.loc 1 408 24 is_stmt 0 view .LVU279
 1264 0012 C360     		str	r3, [r0, #12]
 409:Core/Src/main.c ****   huart1.Init.Mode = UART_MODE_TX_RX;
 1265              		.loc 1 409 3 is_stmt 1 view .LVU280
 409:Core/Src/main.c ****   huart1.Init.Mode = UART_MODE_TX_RX;
 1266              		.loc 1 409 22 is_stmt 0 view .LVU281
 1267 0014 0361     		str	r3, [r0, #16]
 410:Core/Src/main.c ****   huart1.Init.HwFlowCtl = UART_HWCONTROL_NONE;
 1268              		.loc 1 410 3 is_stmt 1 view .LVU282
 410:Core/Src/main.c ****   huart1.Init.HwFlowCtl = UART_HWCONTROL_NONE;
 1269              		.loc 1 410 20 is_stmt 0 view .LVU283
 1270 0016 0C22     		movs	r2, #12
 1271 0018 4261     		str	r2, [r0, #20]
 411:Core/Src/main.c ****   huart1.Init.OverSampling = UART_OVERSAMPLING_16;
 1272              		.loc 1 411 3 is_stmt 1 view .LVU284
 411:Core/Src/main.c ****   huart1.Init.OverSampling = UART_OVERSAMPLING_16;
 1273              		.loc 1 411 25 is_stmt 0 view .LVU285
 1274 001a 8361     		str	r3, [r0, #24]
 412:Core/Src/main.c ****   if (HAL_UART_Init(&huart1) != HAL_OK)
 1275              		.loc 1 412 3 is_stmt 1 view .LVU286
 412:Core/Src/main.c ****   if (HAL_UART_Init(&huart1) != HAL_OK)
 1276              		.loc 1 412 28 is_stmt 0 view .LVU287
 1277 001c C361     		str	r3, [r0, #28]
 413:Core/Src/main.c ****   {
 1278              		.loc 1 413 3 is_stmt 1 view .LVU288
 413:Core/Src/main.c ****   {
 1279              		.loc 1 413 7 is_stmt 0 view .LVU289
 1280 001e FFF7FEFF 		bl	HAL_UART_Init
 1281              	.LVL91:
 413:Core/Src/main.c ****   {
 1282              		.loc 1 413 6 view .LVU290
 1283 0022 00B9     		cbnz	r0, .L89
 421:Core/Src/main.c **** 
 1284              		.loc 1 421 1 view .LVU291
 1285 0024 08BD     		pop	{r3, pc}
 1286              	.L89:
 415:Core/Src/main.c ****   }
 1287              		.loc 1 415 5 is_stmt 1 view .LVU292
 1288 0026 FFF7FEFF 		bl	Error_Handler
ARM GAS  /tmp/ccB3fkfO.s 			page 53


 1289              	.LVL92:
 1290              	.L91:
 1291 002a 00BF     		.align	2
 1292              	.L90:
 1293 002c 00000000 		.word	.LANCHOR6
 1294 0030 00100140 		.word	1073811456
 1295              		.cfi_endproc
 1296              	.LFE150:
 1298              		.section	.text.uart_init,"ax",%progbits
 1299              		.align	1
 1300              		.global	uart_init
 1301              		.syntax unified
 1302              		.thumb
 1303              		.thumb_func
 1304              		.fpu fpv4-sp-d16
 1306              	uart_init:
 1307              	.LVL93:
 1308              	.LFB142:
 239:Core/Src/main.c ****   switch(uart)
 1309              		.loc 1 239 1 view -0
 1310              		.cfi_startproc
 1311              		@ args = 0, pretend = 0, frame = 0
 1312              		@ frame_needed = 0, uses_anonymous_args = 0
 239:Core/Src/main.c ****   switch(uart)
 1313              		.loc 1 239 1 is_stmt 0 view .LVU294
 1314 0000 08B5     		push	{r3, lr}
 1315              	.LCFI23:
 1316              		.cfi_def_cfa_offset 8
 1317              		.cfi_offset 3, -8
 1318              		.cfi_offset 14, -4
 240:Core/Src/main.c ****   {
 1319              		.loc 1 240 3 is_stmt 1 view .LVU295
 1320 0002 10B1     		cbz	r0, .L93
 1321 0004 0128     		cmp	r0, #1
 1322 0006 03D0     		beq	.L94
 1323              	.LVL94:
 1324              	.L92:
 249:Core/Src/main.c **** 
 1325              		.loc 1 249 1 is_stmt 0 view .LVU296
 1326 0008 08BD     		pop	{r3, pc}
 1327              	.LVL95:
 1328              	.L93:
 243:Core/Src/main.c ****     break;
 1329              		.loc 1 243 5 is_stmt 1 view .LVU297
 1330 000a FFF7FEFF 		bl	MX_USART2_UART_Init
 1331              	.LVL96:
 244:Core/Src/main.c ****   case BOARD_UART:
 1332              		.loc 1 244 5 view .LVU298
 1333 000e FBE7     		b	.L92
 1334              	.LVL97:
 1335              	.L94:
 246:Core/Src/main.c ****     break;
 1336              		.loc 1 246 5 view .LVU299
 1337 0010 FFF7FEFF 		bl	MX_USART1_UART_Init
 1338              	.LVL98:
 247:Core/Src/main.c ****   }
 1339              		.loc 1 247 5 view .LVU300
ARM GAS  /tmp/ccB3fkfO.s 			page 54


 249:Core/Src/main.c **** 
 1340              		.loc 1 249 1 is_stmt 0 view .LVU301
 1341 0014 F8E7     		b	.L92
 1342              		.cfi_endproc
 1343              	.LFE142:
 1345              		.section	.text.SystemClock_Config,"ax",%progbits
 1346              		.align	1
 1347              		.global	SystemClock_Config
 1348              		.syntax unified
 1349              		.thumb
 1350              		.thumb_func
 1351              		.fpu fpv4-sp-d16
 1353              	SystemClock_Config:
 1354              	.LFB149:
 349:Core/Src/main.c ****   RCC_OscInitTypeDef RCC_OscInitStruct = {0};
 1355              		.loc 1 349 1 is_stmt 1 view -0
 1356              		.cfi_startproc
 1357              		@ args = 0, pretend = 0, frame = 80
 1358              		@ frame_needed = 0, uses_anonymous_args = 0
 1359 0000 00B5     		push	{lr}
 1360              	.LCFI24:
 1361              		.cfi_def_cfa_offset 4
 1362              		.cfi_offset 14, -4
 1363 0002 95B0     		sub	sp, sp, #84
 1364              	.LCFI25:
 1365              		.cfi_def_cfa_offset 88
 350:Core/Src/main.c ****   RCC_ClkInitTypeDef RCC_ClkInitStruct = {0};
 1366              		.loc 1 350 3 view .LVU303
 350:Core/Src/main.c ****   RCC_ClkInitTypeDef RCC_ClkInitStruct = {0};
 1367              		.loc 1 350 22 is_stmt 0 view .LVU304
 1368 0004 3022     		movs	r2, #48
 1369 0006 0021     		movs	r1, #0
 1370 0008 08A8     		add	r0, sp, #32
 1371 000a FFF7FEFF 		bl	memset
 1372              	.LVL99:
 351:Core/Src/main.c **** 
 1373              		.loc 1 351 3 is_stmt 1 view .LVU305
 351:Core/Src/main.c **** 
 1374              		.loc 1 351 22 is_stmt 0 view .LVU306
 1375 000e 0023     		movs	r3, #0
 1376 0010 0393     		str	r3, [sp, #12]
 1377 0012 0493     		str	r3, [sp, #16]
 1378 0014 0593     		str	r3, [sp, #20]
 1379 0016 0693     		str	r3, [sp, #24]
 1380 0018 0793     		str	r3, [sp, #28]
 355:Core/Src/main.c ****   __HAL_PWR_VOLTAGESCALING_CONFIG(PWR_REGULATOR_VOLTAGE_SCALE1);
 1381              		.loc 1 355 3 is_stmt 1 view .LVU307
 1382              	.LBB12:
 355:Core/Src/main.c ****   __HAL_PWR_VOLTAGESCALING_CONFIG(PWR_REGULATOR_VOLTAGE_SCALE1);
 1383              		.loc 1 355 3 view .LVU308
 1384 001a 0193     		str	r3, [sp, #4]
 355:Core/Src/main.c ****   __HAL_PWR_VOLTAGESCALING_CONFIG(PWR_REGULATOR_VOLTAGE_SCALE1);
 1385              		.loc 1 355 3 view .LVU309
 1386 001c 1E4A     		ldr	r2, .L103
 1387 001e 116C     		ldr	r1, [r2, #64]
 1388 0020 41F08051 		orr	r1, r1, #268435456
 1389 0024 1164     		str	r1, [r2, #64]
ARM GAS  /tmp/ccB3fkfO.s 			page 55


 355:Core/Src/main.c ****   __HAL_PWR_VOLTAGESCALING_CONFIG(PWR_REGULATOR_VOLTAGE_SCALE1);
 1390              		.loc 1 355 3 view .LVU310
 1391 0026 126C     		ldr	r2, [r2, #64]
 1392 0028 02F08052 		and	r2, r2, #268435456
 1393 002c 0192     		str	r2, [sp, #4]
 355:Core/Src/main.c ****   __HAL_PWR_VOLTAGESCALING_CONFIG(PWR_REGULATOR_VOLTAGE_SCALE1);
 1394              		.loc 1 355 3 view .LVU311
 1395 002e 019A     		ldr	r2, [sp, #4]
 1396              	.LBE12:
 355:Core/Src/main.c ****   __HAL_PWR_VOLTAGESCALING_CONFIG(PWR_REGULATOR_VOLTAGE_SCALE1);
 1397              		.loc 1 355 3 view .LVU312
 356:Core/Src/main.c **** 
 1398              		.loc 1 356 3 view .LVU313
 1399              	.LBB13:
 356:Core/Src/main.c **** 
 1400              		.loc 1 356 3 view .LVU314
 1401 0030 0293     		str	r3, [sp, #8]
 356:Core/Src/main.c **** 
 1402              		.loc 1 356 3 view .LVU315
 1403 0032 1A4A     		ldr	r2, .L103+4
 1404 0034 1168     		ldr	r1, [r2]
 1405 0036 41F44041 		orr	r1, r1, #49152
 1406 003a 1160     		str	r1, [r2]
 356:Core/Src/main.c **** 
 1407              		.loc 1 356 3 view .LVU316
 1408 003c 1268     		ldr	r2, [r2]
 1409 003e 02F44042 		and	r2, r2, #49152
 1410 0042 0292     		str	r2, [sp, #8]
 356:Core/Src/main.c **** 
 1411              		.loc 1 356 3 view .LVU317
 1412 0044 029A     		ldr	r2, [sp, #8]
 1413              	.LBE13:
 356:Core/Src/main.c **** 
 1414              		.loc 1 356 3 view .LVU318
 361:Core/Src/main.c ****   RCC_OscInitStruct.HSIState = RCC_HSI_ON;
 1415              		.loc 1 361 3 view .LVU319
 361:Core/Src/main.c ****   RCC_OscInitStruct.HSIState = RCC_HSI_ON;
 1416              		.loc 1 361 36 is_stmt 0 view .LVU320
 1417 0046 0221     		movs	r1, #2
 1418 0048 0891     		str	r1, [sp, #32]
 362:Core/Src/main.c ****   RCC_OscInitStruct.HSICalibrationValue = RCC_HSICALIBRATION_DEFAULT;
 1419              		.loc 1 362 3 is_stmt 1 view .LVU321
 362:Core/Src/main.c ****   RCC_OscInitStruct.HSICalibrationValue = RCC_HSICALIBRATION_DEFAULT;
 1420              		.loc 1 362 30 is_stmt 0 view .LVU322
 1421 004a 0122     		movs	r2, #1
 1422 004c 0B92     		str	r2, [sp, #44]
 363:Core/Src/main.c ****   RCC_OscInitStruct.PLL.PLLState = RCC_PLL_ON;
 1423              		.loc 1 363 3 is_stmt 1 view .LVU323
 363:Core/Src/main.c ****   RCC_OscInitStruct.PLL.PLLState = RCC_PLL_ON;
 1424              		.loc 1 363 41 is_stmt 0 view .LVU324
 1425 004e 1022     		movs	r2, #16
 1426 0050 0C92     		str	r2, [sp, #48]
 364:Core/Src/main.c ****   RCC_OscInitStruct.PLL.PLLSource = RCC_PLLSOURCE_HSI;
 1427              		.loc 1 364 3 is_stmt 1 view .LVU325
 364:Core/Src/main.c ****   RCC_OscInitStruct.PLL.PLLSource = RCC_PLLSOURCE_HSI;
 1428              		.loc 1 364 34 is_stmt 0 view .LVU326
 1429 0052 0E91     		str	r1, [sp, #56]
ARM GAS  /tmp/ccB3fkfO.s 			page 56


 365:Core/Src/main.c ****   RCC_OscInitStruct.PLL.PLLM = 16;
 1430              		.loc 1 365 3 is_stmt 1 view .LVU327
 365:Core/Src/main.c ****   RCC_OscInitStruct.PLL.PLLM = 16;
 1431              		.loc 1 365 35 is_stmt 0 view .LVU328
 1432 0054 0F93     		str	r3, [sp, #60]
 366:Core/Src/main.c ****   RCC_OscInitStruct.PLL.PLLN = 336;
 1433              		.loc 1 366 3 is_stmt 1 view .LVU329
 366:Core/Src/main.c ****   RCC_OscInitStruct.PLL.PLLN = 336;
 1434              		.loc 1 366 30 is_stmt 0 view .LVU330
 1435 0056 1092     		str	r2, [sp, #64]
 367:Core/Src/main.c ****   RCC_OscInitStruct.PLL.PLLP = RCC_PLLP_DIV4;
 1436              		.loc 1 367 3 is_stmt 1 view .LVU331
 367:Core/Src/main.c ****   RCC_OscInitStruct.PLL.PLLP = RCC_PLLP_DIV4;
 1437              		.loc 1 367 30 is_stmt 0 view .LVU332
 1438 0058 4FF4A873 		mov	r3, #336
 1439 005c 1193     		str	r3, [sp, #68]
 368:Core/Src/main.c ****   RCC_OscInitStruct.PLL.PLLQ = 4;
 1440              		.loc 1 368 3 is_stmt 1 view .LVU333
 368:Core/Src/main.c ****   RCC_OscInitStruct.PLL.PLLQ = 4;
 1441              		.loc 1 368 30 is_stmt 0 view .LVU334
 1442 005e 0423     		movs	r3, #4
 1443 0060 1293     		str	r3, [sp, #72]
 369:Core/Src/main.c ****   if (HAL_RCC_OscConfig(&RCC_OscInitStruct) != HAL_OK)
 1444              		.loc 1 369 3 is_stmt 1 view .LVU335
 369:Core/Src/main.c ****   if (HAL_RCC_OscConfig(&RCC_OscInitStruct) != HAL_OK)
 1445              		.loc 1 369 30 is_stmt 0 view .LVU336
 1446 0062 1393     		str	r3, [sp, #76]
 370:Core/Src/main.c ****   {
 1447              		.loc 1 370 3 is_stmt 1 view .LVU337
 370:Core/Src/main.c ****   {
 1448              		.loc 1 370 7 is_stmt 0 view .LVU338
 1449 0064 08A8     		add	r0, sp, #32
 1450 0066 FFF7FEFF 		bl	HAL_RCC_OscConfig
 1451              	.LVL100:
 370:Core/Src/main.c ****   {
 1452              		.loc 1 370 6 view .LVU339
 1453 006a 80B9     		cbnz	r0, .L101
 377:Core/Src/main.c ****                               |RCC_CLOCKTYPE_PCLK1|RCC_CLOCKTYPE_PCLK2;
 1454              		.loc 1 377 3 is_stmt 1 view .LVU340
 377:Core/Src/main.c ****                               |RCC_CLOCKTYPE_PCLK1|RCC_CLOCKTYPE_PCLK2;
 1455              		.loc 1 377 31 is_stmt 0 view .LVU341
 1456 006c 0F23     		movs	r3, #15
 1457 006e 0393     		str	r3, [sp, #12]
 379:Core/Src/main.c ****   RCC_ClkInitStruct.AHBCLKDivider = RCC_SYSCLK_DIV1;
 1458              		.loc 1 379 3 is_stmt 1 view .LVU342
 379:Core/Src/main.c ****   RCC_ClkInitStruct.AHBCLKDivider = RCC_SYSCLK_DIV1;
 1459              		.loc 1 379 34 is_stmt 0 view .LVU343
 1460 0070 0221     		movs	r1, #2
 1461 0072 0491     		str	r1, [sp, #16]
 380:Core/Src/main.c ****   RCC_ClkInitStruct.APB1CLKDivider = RCC_HCLK_DIV2;
 1462              		.loc 1 380 3 is_stmt 1 view .LVU344
 380:Core/Src/main.c ****   RCC_ClkInitStruct.APB1CLKDivider = RCC_HCLK_DIV2;
 1463              		.loc 1 380 35 is_stmt 0 view .LVU345
 1464 0074 0023     		movs	r3, #0
 1465 0076 0593     		str	r3, [sp, #20]
 381:Core/Src/main.c ****   RCC_ClkInitStruct.APB2CLKDivider = RCC_HCLK_DIV1;
 1466              		.loc 1 381 3 is_stmt 1 view .LVU346
ARM GAS  /tmp/ccB3fkfO.s 			page 57


 381:Core/Src/main.c ****   RCC_ClkInitStruct.APB2CLKDivider = RCC_HCLK_DIV1;
 1467              		.loc 1 381 36 is_stmt 0 view .LVU347
 1468 0078 4FF48052 		mov	r2, #4096
 1469 007c 0692     		str	r2, [sp, #24]
 382:Core/Src/main.c **** 
 1470              		.loc 1 382 3 is_stmt 1 view .LVU348
 382:Core/Src/main.c **** 
 1471              		.loc 1 382 36 is_stmt 0 view .LVU349
 1472 007e 0793     		str	r3, [sp, #28]
 384:Core/Src/main.c ****   {
 1473              		.loc 1 384 3 is_stmt 1 view .LVU350
 384:Core/Src/main.c ****   {
 1474              		.loc 1 384 7 is_stmt 0 view .LVU351
 1475 0080 03A8     		add	r0, sp, #12
 1476 0082 FFF7FEFF 		bl	HAL_RCC_ClockConfig
 1477              	.LVL101:
 384:Core/Src/main.c ****   {
 1478              		.loc 1 384 6 view .LVU352
 1479 0086 20B9     		cbnz	r0, .L102
 388:Core/Src/main.c **** 
 1480              		.loc 1 388 1 view .LVU353
 1481 0088 15B0     		add	sp, sp, #84
 1482              	.LCFI26:
 1483              		.cfi_remember_state
 1484              		.cfi_def_cfa_offset 4
 1485              		@ sp needed
 1486 008a 5DF804FB 		ldr	pc, [sp], #4
 1487              	.L101:
 1488              	.LCFI27:
 1489              		.cfi_restore_state
 372:Core/Src/main.c ****   }
 1490              		.loc 1 372 5 is_stmt 1 view .LVU354
 1491 008e FFF7FEFF 		bl	Error_Handler
 1492              	.LVL102:
 1493              	.L102:
 386:Core/Src/main.c ****   }
 1494              		.loc 1 386 5 view .LVU355
 1495 0092 FFF7FEFF 		bl	Error_Handler
 1496              	.LVL103:
 1497              	.L104:
 1498 0096 00BF     		.align	2
 1499              	.L103:
 1500 0098 00380240 		.word	1073887232
 1501 009c 00700040 		.word	1073770496
 1502              		.cfi_endproc
 1503              	.LFE149:
 1505              		.section	.text.initHardware,"ax",%progbits
 1506              		.align	1
 1507              		.syntax unified
 1508              		.thumb
 1509              		.thumb_func
 1510              		.fpu fpv4-sp-d16
 1512              	initHardware:
 1513              	.LVL104:
 1514              	.LFB134:
 101:Core/Src/main.c ****   /* Reset of all peripherals, Initializes the Flash interface and the Systick. */
 1515              		.loc 1 101 1 view -0
ARM GAS  /tmp/ccB3fkfO.s 			page 58


 1516              		.cfi_startproc
 1517              		@ args = 0, pretend = 0, frame = 0
 1518              		@ frame_needed = 0, uses_anonymous_args = 0
 101:Core/Src/main.c ****   /* Reset of all peripherals, Initializes the Flash interface and the Systick. */
 1519              		.loc 1 101 1 is_stmt 0 view .LVU357
 1520 0000 08B5     		push	{r3, lr}
 1521              	.LCFI28:
 1522              		.cfi_def_cfa_offset 8
 1523              		.cfi_offset 3, -8
 1524              		.cfi_offset 14, -4
 103:Core/Src/main.c **** 
 1525              		.loc 1 103 3 is_stmt 1 view .LVU358
 1526 0002 FFF7FEFF 		bl	HAL_Init
 1527              	.LVL105:
 106:Core/Src/main.c **** 
 1528              		.loc 1 106 3 view .LVU359
 1529 0006 FFF7FEFF 		bl	SystemClock_Config
 1530              	.LVL106:
 109:Core/Src/main.c ****   
 1531              		.loc 1 109 3 view .LVU360
 1532 000a FFF7FEFF 		bl	MX_GPIO_Init
 1533              	.LVL107:
 112:Core/Src/main.c ****   //uart_init();
 1534              		.loc 1 112 3 view .LVU361
 1535 000e 0120     		movs	r0, #1
 1536 0010 FFF7FEFF 		bl	uart_init
 1537              	.LVL108:
 114:Core/Src/main.c **** 
 1538              		.loc 1 114 3 view .LVU362
 1539 0014 0020     		movs	r0, #0
 1540 0016 FFF7FEFF 		bl	uart_init
 1541              	.LVL109:
 116:Core/Src/main.c **** }
 1542              		.loc 1 116 3 view .LVU363
 1543 001a 0020     		movs	r0, #0
 1544 001c FFF7FEFF 		bl	setLED
 1545              	.LVL110:
 117:Core/Src/main.c **** 
 1546              		.loc 1 117 1 is_stmt 0 view .LVU364
 1547 0020 08BD     		pop	{r3, pc}
 1548              		.cfi_endproc
 1549              	.LFE134:
 1551              		.section	.text.initHardware_car,"ax",%progbits
 1552              		.align	1
 1553              		.global	initHardware_car
 1554              		.syntax unified
 1555              		.thumb
 1556              		.thumb_func
 1557              		.fpu fpv4-sp-d16
 1559              	initHardware_car:
 1560              	.LVL111:
 1561              	.LFB135:
 120:Core/Src/main.c ****   initHardware(argc, argv);
 1562              		.loc 1 120 1 is_stmt 1 view -0
 1563              		.cfi_startproc
 1564              		@ args = 0, pretend = 0, frame = 0
 1565              		@ frame_needed = 0, uses_anonymous_args = 0
ARM GAS  /tmp/ccB3fkfO.s 			page 59


 120:Core/Src/main.c ****   initHardware(argc, argv);
 1566              		.loc 1 120 1 is_stmt 0 view .LVU366
 1567 0000 08B5     		push	{r3, lr}
 1568              	.LCFI29:
 1569              		.cfi_def_cfa_offset 8
 1570              		.cfi_offset 3, -8
 1571              		.cfi_offset 14, -4
 121:Core/Src/main.c **** }
 1572              		.loc 1 121 3 is_stmt 1 view .LVU367
 1573 0002 FFF7FEFF 		bl	initHardware
 1574              	.LVL112:
 122:Core/Src/main.c **** 
 1575              		.loc 1 122 1 is_stmt 0 view .LVU368
 1576 0006 08BD     		pop	{r3, pc}
 1577              		.cfi_endproc
 1578              	.LFE135:
 1580              		.section	.text.initHardware_fob,"ax",%progbits
 1581              		.align	1
 1582              		.global	initHardware_fob
 1583              		.syntax unified
 1584              		.thumb
 1585              		.thumb_func
 1586              		.fpu fpv4-sp-d16
 1588              	initHardware_fob:
 1589              	.LVL113:
 1590              	.LFB136:
 125:Core/Src/main.c ****   initHardware(argc, argv);
 1591              		.loc 1 125 1 is_stmt 1 view -0
 1592              		.cfi_startproc
 1593              		@ args = 0, pretend = 0, frame = 0
 1594              		@ frame_needed = 0, uses_anonymous_args = 0
 125:Core/Src/main.c ****   initHardware(argc, argv);
 1595              		.loc 1 125 1 is_stmt 0 view .LVU370
 1596 0000 08B5     		push	{r3, lr}
 1597              	.LCFI30:
 1598              		.cfi_def_cfa_offset 8
 1599              		.cfi_offset 3, -8
 1600              		.cfi_offset 14, -4
 126:Core/Src/main.c **** }
 1601              		.loc 1 126 3 is_stmt 1 view .LVU371
 1602 0002 FFF7FEFF 		bl	initHardware
 1603              	.LVL114:
 127:Core/Src/main.c **** 
 1604              		.loc 1 127 1 is_stmt 0 view .LVU372
 1605 0006 08BD     		pop	{r3, pc}
 1606              		.cfi_endproc
 1607              	.LFE136:
 1609              		.global	flash_data
 1610              		.global	feature3_flag
 1611              		.global	feature2_flag
 1612              		.global	feature1_flag
 1613              		.global	unlock_flag
 1614              		.global	huart2
 1615              		.global	huart1
 1616              		.section	.rodata
 1617              		.align	2
 1618              		.set	.LANCHOR0,. + 0
ARM GAS  /tmp/ccB3fkfO.s 			page 60


 1619              	.LC1:
 1620 0000 64656661 		.ascii	"default_unlock\000"
 1620      756C745F 
 1620      756E6C6F 
 1620      636B00
 1621 000f 00000000 		.space	49
 1621      00000000 
 1621      00000000 
 1621      00000000 
 1621      00000000 
 1622              	.LC3:
 1623 0040 64656661 		.ascii	"default_feature1\000"
 1623      756C745F 
 1623      66656174 
 1623      75726531 
 1623      00
 1624 0051 00000000 		.space	47
 1624      00000000 
 1624      00000000 
 1624      00000000 
 1624      00000000 
 1625              	.LC5:
 1626 0080 64656661 		.ascii	"default_feature2\000"
 1626      756C745F 
 1626      66656174 
 1626      75726532 
 1626      00
 1627 0091 00000000 		.space	47
 1627      00000000 
 1627      00000000 
 1627      00000000 
 1627      00000000 
 1628              	.LC7:
 1629 00c0 64656661 		.ascii	"default_feature3\000"
 1629      756C745F 
 1629      66656174 
 1629      75726533 
 1629      00
 1630 00d1 00000000 		.space	47
 1630      00000000 
 1630      00000000 
 1630      00000000 
 1630      00000000 
 1631              		.section	.bss.history.1,"aw",%nobits
 1632              		.align	2
 1633              		.set	.LANCHOR2,. + 0
 1636              	history.1:
 1637 0000 00000000 		.space	4
 1638              		.section	.bss.huart1,"aw",%nobits
 1639              		.align	2
 1640              		.set	.LANCHOR6,. + 0
 1643              	huart1:
 1644 0000 00000000 		.space	72
 1644      00000000 
 1644      00000000 
 1644      00000000 
 1644      00000000 
ARM GAS  /tmp/ccB3fkfO.s 			page 61


 1645              		.section	.bss.huart2,"aw",%nobits
 1646              		.align	2
 1647              		.set	.LANCHOR5,. + 0
 1650              	huart2:
 1651 0000 00000000 		.space	72
 1651      00000000 
 1651      00000000 
 1651      00000000 
 1651      00000000 
 1652              		.section	.bss.latched.0,"aw",%nobits
 1653              		.set	.LANCHOR3,. + 0
 1656              	latched.0:
 1657 0000 00       		.space	1
 1658              		.section	.flash_data,"aw"
 1659              		.align	2
 1660              		.set	.LANCHOR1,. + 0
 1663              	flash_data:
 1664 0000 00000000 		.space	37
 1664      00000000 
 1664      00000000 
 1664      00000000 
 1664      00000000 
 1665              		.section	.rodata.feature1_flag,"a"
 1666              		.align	2
 1669              	feature1_flag:
 1670 0000 64656661 		.ascii	"default_feature1\000"
 1670      756C745F 
 1670      66656174 
 1670      75726531 
 1670      00
 1671 0011 00000000 		.space	47
 1671      00000000 
 1671      00000000 
 1671      00000000 
 1671      00000000 
 1672              		.section	.rodata.feature2_flag,"a"
 1673              		.align	2
 1676              	feature2_flag:
 1677 0000 64656661 		.ascii	"default_feature2\000"
 1677      756C745F 
 1677      66656174 
 1677      75726532 
 1677      00
 1678 0011 00000000 		.space	47
 1678      00000000 
 1678      00000000 
 1678      00000000 
 1678      00000000 
 1679              		.section	.rodata.feature3_flag,"a"
 1680              		.align	2
 1683              	feature3_flag:
 1684 0000 64656661 		.ascii	"default_feature3\000"
 1684      756C745F 
 1684      66656174 
 1684      75726533 
 1684      00
 1685 0011 00000000 		.space	47
ARM GAS  /tmp/ccB3fkfO.s 			page 62


 1685      00000000 
 1685      00000000 
 1685      00000000 
 1685      00000000 
 1686              		.section	.rodata.uart_base,"a"
 1687              		.align	2
 1688              		.set	.LANCHOR4,. + 0
 1691              	uart_base:
 1692 0000 00000000 		.word	huart2
 1693 0004 00000000 		.word	huart1
 1694              		.section	.rodata.unlock_flag,"a"
 1695              		.align	2
 1698              	unlock_flag:
 1699 0000 64656661 		.ascii	"default_unlock\000"
 1699      756C745F 
 1699      756E6C6F 
 1699      636B00
 1700 000f 00000000 		.space	49
 1700      00000000 
 1700      00000000 
 1700      00000000 
 1700      00000000 
 1701              		.text
 1702              	.Letext0:
 1703              		.file 3 "/usr/lib/gcc/arm-none-eabi/10.3.1/include/stdint.h"
 1704              		.file 4 "Drivers/CMSIS/Device/ST/STM32F4xx/Include/stm32f411xe.h"
 1705              		.file 5 "/usr/lib/gcc/arm-none-eabi/10.3.1/include/stddef.h"
 1706              		.file 6 "Drivers/CMSIS/Device/ST/STM32F4xx/Include/stm32f4xx.h"
 1707              		.file 7 "Drivers/STM32F4xx_HAL_Driver/Inc/stm32f4xx_hal_def.h"
 1708              		.file 8 "Drivers/STM32F4xx_HAL_Driver/Inc/stm32f4xx_hal_rcc_ex.h"
 1709              		.file 9 "Drivers/STM32F4xx_HAL_Driver/Inc/stm32f4xx_hal_rcc.h"
 1710              		.file 10 "Drivers/STM32F4xx_HAL_Driver/Inc/stm32f4xx_hal_gpio.h"
 1711              		.file 11 "Drivers/STM32F4xx_HAL_Driver/Inc/stm32f4xx_hal_dma.h"
 1712              		.file 12 "Drivers/STM32F4xx_HAL_Driver/Inc/stm32f4xx_hal_flash_ex.h"
 1713              		.file 13 "Drivers/STM32F4xx_HAL_Driver/Inc/stm32f4xx_hal_uart.h"
 1714              		.file 14 "../../application/inc/uart.h"
 1715              		.file 15 "../../application/inc/dataFormats.h"
 1716              		.file 16 "../../application/inc/platform.h"
 1717              		.file 17 "Drivers/STM32F4xx_HAL_Driver/Inc/stm32f4xx_hal_flash.h"
 1718              		.file 18 "/usr/include/newlib/string.h"
 1719              		.file 19 "Drivers/STM32F4xx_HAL_Driver/Inc/stm32f4xx_hal.h"
 1720              		.file 20 "<built-in>"
ARM GAS  /tmp/ccB3fkfO.s 			page 63

