ARM GAS  /tmp/ccjCAnnG.s 			page 1


   1              		.cpu cortex-m4
   2              		.eabi_attribute 27, 1
   3              		.eabi_attribute 28, 1
   4              		.eabi_attribute 20, 1
   5              		.eabi_attribute 21, 1
   6              		.eabi_attribute 23, 3
   7              		.eabi_attribute 24, 1
   8              		.eabi_attribute 25, 1
   9              		.eabi_attribute 26, 1
  10              		.eabi_attribute 30, 1
  11              		.eabi_attribute 34, 1
  12              		.eabi_attribute 18, 4
  13              		.file	"messages.c"
  14              		.text
  15              	.Ltext0:
  16              		.cfi_sections	.debug_frame
  17              		.section	.text.send_board_message,"ax",%progbits
  18              		.align	1
  19              		.global	send_board_message
  20              		.arch armv7e-m
  21              		.syntax unified
  22              		.thumb
  23              		.thumb_func
  24              		.fpu fpv4-sp-d16
  26              	send_board_message:
  27              	.LVL0:
  28              	.LFB0:
  29              		.file 1 "../../application/src/messages.c"
   1:../../application/src/messages.c **** /**
   2:../../application/src/messages.c ****  * @file board_link.h
   3:../../application/src/messages.c ****  * @author Frederich Stine
   4:../../application/src/messages.c ****  * @brief Firmware UART interface implementation.
   5:../../application/src/messages.c ****  * @date 2023
   6:../../application/src/messages.c ****  *
   7:../../application/src/messages.c ****  * This source file is part of an example system for MITRE's 2023 Embedded
   8:../../application/src/messages.c ****  * System CTF (eCTF). This code is being provided only for educational purposes
   9:../../application/src/messages.c ****  * for the 2023 MITRE eCTF competition, and may not meet MITRE standards for
  10:../../application/src/messages.c ****  * quality. Use this code at your own risk!
  11:../../application/src/messages.c ****  *
  12:../../application/src/messages.c ****  * @copyright Copyright (c) 2023 The MITRE Corporation
  13:../../application/src/messages.c ****  */
  14:../../application/src/messages.c **** 
  15:../../application/src/messages.c **** #include <stdbool.h>
  16:../../application/src/messages.c **** #include <stdint.h>
  17:../../application/src/messages.c **** 
  18:../../application/src/messages.c **** #include "messages.h"
  19:../../application/src/messages.c **** #include "uart.h"
  20:../../application/src/messages.c **** 
  21:../../application/src/messages.c **** /**
  22:../../application/src/messages.c ****  * @brief Send a message between boards
  23:../../application/src/messages.c ****  *
  24:../../application/src/messages.c ****  * @param message pointer to message to send
  25:../../application/src/messages.c ****  * @return uint32_t the number of bytes sent
  26:../../application/src/messages.c ****  */
  27:../../application/src/messages.c **** uint32_t send_board_message(MESSAGE_PACKET *message)
  28:../../application/src/messages.c **** {
  30              		.loc 1 28 1 view -0
ARM GAS  /tmp/ccjCAnnG.s 			page 2


  31              		.cfi_startproc
  32              		@ args = 0, pretend = 0, frame = 0
  33              		@ frame_needed = 0, uses_anonymous_args = 0
  34              		.loc 1 28 1 is_stmt 0 view .LVU1
  35 0000 10B5     		push	{r4, lr}
  36              	.LCFI0:
  37              		.cfi_def_cfa_offset 8
  38              		.cfi_offset 4, -8
  39              		.cfi_offset 14, -4
  40 0002 0446     		mov	r4, r0
  29:../../application/src/messages.c ****   uart_write(BOARD_UART, (uint8_t*)message, (message->message_len)+2);
  41              		.loc 1 29 3 is_stmt 1 view .LVU2
  42              		.loc 1 29 53 is_stmt 0 view .LVU3
  43 0004 4278     		ldrb	r2, [r0, #1]	@ zero_extendqisi2
  44              		.loc 1 29 3 view .LVU4
  45 0006 0232     		adds	r2, r2, #2
  46 0008 0146     		mov	r1, r0
  47 000a 0120     		movs	r0, #1
  48              	.LVL1:
  49              		.loc 1 29 3 view .LVU5
  50 000c FFF7FEFF 		bl	uart_write
  51              	.LVL2:
  30:../../application/src/messages.c ****   return message->message_len;
  52              		.loc 1 30 3 is_stmt 1 view .LVU6
  31:../../application/src/messages.c **** }
  53              		.loc 1 31 1 is_stmt 0 view .LVU7
  54 0010 6078     		ldrb	r0, [r4, #1]	@ zero_extendqisi2
  55 0012 10BD     		pop	{r4, pc}
  56              		.loc 1 31 1 view .LVU8
  57              		.cfi_endproc
  58              	.LFE0:
  60              		.section	.text.receive_board_message,"ax",%progbits
  61              		.align	1
  62              		.global	receive_board_message
  63              		.syntax unified
  64              		.thumb
  65              		.thumb_func
  66              		.fpu fpv4-sp-d16
  68              	receive_board_message:
  69              	.LVL3:
  70              	.LFB1:
  32:../../application/src/messages.c **** 
  33:../../application/src/messages.c **** /**
  34:../../application/src/messages.c ****  * @brief Receive a message between boards
  35:../../application/src/messages.c ****  *
  36:../../application/src/messages.c ****  * @param message pointer to message where data will be received
  37:../../application/src/messages.c ****  * @return uint32_t the number of bytes received - 0 for error
  38:../../application/src/messages.c ****  */
  39:../../application/src/messages.c **** uint32_t receive_board_message(MESSAGE_PACKET *message)
  40:../../application/src/messages.c **** {
  71              		.loc 1 40 1 is_stmt 1 view -0
  72              		.cfi_startproc
  73              		@ args = 0, pretend = 0, frame = 0
  74              		@ frame_needed = 0, uses_anonymous_args = 0
  75              		.loc 1 40 1 is_stmt 0 view .LVU10
  76 0000 10B5     		push	{r4, lr}
  77              	.LCFI1:
ARM GAS  /tmp/ccjCAnnG.s 			page 3


  78              		.cfi_def_cfa_offset 8
  79              		.cfi_offset 4, -8
  80              		.cfi_offset 14, -4
  81 0002 0446     		mov	r4, r0
  41:../../application/src/messages.c ****   message->magic = (uint8_t)uart_readb(BOARD_UART);
  82              		.loc 1 41 3 is_stmt 1 view .LVU11
  83              		.loc 1 41 29 is_stmt 0 view .LVU12
  84 0004 0120     		movs	r0, #1
  85              	.LVL4:
  86              		.loc 1 41 29 view .LVU13
  87 0006 FFF7FEFF 		bl	uart_readb
  88              	.LVL5:
  89              		.loc 1 41 20 view .LVU14
  90 000a C0B2     		uxtb	r0, r0
  91              		.loc 1 41 18 view .LVU15
  92 000c 2070     		strb	r0, [r4]
  42:../../application/src/messages.c **** 
  43:../../application/src/messages.c ****   if (message->magic == 0) {
  93              		.loc 1 43 3 is_stmt 1 view .LVU16
  94              		.loc 1 43 6 is_stmt 0 view .LVU17
  95 000e 08B9     		cbnz	r0, .L7
  44:../../application/src/messages.c ****     return 0;
  96              		.loc 1 44 12 view .LVU18
  97 0010 0020     		movs	r0, #0
  98              	.L3:
  45:../../application/src/messages.c ****   }
  46:../../application/src/messages.c **** 
  47:../../application/src/messages.c ****   message->message_len = (uint8_t)uart_readb(BOARD_UART);
  48:../../application/src/messages.c ****   uart_read(BOARD_UART, (uint8_t*)(message->buffer), message->message_len);
  49:../../application/src/messages.c ****   
  50:../../application/src/messages.c ****   return message->message_len;
  51:../../application/src/messages.c **** }
  99              		.loc 1 51 1 view .LVU19
 100 0012 10BD     		pop	{r4, pc}
 101              	.LVL6:
 102              	.L7:
  47:../../application/src/messages.c ****   uart_read(BOARD_UART, (uint8_t*)(message->buffer), message->message_len);
 103              		.loc 1 47 3 is_stmt 1 view .LVU20
  47:../../application/src/messages.c ****   uart_read(BOARD_UART, (uint8_t*)(message->buffer), message->message_len);
 104              		.loc 1 47 35 is_stmt 0 view .LVU21
 105 0014 0120     		movs	r0, #1
 106 0016 FFF7FEFF 		bl	uart_readb
 107              	.LVL7:
  47:../../application/src/messages.c ****   uart_read(BOARD_UART, (uint8_t*)(message->buffer), message->message_len);
 108              		.loc 1 47 26 view .LVU22
 109 001a C2B2     		uxtb	r2, r0
  47:../../application/src/messages.c ****   uart_read(BOARD_UART, (uint8_t*)(message->buffer), message->message_len);
 110              		.loc 1 47 24 view .LVU23
 111 001c 6270     		strb	r2, [r4, #1]
  48:../../application/src/messages.c ****   
 112              		.loc 1 48 3 is_stmt 1 view .LVU24
 113 001e 6168     		ldr	r1, [r4, #4]
 114 0020 0120     		movs	r0, #1
 115 0022 FFF7FEFF 		bl	uart_read
 116              	.LVL8:
  50:../../application/src/messages.c **** }
 117              		.loc 1 50 3 view .LVU25
ARM GAS  /tmp/ccjCAnnG.s 			page 4


  50:../../application/src/messages.c **** }
 118              		.loc 1 50 17 is_stmt 0 view .LVU26
 119 0026 6078     		ldrb	r0, [r4, #1]	@ zero_extendqisi2
 120 0028 F3E7     		b	.L3
 121              		.cfi_endproc
 122              	.LFE1:
 124              		.section	.text.receive_board_message_by_type,"ax",%progbits
 125              		.align	1
 126              		.global	receive_board_message_by_type
 127              		.syntax unified
 128              		.thumb
 129              		.thumb_func
 130              		.fpu fpv4-sp-d16
 132              	receive_board_message_by_type:
 133              	.LVL9:
 134              	.LFB2:
  52:../../application/src/messages.c **** 
  53:../../application/src/messages.c **** /**
  54:../../application/src/messages.c ****  * @brief Function that retreives messages until the specified message is found
  55:../../application/src/messages.c ****  *
  56:../../application/src/messages.c ****  * @param message pointer to message where data will be received
  57:../../application/src/messages.c ****  * @param type the type of message to receive
  58:../../application/src/messages.c ****  * @return uint32_t the number of bytes received
  59:../../application/src/messages.c ****  */
  60:../../application/src/messages.c **** uint32_t receive_board_message_by_type(MESSAGE_PACKET *message, uint8_t type) {
 135              		.loc 1 60 79 is_stmt 1 view -0
 136              		.cfi_startproc
 137              		@ args = 0, pretend = 0, frame = 0
 138              		@ frame_needed = 0, uses_anonymous_args = 0
 139              		.loc 1 60 79 is_stmt 0 view .LVU28
 140 0000 38B5     		push	{r3, r4, r5, lr}
 141              	.LCFI2:
 142              		.cfi_def_cfa_offset 16
 143              		.cfi_offset 3, -16
 144              		.cfi_offset 4, -12
 145              		.cfi_offset 5, -8
 146              		.cfi_offset 14, -4
 147 0002 0446     		mov	r4, r0
 148 0004 0D46     		mov	r5, r1
 149              	.LVL10:
 150              	.L9:
  61:../../application/src/messages.c ****   do {
 151              		.loc 1 61 3 is_stmt 1 discriminator 1 view .LVU29
  62:../../application/src/messages.c ****     receive_board_message(message);
 152              		.loc 1 62 5 discriminator 1 view .LVU30
 153 0006 2046     		mov	r0, r4
 154 0008 FFF7FEFF 		bl	receive_board_message
 155              	.LVL11:
  63:../../application/src/messages.c ****   } while (message->magic != type);
 156              		.loc 1 63 11 discriminator 1 view .LVU31
 157              		.loc 1 63 19 is_stmt 0 discriminator 1 view .LVU32
 158 000c 2378     		ldrb	r3, [r4]	@ zero_extendqisi2
 159              		.loc 1 63 3 discriminator 1 view .LVU33
 160 000e AB42     		cmp	r3, r5
 161 0010 F9D1     		bne	.L9
  64:../../application/src/messages.c **** 
  65:../../application/src/messages.c ****   return message->message_len;
ARM GAS  /tmp/ccjCAnnG.s 			page 5


 162              		.loc 1 65 3 is_stmt 1 view .LVU34
  66:../../application/src/messages.c **** }
 163              		.loc 1 66 1 is_stmt 0 view .LVU35
 164 0012 6078     		ldrb	r0, [r4, #1]	@ zero_extendqisi2
 165 0014 38BD     		pop	{r3, r4, r5, pc}
 166              		.loc 1 66 1 view .LVU36
 167              		.cfi_endproc
 168              	.LFE2:
 170              		.text
 171              	.Letext0:
 172              		.file 2 "/usr/lib/gcc/arm-none-eabi/10.3.1/include/stdint.h"
 173              		.file 3 "../../application/inc/messages.h"
 174              		.file 4 "../../application/inc/uart.h"
ARM GAS  /tmp/ccjCAnnG.s 			page 6

